GAS LISTING /tmp/cc18FQhI.s 			page 1


   1              		.file	"_new.cpp"
   2              		.option pic
   3              		.option norelax
   4              		.text
   5              	.Ltext0:
   6              		.align	2
   7              		.globl	_Znwm
   9              	_Znwm:
  10              	.LFB23:
  11              		.file 1 "src/_new.cpp"
   1:src/_new.cpp  **** //
   2:src/_new.cpp  **** // Created by marko on 20.4.22..
   3:src/_new.cpp  **** //
   4:src/_new.cpp  **** 
   5:src/_new.cpp  **** #include "../lib/mem.h"
   6:src/_new.cpp  **** #include "../h/syscall_cpp.hpp"
   7:src/_new.cpp  **** #include "../h/memoryAllocator.hpp"
   8:src/_new.cpp  **** 
   9:src/_new.cpp  **** using size_t = decltype(sizeof(0));
  10:src/_new.cpp  **** 
  11:src/_new.cpp  **** //THEIR MEMORY
  12:src/_new.cpp  **** 
  13:src/_new.cpp  **** 
  14:src/_new.cpp  **** /*
  15:src/_new.cpp  **** void *operator new(size_t n)
  16:src/_new.cpp  **** {
  17:src/_new.cpp  ****     return __mem_alloc(n);
  18:src/_new.cpp  **** }
  19:src/_new.cpp  **** 
  20:src/_new.cpp  **** void *operator new[](size_t n)
  21:src/_new.cpp  **** {
  22:src/_new.cpp  ****     return __mem_alloc(n);
  23:src/_new.cpp  **** }
  24:src/_new.cpp  **** 
  25:src/_new.cpp  **** void operator delete(void *p) noexcept
  26:src/_new.cpp  **** {
  27:src/_new.cpp  ****     __mem_free(p);
  28:src/_new.cpp  **** }
  29:src/_new.cpp  **** 
  30:src/_new.cpp  **** void operator delete[](void *p) noexcept
  31:src/_new.cpp  **** {
  32:src/_new.cpp  ****     __mem_free(p);
  33:src/_new.cpp  **** }
  34:src/_new.cpp  **** */
  35:src/_new.cpp  **** 
  36:src/_new.cpp  **** 
  37:src/_new.cpp  **** 
  38:src/_new.cpp  **** //****************************MY MEMORY********************************
  39:src/_new.cpp  **** 
  40:src/_new.cpp  **** 
  41:src/_new.cpp  **** void *operator new(size_t n)
  42:src/_new.cpp  **** {
  12              		.loc 1 42 1
  13              		.cfi_startproc
  14              	.LVL0:
  15 0000 130101FF 		addi	sp,sp,-16
  16              		.cfi_def_cfa_offset 16
GAS LISTING /tmp/cc18FQhI.s 			page 2


  17 0004 23341100 		sd	ra,8(sp)
  18 0008 23308100 		sd	s0,0(sp)
  19              		.cfi_offset 1, -8
  20              		.cfi_offset 8, -16
  21 000c 13040101 		addi	s0,sp,16
  22              		.cfi_def_cfa 8, 0
  43:src/_new.cpp  ****     return MemoryAllocator::mem_alloc(n);
  23              		.loc 1 43 5
  24              		.loc 1 43 38 is_stmt 0
  25 0010 97000000 		call	_ZN15MemoryAllocator9mem_allocEm@plt
  25      E7800000 
  26              	.LVL1:
  44:src/_new.cpp  **** }
  27              		.loc 1 44 1
  28 0018 83308100 		ld	ra,8(sp)
  29              		.cfi_restore 1
  30 001c 03340100 		ld	s0,0(sp)
  31              		.cfi_restore 8
  32              		.cfi_def_cfa 2, 16
  33 0020 13010101 		addi	sp,sp,16
  34              		.cfi_def_cfa_offset 0
  35 0024 67800000 		jr	ra
  36              		.cfi_endproc
  37              	.LFE23:
  39              		.align	2
  40              		.globl	_Znam
  42              	_Znam:
  43              	.LFB24:
  45:src/_new.cpp  **** 
  46:src/_new.cpp  **** void *operator new[](size_t n)
  47:src/_new.cpp  **** {
  44              		.loc 1 47 1 is_stmt 1
  45              		.cfi_startproc
  46              	.LVL2:
  47 0028 130101FF 		addi	sp,sp,-16
  48              		.cfi_def_cfa_offset 16
  49 002c 23341100 		sd	ra,8(sp)
  50 0030 23308100 		sd	s0,0(sp)
  51              		.cfi_offset 1, -8
  52              		.cfi_offset 8, -16
  53 0034 13040101 		addi	s0,sp,16
  54              		.cfi_def_cfa 8, 0
  48:src/_new.cpp  ****     return MemoryAllocator::mem_alloc(n);
  55              		.loc 1 48 5
  56              		.loc 1 48 38 is_stmt 0
  57 0038 97000000 		call	_ZN15MemoryAllocator9mem_allocEm@plt
  57      E7800000 
  58              	.LVL3:
  49:src/_new.cpp  **** }
  59              		.loc 1 49 1
  60 0040 83308100 		ld	ra,8(sp)
  61              		.cfi_restore 1
  62 0044 03340100 		ld	s0,0(sp)
  63              		.cfi_restore 8
  64              		.cfi_def_cfa 2, 16
  65 0048 13010101 		addi	sp,sp,16
  66              		.cfi_def_cfa_offset 0
GAS LISTING /tmp/cc18FQhI.s 			page 3


  67 004c 67800000 		jr	ra
  68              		.cfi_endproc
  69              	.LFE24:
  71              		.align	2
  72              		.globl	_ZdlPv
  74              	_ZdlPv:
  75              	.LFB25:
  50:src/_new.cpp  **** 
  51:src/_new.cpp  **** void operator delete(void *p) noexcept
  52:src/_new.cpp  **** {
  76              		.loc 1 52 1 is_stmt 1
  77              		.cfi_startproc
  78              		.cfi_personality 0x9b,DW.ref.__gxx_personality_v0
  79              		.cfi_lsda 0x1b,.LLSDA25
  80              	.LVL4:
  81 0050 130101FF 		addi	sp,sp,-16
  82              		.cfi_def_cfa_offset 16
  83 0054 23341100 		sd	ra,8(sp)
  84 0058 23308100 		sd	s0,0(sp)
  85              		.cfi_offset 1, -8
  86              		.cfi_offset 8, -16
  87 005c 13040101 		addi	s0,sp,16
  88              		.cfi_def_cfa 8, 0
  53:src/_new.cpp  ****     MemoryAllocator::mem_free(p);
  89              		.loc 1 53 5
  90              		.loc 1 53 30 is_stmt 0
  91 0060 97000000 		call	_ZN15MemoryAllocator8mem_freeEPv@plt
  91      E7800000 
  92              	.LVL5:
  54:src/_new.cpp  **** }
  93              		.loc 1 54 1
  94 0068 83308100 		ld	ra,8(sp)
  95              		.cfi_restore 1
  96 006c 03340100 		ld	s0,0(sp)
  97              		.cfi_restore 8
  98              		.cfi_def_cfa 2, 16
  99 0070 13010101 		addi	sp,sp,16
 100              		.cfi_def_cfa_offset 0
 101 0074 67800000 		jr	ra
 102              		.cfi_endproc
 103              	.LFE25:
 104              		.globl	__gxx_personality_v0
 105              		.section	.gcc_except_table,"a",@progbits
 106              	.LLSDA25:
 107 0000 FF       		.byte	0xff
 108 0001 FF       		.byte	0xff
 109 0002 03       		.byte	0x3
 110 0003 00       		.byte	0
 111              		.text
 113              		.align	2
 114              		.globl	_ZdaPv
 116              	_ZdaPv:
 117              	.LFB26:
  55:src/_new.cpp  **** 
  56:src/_new.cpp  **** void operator delete[](void *p) noexcept
  57:src/_new.cpp  **** {
 118              		.loc 1 57 1 is_stmt 1
GAS LISTING /tmp/cc18FQhI.s 			page 4


 119              		.cfi_startproc
 120              		.cfi_personality 0x9b,DW.ref.__gxx_personality_v0
 121              		.cfi_lsda 0x1b,.LLSDA26
 122              	.LVL6:
 123 0078 130101FF 		addi	sp,sp,-16
 124              		.cfi_def_cfa_offset 16
 125 007c 23341100 		sd	ra,8(sp)
 126 0080 23308100 		sd	s0,0(sp)
 127              		.cfi_offset 1, -8
 128              		.cfi_offset 8, -16
 129 0084 13040101 		addi	s0,sp,16
 130              		.cfi_def_cfa 8, 0
  58:src/_new.cpp  ****     MemoryAllocator::mem_free(p);
 131              		.loc 1 58 5
 132              		.loc 1 58 30 is_stmt 0
 133 0088 97000000 		call	_ZN15MemoryAllocator8mem_freeEPv@plt
 133      E7800000 
 134              	.LVL7:
  59:src/_new.cpp  **** }
 135              		.loc 1 59 1
 136 0090 83308100 		ld	ra,8(sp)
 137              		.cfi_restore 1
 138 0094 03340100 		ld	s0,0(sp)
 139              		.cfi_restore 8
 140              		.cfi_def_cfa 2, 16
 141 0098 13010101 		addi	sp,sp,16
 142              		.cfi_def_cfa_offset 0
 143 009c 67800000 		jr	ra
 144              		.cfi_endproc
 145              	.LFE26:
 146              		.section	.gcc_except_table
 147              	.LLSDA26:
 148 0004 FF       		.byte	0xff
 149 0005 FF       		.byte	0xff
 150 0006 03       		.byte	0x3
 151 0007 00       		.byte	0
 152              		.text
 154              	.Letext0:
 155              		.file 2 "src/../lib/hw.h"
 156              		.file 3 "src/../h/memoryAllocator.hpp"
 1083              		.align	3
 1086              	DW.ref.__gxx_personality_v0:
 1087 0000 00000000 		.dword	__gxx_personality_v0
 1087      00000000 
 1088              		.ident	"GCC: (Ubuntu 9.4.0-1ubuntu1~20.04) 9.4.0"
 1089              		.section	.note.GNU-stack,"",@progbits
GAS LISTING /tmp/cc18FQhI.s 			page 5

