GAS LISTING /tmp/ccS0xLOr.s 			page 1


   1              		.file	"_new.cpp"
   2              		.option pic
   3              		.option norelax
   4              		.text
   5              	.Ltext0:
   6              		.align	2
   7              		.globl	_Znwm
   9              	_Znwm:
  10              	.LFB38:
  11              		.file 1 "src/_new.cpp"
   1:src/_new.cpp  **** //
   2:src/_new.cpp  **** // Created by marko on 20.4.22..
   3:src/_new.cpp  **** //
   4:src/_new.cpp  **** 
   5:src/_new.cpp  **** #include "../lib/mem.h"
   6:src/_new.cpp  **** #include "../h/syscall_cpp.hpp"
   7:src/_new.cpp  **** #include "../h/memoryAllocator.hpp"
   8:src/_new.cpp  **** 
   9:src/_new.cpp  **** using size_t = decltype(sizeof(0));
  10:src/_new.cpp  **** 
  11:src/_new.cpp  **** //THEIR MEMORY
  12:src/_new.cpp  **** 
  13:src/_new.cpp  **** 
  14:src/_new.cpp  **** /*
  15:src/_new.cpp  **** void *operator new(size_t n)
  16:src/_new.cpp  **** {
  17:src/_new.cpp  ****     return __mem_alloc(n);
  18:src/_new.cpp  **** }
  19:src/_new.cpp  **** 
  20:src/_new.cpp  **** void *operator new[](size_t n)
  21:src/_new.cpp  **** {
  22:src/_new.cpp  ****     return __mem_alloc(n);
  23:src/_new.cpp  **** }
  24:src/_new.cpp  **** 
  25:src/_new.cpp  **** void operator delete(void *p) noexcept
  26:src/_new.cpp  **** {
  27:src/_new.cpp  ****     __mem_free(p);
  28:src/_new.cpp  **** }
  29:src/_new.cpp  **** 
  30:src/_new.cpp  **** void operator delete[](void *p) noexcept
  31:src/_new.cpp  **** {
  32:src/_new.cpp  ****     __mem_free(p);
  33:src/_new.cpp  **** }
  34:src/_new.cpp  **** */
  35:src/_new.cpp  **** 
  36:src/_new.cpp  **** 
  37:src/_new.cpp  **** 
  38:src/_new.cpp  **** //****************************MY MEMORY********************************
  39:src/_new.cpp  **** 
  40:src/_new.cpp  **** /*
  41:src/_new.cpp  **** void *operator new(size_t n)
  42:src/_new.cpp  **** {
  43:src/_new.cpp  ****     MemoryAllocator::newCalled++;
  44:src/_new.cpp  ****     return MemoryAllocator::mem_alloc(n);
  45:src/_new.cpp  **** }
  46:src/_new.cpp  **** 
  47:src/_new.cpp  **** void *operator new[](size_t n)
GAS LISTING /tmp/ccS0xLOr.s 			page 2


  48:src/_new.cpp  **** {
  49:src/_new.cpp  ****     MemoryAllocator::newArrayCalled++;
  50:src/_new.cpp  ****     return MemoryAllocator::mem_alloc(n);
  51:src/_new.cpp  **** }
  52:src/_new.cpp  **** 
  53:src/_new.cpp  **** void operator delete(void *p) noexcept
  54:src/_new.cpp  **** {
  55:src/_new.cpp  ****     MemoryAllocator::deleteCalled++;
  56:src/_new.cpp  ****     MemoryAllocator::mem_free(p);
  57:src/_new.cpp  **** }
  58:src/_new.cpp  **** 
  59:src/_new.cpp  **** void operator delete[](void *p) noexcept
  60:src/_new.cpp  **** {
  61:src/_new.cpp  ****     MemoryAllocator::deleteArrayCalled++;
  62:src/_new.cpp  ****     MemoryAllocator::mem_free(p);
  63:src/_new.cpp  **** }
  64:src/_new.cpp  **** 
  65:src/_new.cpp  **** */
  66:src/_new.cpp  **** 
  67:src/_new.cpp  **** 
  68:src/_new.cpp  **** //******************SYSCALL MEMORY*********************************
  69:src/_new.cpp  **** 
  70:src/_new.cpp  **** 
  71:src/_new.cpp  **** void *operator new(size_t n)
  72:src/_new.cpp  **** {
  12              		.loc 1 72 1
  13              		.cfi_startproc
  14              	.LVL0:
  15 0000 130101FF 		addi	sp,sp,-16
  16              		.cfi_def_cfa_offset 16
  17 0004 23341100 		sd	ra,8(sp)
  18 0008 23308100 		sd	s0,0(sp)
  19              		.cfi_offset 1, -8
  20              		.cfi_offset 8, -16
  21 000c 13040101 		addi	s0,sp,16
  22              		.cfi_def_cfa 8, 0
  73:src/_new.cpp  ****     return mem_alloc(n);
  23              		.loc 1 73 5
  24              		.loc 1 73 21 is_stmt 0
  25 0010 97000000 		call	_Z9mem_allocm@plt
  25      E7800000 
  26              	.LVL1:
  74:src/_new.cpp  **** }
  27              		.loc 1 74 1
  28 0018 83308100 		ld	ra,8(sp)
  29              		.cfi_restore 1
  30 001c 03340100 		ld	s0,0(sp)
  31              		.cfi_restore 8
  32              		.cfi_def_cfa 2, 16
  33 0020 13010101 		addi	sp,sp,16
  34              		.cfi_def_cfa_offset 0
  35 0024 67800000 		jr	ra
  36              		.cfi_endproc
  37              	.LFE38:
  39              		.align	2
  40              		.globl	_Znam
  42              	_Znam:
GAS LISTING /tmp/ccS0xLOr.s 			page 3


  43              	.LFB39:
  75:src/_new.cpp  **** 
  76:src/_new.cpp  **** void *operator new[](size_t n)
  77:src/_new.cpp  **** {
  44              		.loc 1 77 1 is_stmt 1
  45              		.cfi_startproc
  46              	.LVL2:
  47 0028 130101FF 		addi	sp,sp,-16
  48              		.cfi_def_cfa_offset 16
  49 002c 23341100 		sd	ra,8(sp)
  50 0030 23308100 		sd	s0,0(sp)
  51              		.cfi_offset 1, -8
  52              		.cfi_offset 8, -16
  53 0034 13040101 		addi	s0,sp,16
  54              		.cfi_def_cfa 8, 0
  78:src/_new.cpp  ****     return mem_alloc(n);
  55              		.loc 1 78 5
  56              		.loc 1 78 21 is_stmt 0
  57 0038 97000000 		call	_Z9mem_allocm@plt
  57      E7800000 
  58              	.LVL3:
  79:src/_new.cpp  **** }
  59              		.loc 1 79 1
  60 0040 83308100 		ld	ra,8(sp)
  61              		.cfi_restore 1
  62 0044 03340100 		ld	s0,0(sp)
  63              		.cfi_restore 8
  64              		.cfi_def_cfa 2, 16
  65 0048 13010101 		addi	sp,sp,16
  66              		.cfi_def_cfa_offset 0
  67 004c 67800000 		jr	ra
  68              		.cfi_endproc
  69              	.LFE39:
  71              		.align	2
  72              		.globl	_ZdlPv
  74              	_ZdlPv:
  75              	.LFB40:
  80:src/_new.cpp  **** 
  81:src/_new.cpp  **** void operator delete(void *p) noexcept
  82:src/_new.cpp  **** {
  76              		.loc 1 82 1 is_stmt 1
  77              		.cfi_startproc
  78              		.cfi_personality 0x9b,DW.ref.__gxx_personality_v0
  79              		.cfi_lsda 0x1b,.LLSDA40
  80              	.LVL4:
  81 0050 130101FF 		addi	sp,sp,-16
  82              		.cfi_def_cfa_offset 16
  83 0054 23341100 		sd	ra,8(sp)
  84 0058 23308100 		sd	s0,0(sp)
  85              		.cfi_offset 1, -8
  86              		.cfi_offset 8, -16
  87 005c 13040101 		addi	s0,sp,16
  88              		.cfi_def_cfa 8, 0
  83:src/_new.cpp  ****     mem_free(p);
  89              		.loc 1 83 5
  90              		.loc 1 83 13 is_stmt 0
  91 0060 97000000 		call	_Z8mem_freePv@plt
GAS LISTING /tmp/ccS0xLOr.s 			page 4


  91      E7800000 
  92              	.LVL5:
  84:src/_new.cpp  **** }
  93              		.loc 1 84 1
  94 0068 83308100 		ld	ra,8(sp)
  95              		.cfi_restore 1
  96 006c 03340100 		ld	s0,0(sp)
  97              		.cfi_restore 8
  98              		.cfi_def_cfa 2, 16
  99 0070 13010101 		addi	sp,sp,16
 100              		.cfi_def_cfa_offset 0
 101 0074 67800000 		jr	ra
 102              		.cfi_endproc
 103              	.LFE40:
 104              		.globl	__gxx_personality_v0
 105              		.section	.gcc_except_table,"a",@progbits
 106              	.LLSDA40:
 107 0000 FF       		.byte	0xff
 108 0001 FF       		.byte	0xff
 109 0002 03       		.byte	0x3
 110 0003 00       		.byte	0
 111              		.text
 113              		.align	2
 114              		.globl	_ZdaPv
 116              	_ZdaPv:
 117              	.LFB41:
  85:src/_new.cpp  **** 
  86:src/_new.cpp  **** void operator delete[](void *p) noexcept
  87:src/_new.cpp  **** {
 118              		.loc 1 87 1 is_stmt 1
 119              		.cfi_startproc
 120              		.cfi_personality 0x9b,DW.ref.__gxx_personality_v0
 121              		.cfi_lsda 0x1b,.LLSDA41
 122              	.LVL6:
 123 0078 130101FF 		addi	sp,sp,-16
 124              		.cfi_def_cfa_offset 16
 125 007c 23341100 		sd	ra,8(sp)
 126 0080 23308100 		sd	s0,0(sp)
 127              		.cfi_offset 1, -8
 128              		.cfi_offset 8, -16
 129 0084 13040101 		addi	s0,sp,16
 130              		.cfi_def_cfa 8, 0
  88:src/_new.cpp  ****     mem_free(p);
 131              		.loc 1 88 5
 132              		.loc 1 88 13 is_stmt 0
 133 0088 97000000 		call	_Z8mem_freePv@plt
 133      E7800000 
 134              	.LVL7:
  89:src/_new.cpp  **** }
 135              		.loc 1 89 1
 136 0090 83308100 		ld	ra,8(sp)
 137              		.cfi_restore 1
 138 0094 03340100 		ld	s0,0(sp)
 139              		.cfi_restore 8
 140              		.cfi_def_cfa 2, 16
 141 0098 13010101 		addi	sp,sp,16
 142              		.cfi_def_cfa_offset 0
GAS LISTING /tmp/ccS0xLOr.s 			page 5


 143 009c 67800000 		jr	ra
 144              		.cfi_endproc
 145              	.LFE41:
 146              		.section	.gcc_except_table
 147              	.LLSDA41:
 148 0004 FF       		.byte	0xff
 149 0005 FF       		.byte	0xff
 150 0006 03       		.byte	0x3
 151 0007 00       		.byte	0
 152              		.text
 154              	.Letext0:
 155              		.file 2 "src/../lib/hw.h"
 156              		.file 3 "src/../h/syscall_c.hpp"
 822              		.align	3
 825              	DW.ref.__gxx_personality_v0:
 826 0000 00000000 		.dword	__gxx_personality_v0
 826      00000000 
 827              		.ident	"GCC: (Ubuntu 9.4.0-1ubuntu1~20.04) 9.4.0"
 828              		.section	.note.GNU-stack,"",@progbits
GAS LISTING /tmp/ccS0xLOr.s 			page 6


DEFINED SYMBOLS
                            *ABS*:0000000000000000 _new.cpp
     /tmp/ccS0xLOr.s:9      .text:0000000000000000 _Znwm
     /tmp/ccS0xLOr.s:13     .text:0000000000000000 .L0 
     /tmp/ccS0xLOr.s:15     .text:0000000000000000 .L0 
     /tmp/ccS0xLOr.s:16     .text:0000000000000004 .L0 
     /tmp/ccS0xLOr.s:19     .text:000000000000000c .L0 
     /tmp/ccS0xLOr.s:20     .text:000000000000000c .L0 
     /tmp/ccS0xLOr.s:22     .text:0000000000000010 .L0 
     /tmp/ccS0xLOr.s:24     .text:0000000000000010 .L0 
     /tmp/ccS0xLOr.s:25     .text:0000000000000010 .L0 
     /tmp/ccS0xLOr.s:28     .text:0000000000000018 .L0 
     /tmp/ccS0xLOr.s:29     .text:000000000000001c .L0 
     /tmp/ccS0xLOr.s:31     .text:0000000000000020 .L0 
     /tmp/ccS0xLOr.s:32     .text:0000000000000020 .L0 
     /tmp/ccS0xLOr.s:34     .text:0000000000000024 .L0 
     /tmp/ccS0xLOr.s:36     .text:0000000000000028 .L0 
     /tmp/ccS0xLOr.s:42     .text:0000000000000028 _Znam
     /tmp/ccS0xLOr.s:45     .text:0000000000000028 .L0 
     /tmp/ccS0xLOr.s:47     .text:0000000000000028 .L0 
     /tmp/ccS0xLOr.s:48     .text:000000000000002c .L0 
     /tmp/ccS0xLOr.s:51     .text:0000000000000034 .L0 
     /tmp/ccS0xLOr.s:52     .text:0000000000000034 .L0 
     /tmp/ccS0xLOr.s:54     .text:0000000000000038 .L0 
     /tmp/ccS0xLOr.s:56     .text:0000000000000038 .L0 
     /tmp/ccS0xLOr.s:57     .text:0000000000000038 .L0 
     /tmp/ccS0xLOr.s:60     .text:0000000000000040 .L0 
     /tmp/ccS0xLOr.s:61     .text:0000000000000044 .L0 
     /tmp/ccS0xLOr.s:63     .text:0000000000000048 .L0 
     /tmp/ccS0xLOr.s:64     .text:0000000000000048 .L0 
     /tmp/ccS0xLOr.s:66     .text:000000000000004c .L0 
     /tmp/ccS0xLOr.s:68     .text:0000000000000050 .L0 
     /tmp/ccS0xLOr.s:74     .text:0000000000000050 _ZdlPv
     /tmp/ccS0xLOr.s:77     .text:0000000000000050 .L0 
     /tmp/ccS0xLOr.s:825    .data.rel.local.DW.ref.__gxx_personality_v0:0000000000000000 DW.ref.__gxx_personality_v0
     /tmp/ccS0xLOr.s:81     .text:0000000000000050 .L0 
     /tmp/ccS0xLOr.s:82     .text:0000000000000054 .L0 
     /tmp/ccS0xLOr.s:85     .text:000000000000005c .L0 
     /tmp/ccS0xLOr.s:86     .text:000000000000005c .L0 
     /tmp/ccS0xLOr.s:88     .text:0000000000000060 .L0 
     /tmp/ccS0xLOr.s:90     .text:0000000000000060 .L0 
     /tmp/ccS0xLOr.s:91     .text:0000000000000060 .L0 
     /tmp/ccS0xLOr.s:94     .text:0000000000000068 .L0 
     /tmp/ccS0xLOr.s:95     .text:000000000000006c .L0 
     /tmp/ccS0xLOr.s:97     .text:0000000000000070 .L0 
     /tmp/ccS0xLOr.s:98     .text:0000000000000070 .L0 
     /tmp/ccS0xLOr.s:100    .text:0000000000000074 .L0 
     /tmp/ccS0xLOr.s:102    .text:0000000000000078 .L0 
     /tmp/ccS0xLOr.s:116    .text:0000000000000078 _ZdaPv
     /tmp/ccS0xLOr.s:119    .text:0000000000000078 .L0 
     /tmp/ccS0xLOr.s:123    .text:0000000000000078 .L0 
     /tmp/ccS0xLOr.s:124    .text:000000000000007c .L0 
     /tmp/ccS0xLOr.s:127    .text:0000000000000084 .L0 
     /tmp/ccS0xLOr.s:128    .text:0000000000000084 .L0 
     /tmp/ccS0xLOr.s:130    .text:0000000000000088 .L0 
     /tmp/ccS0xLOr.s:132    .text:0000000000000088 .L0 
     /tmp/ccS0xLOr.s:133    .text:0000000000000088 .L0 
GAS LISTING /tmp/ccS0xLOr.s 			page 7


     /tmp/ccS0xLOr.s:136    .text:0000000000000090 .L0 
     /tmp/ccS0xLOr.s:137    .text:0000000000000094 .L0 
     /tmp/ccS0xLOr.s:139    .text:0000000000000098 .L0 
     /tmp/ccS0xLOr.s:140    .text:0000000000000098 .L0 
     /tmp/ccS0xLOr.s:142    .text:000000000000009c .L0 
     /tmp/ccS0xLOr.s:144    .text:00000000000000a0 .L0 
     /tmp/ccS0xLOr.s:157    .text:00000000000000a0 .L0 
     /tmp/ccS0xLOr.s:429    .debug_abbrev:0000000000000000 .Ldebug_abbrev0
     /tmp/ccS0xLOr.s:809    .debug_str:00000000000001b3 .LASF31
     /tmp/ccS0xLOr.s:813    .debug_str:0000000000000286 .LASF32
     /tmp/ccS0xLOr.s:779    .debug_str:00000000000000aa .LASF33
     /tmp/ccS0xLOr.s:5      .text:0000000000000000 .Ltext0
     /tmp/ccS0xLOr.s:154    .text:00000000000000a0 .Letext0
     /tmp/ccS0xLOr.s:749    .debug_line:0000000000000000 .Ldebug_line0
     /tmp/ccS0xLOr.s:783    .debug_str:0000000000000101 .LASF0
     /tmp/ccS0xLOr.s:785    .debug_str:000000000000010e .LASF1
     /tmp/ccS0xLOr.s:777    .debug_str:000000000000009c .LASF2
     /tmp/ccS0xLOr.s:771    .debug_str:0000000000000088 .LASF4
     /tmp/ccS0xLOr.s:801    .debug_str:0000000000000174 .LASF3
     /tmp/ccS0xLOr.s:753    .debug_str:0000000000000010 .LASF5
     /tmp/ccS0xLOr.s:787    .debug_str:0000000000000121 .LASF6
     /tmp/ccS0xLOr.s:781    .debug_str:00000000000000ee .LASF7
     /tmp/ccS0xLOr.s:815    .debug_str:0000000000000293 .LASF8
     /tmp/ccS0xLOr.s:769    .debug_str:000000000000007a .LASF9
     /tmp/ccS0xLOr.s:793    .debug_str:000000000000013f .LASF10
     /tmp/ccS0xLOr.s:811    .debug_str:0000000000000277 .LASF11
     /tmp/ccS0xLOr.s:755    .debug_str:0000000000000017 .LASF12
     /tmp/ccS0xLOr.s:751    .debug_str:0000000000000000 .LASF13
     /tmp/ccS0xLOr.s:757    .debug_str:0000000000000027 .LASF14
     /tmp/ccS0xLOr.s:797    .debug_str:0000000000000157 .LASF15
     /tmp/ccS0xLOr.s:761    .debug_str:0000000000000041 .LASF16
     /tmp/ccS0xLOr.s:763    .debug_str:0000000000000057 .LASF17
     /tmp/ccS0xLOr.s:789    .debug_str:0000000000000134 .LASF18
     /tmp/ccS0xLOr.s:807    .debug_str:00000000000001a0 .LASF19
     /tmp/ccS0xLOr.s:799    .debug_str:000000000000016d .LASF21
     /tmp/ccS0xLOr.s:117    .text:0000000000000078 .LFB41
     /tmp/ccS0xLOr.s:145    .text:00000000000000a0 .LFE41
     /tmp/ccS0xLOr.s:680    .debug_loc:0000000000000000 .LLST3
     /tmp/ccS0xLOr.s:134    .text:0000000000000090 .LVL7
     /tmp/ccS0xLOr.s:805    .debug_str:0000000000000190 .LASF20
     /tmp/ccS0xLOr.s:775    .debug_str:0000000000000095 .LASF22
     /tmp/ccS0xLOr.s:75     .text:0000000000000050 .LFB40
     /tmp/ccS0xLOr.s:103    .text:0000000000000078 .LFE40
     /tmp/ccS0xLOr.s:694    .debug_loc:0000000000000039 .LLST2
     /tmp/ccS0xLOr.s:92     .text:0000000000000068 .LVL5
     /tmp/ccS0xLOr.s:767    .debug_str:000000000000006a .LASF23
     /tmp/ccS0xLOr.s:791    .debug_str:0000000000000139 .LASF25
     /tmp/ccS0xLOr.s:43     .text:0000000000000028 .LFB39
     /tmp/ccS0xLOr.s:69     .text:0000000000000050 .LFE39
     /tmp/ccS0xLOr.s:708    .debug_loc:0000000000000072 .LLST1
     /tmp/ccS0xLOr.s:58     .text:0000000000000040 .LVL3
     /tmp/ccS0xLOr.s:817    .debug_str:00000000000002a3 .LASF24
     /tmp/ccS0xLOr.s:773    .debug_str:000000000000008f .LASF26
     /tmp/ccS0xLOr.s:10     .text:0000000000000000 .LFB38
     /tmp/ccS0xLOr.s:37     .text:0000000000000028 .LFE38
     /tmp/ccS0xLOr.s:722    .debug_loc:00000000000000ab .LLST0
     /tmp/ccS0xLOr.s:26     .text:0000000000000018 .LVL1
GAS LISTING /tmp/ccS0xLOr.s 			page 8


     /tmp/ccS0xLOr.s:765    .debug_str:000000000000005c .LASF27
     /tmp/ccS0xLOr.s:795    .debug_str:000000000000014e .LASF29
     /tmp/ccS0xLOr.s:759    .debug_str:0000000000000033 .LASF28
     /tmp/ccS0xLOr.s:803    .debug_str:0000000000000186 .LASF30
     /tmp/ccS0xLOr.s:122    .text:0000000000000078 .LVL6
     /tmp/ccS0xLOr.s:80     .text:0000000000000050 .LVL4
     /tmp/ccS0xLOr.s:46     .text:0000000000000028 .LVL2
     /tmp/ccS0xLOr.s:14     .text:0000000000000000 .LVL0
     /tmp/ccS0xLOr.s:158    .debug_info:0000000000000000 .Ldebug_info0
     /tmp/ccS0xLOr.s:106    .gcc_except_table:0000000000000000 .LLSDA40
     /tmp/ccS0xLOr.s:147    .gcc_except_table:0000000000000004 .LLSDA41

UNDEFINED SYMBOLS
_Z9mem_allocm
_Z8mem_freePv
__gxx_personality_v0
