GAS LISTING /tmp/cciwyjKT.s 			page 1


   1              		.file	"main.cpp"
   2              		.option pic
   3              		.option norelax
   4              		.text
   5              	.Ltext0:
   6              		.section	.rodata.str1.8,"aMS",@progbits,1
   7              		.align	3
   8              	.LC0:
   9 0000 54687265 		.string	"ThreadA created\n"
   9      61644120 
   9      63726561 
   9      7465640A 
   9      00
  10 0011 00000000 		.align	3
  10      000000
  11              	.LC1:
  12 0018 54687265 		.string	"ThreadB created\n"
  12      61644220 
  12      63726561 
  12      7465640A 
  12      00
  13 0029 00000000 		.align	3
  13      000000
  14              	.LC2:
  15 0030 6D61696E 		.string	"main: Pravimo C..."
  15      3A205072 
  15      6176696D 
  15      6F20432E 
  15      2E2E00
  16 0043 00000000 		.align	3
  16      00
  17              	.LC3:
  18 0048 6D61696E 		.string	"main: Pravimo D...."
  18      3A205072 
  18      6176696D 
  18      6F20442E 
  18      2E2E2E00 
  19 005c 00000000 		.align	3
  20              	.LC4:
  21 0060 46696E69 		.string	"Finished\nReturn value: "
  21      73686564 
  21      0A526574 
  21      75726E20 
  21      76616C75 
  22              		.align	3
  23              	.LC5:
  24 0078 0A00     		.string	"\n"
  25 007a 00000000 		.align	3
  25      0000
  26              	.LC6:
  27 0080 4E657720 		.string	"New called: "
  27      63616C6C 
  27      65643A20 
  27      00
  28 008d 000000   		.align	3
  29              	.LC7:
  30 0090 4E65775B 		.string	"New[] called: "
GAS LISTING /tmp/cciwyjKT.s 			page 2


  30      5D206361 
  30      6C6C6564 
  30      3A2000
  31 009f 00       		.align	3
  32              	.LC8:
  33 00a0 44656C65 		.string	"Delete called: "
  33      74652063 
  33      616C6C65 
  33      643A2000 
  34              		.align	3
  35              	.LC9:
  36 00b0 44656C65 		.string	"Delete[] called: "
  36      74655B5D 
  36      2063616C 
  36      6C65643A 
  36      2000
  37              		.text
  38              		.align	2
  39              		.globl	main
  41              	main:
  42              	.LFB41:
  43              		.file 1 "src/main.cpp"
   1:src/main.cpp  **** //
   2:src/main.cpp  **** // Created by marko on 20.4.22..
   3:src/main.cpp  **** //
   4:src/main.cpp  **** 
   5:src/main.cpp  **** #include "../h/tcb.hpp"
   6:src/main.cpp  **** #include "../h/workers.hpp"
   7:src/main.cpp  **** #include "../h/print.hpp"
   8:src/main.cpp  **** #include "../h/riscv.hpp"
   9:src/main.cpp  **** #include "../h/syscall_c.hpp"
  10:src/main.cpp  **** #include "../h/memoryAllocator.hpp"
  11:src/main.cpp  **** 
  12:src/main.cpp  **** int main()
  13:src/main.cpp  **** {
  44              		.loc 1 13 1
  45              		.cfi_startproc
  46 0000 130101FA 		addi	sp,sp,-96
  47              		.cfi_def_cfa_offset 96
  48 0004 233C1104 		sd	ra,88(sp)
  49 0008 23388104 		sd	s0,80(sp)
  50 000c 23349104 		sd	s1,72(sp)
  51 0010 23302105 		sd	s2,64(sp)
  52              		.cfi_offset 1, -8
  53              		.cfi_offset 8, -16
  54              		.cfi_offset 9, -24
  55              		.cfi_offset 18, -32
  56 0014 13040106 		addi	s0,sp,96
  57              		.cfi_def_cfa 8, 0
  14:src/main.cpp  ****     TCB *threads[5];
  58              		.loc 1 14 5
  15:src/main.cpp  **** 
  16:src/main.cpp  ****     MemoryAllocator::initFreeBlock();
  59              		.loc 1 16 5
  60              	.LBB16:
  61              	.LBB17:
  62              		.file 2 "src/../h/memoryAllocator.hpp"
GAS LISTING /tmp/cciwyjKT.s 			page 3


   1:src/../h/memoryAllocator.hpp **** #ifndef memoryAllocator
   2:src/../h/memoryAllocator.hpp **** #define memoryAllocator
   3:src/../h/memoryAllocator.hpp **** 
   4:src/../h/memoryAllocator.hpp **** #include "../lib/hw.h"
   5:src/../h/memoryAllocator.hpp **** 
   6:src/../h/memoryAllocator.hpp **** struct DataBlock {
   7:src/../h/memoryAllocator.hpp ****     DataBlock* next;
   8:src/../h/memoryAllocator.hpp ****     DataBlock* prev;
   9:src/../h/memoryAllocator.hpp ****     size_t size;
  10:src/../h/memoryAllocator.hpp **** };
  11:src/../h/memoryAllocator.hpp **** 
  12:src/../h/memoryAllocator.hpp **** class MemoryAllocator {
  13:src/../h/memoryAllocator.hpp **** public:
  14:src/../h/memoryAllocator.hpp ****     static DataBlock* free;
  15:src/../h/memoryAllocator.hpp ****     static DataBlock* used;
  16:src/../h/memoryAllocator.hpp **** 
  17:src/../h/memoryAllocator.hpp ****     static int newCalled;
  18:src/../h/memoryAllocator.hpp ****     static int newArrayCalled;
  19:src/../h/memoryAllocator.hpp ****     static int deleteCalled;
  20:src/../h/memoryAllocator.hpp ****     static int deleteArrayCalled;
  21:src/../h/memoryAllocator.hpp **** 
  22:src/../h/memoryAllocator.hpp ****     static void* mem_alloc(size_t size);
  23:src/../h/memoryAllocator.hpp **** 
  24:src/../h/memoryAllocator.hpp ****     static int mem_free (void* ptr);
  25:src/../h/memoryAllocator.hpp **** 
  26:src/../h/memoryAllocator.hpp ****     static void tryToJoin(DataBlock* curr);
  27:src/../h/memoryAllocator.hpp **** 
  28:src/../h/memoryAllocator.hpp ****     static void initFreeBlock() {
  29:src/../h/memoryAllocator.hpp **** 
  30:src/../h/memoryAllocator.hpp ****         MemoryAllocator::free = (DataBlock*)((char*)HEAP_START_ADDR);
  63              		.loc 2 30 9
  64              		.loc 2 30 31 is_stmt 0
  65 0018 97070000 		la	a5,HEAP_START_ADDR
  65      83B70700 
  66 0020 83B60700 		ld	a3,0(a5)
  67 0024 17070000 		la	a4,_ZN15MemoryAllocator4freeE
  67      03370700 
  68 002c 2330D700 		sd	a3,0(a4)
  31:src/../h/memoryAllocator.hpp ****         used = nullptr;
  69              		.loc 2 31 9 is_stmt 1
  70              		.loc 2 31 14 is_stmt 0
  71 0030 17060000 		la	a2,_ZN15MemoryAllocator4usedE
  71      03360600 
  72 0038 23300600 		sd	zero,0(a2)
  32:src/../h/memoryAllocator.hpp **** 
  33:src/../h/memoryAllocator.hpp ****         free->next = nullptr;
  73              		.loc 2 33 9 is_stmt 1
  74              		.loc 2 33 20 is_stmt 0
  75 003c 23B00600 		sd	zero,0(a3)
  34:src/../h/memoryAllocator.hpp ****         free->prev  = nullptr;
  76              		.loc 2 34 9 is_stmt 1
  77              		.loc 2 34 15 is_stmt 0
  78 0040 03370700 		ld	a4,0(a4)
  79              		.loc 2 34 21
  80 0044 23340700 		sd	zero,8(a4)
  35:src/../h/memoryAllocator.hpp ****         free->size = ((char*)HEAP_START_ADDR - (char*)HEAP_END_ADDR - sizeof(DataBlock)); //FOR NOW
  81              		.loc 2 35 9 is_stmt 1
GAS LISTING /tmp/cciwyjKT.s 			page 4


  82              		.loc 2 35 23 is_stmt 0
  83 0048 83B70700 		ld	a5,0(a5)
  84              		.loc 2 35 48
  85 004c 97060000 		la	a3,HEAP_END_ADDR
  85      83B60600 
  86 0054 83B60600 		ld	a3,0(a3)
  87              		.loc 2 35 46
  88 0058 B387D740 		sub	a5,a5,a3
  89              		.loc 2 35 69
  90 005c 938787FE 		addi	a5,a5,-24
  91              		.loc 2 35 20
  92 0060 2338F700 		sd	a5,16(a4)
  36:src/../h/memoryAllocator.hpp **** 
  37:src/../h/memoryAllocator.hpp **** 
  38:src/../h/memoryAllocator.hpp ****         //testing purposes
  39:src/../h/memoryAllocator.hpp ****         newCalled = 0;
  93              		.loc 2 39 9 is_stmt 1
  94              		.loc 2 39 19 is_stmt 0
  95 0064 97070000 		la	a5,_ZN15MemoryAllocator9newCalledE
  95      83B70700 
  96 006c 23A00700 		sw	zero,0(a5)
  40:src/../h/memoryAllocator.hpp ****         newArrayCalled = 0;
  97              		.loc 2 40 9 is_stmt 1
  98              		.loc 2 40 24 is_stmt 0
  99 0070 97070000 		la	a5,_ZN15MemoryAllocator14newArrayCalledE
  99      83B70700 
 100 0078 23A00700 		sw	zero,0(a5)
  41:src/../h/memoryAllocator.hpp ****         deleteCalled= 0;
 101              		.loc 2 41 9 is_stmt 1
 102              		.loc 2 41 21 is_stmt 0
 103 007c 97070000 		la	a5,_ZN15MemoryAllocator12deleteCalledE
 103      83B70700 
 104 0084 23A00700 		sw	zero,0(a5)
  42:src/../h/memoryAllocator.hpp ****         deleteArrayCalled = 0;
 105              		.loc 2 42 9 is_stmt 1
 106              		.loc 2 42 27 is_stmt 0
 107 0088 97070000 		la	a5,_ZN15MemoryAllocator17deleteArrayCalledE
 107      83B70700 
 108 0090 23A00700 		sw	zero,0(a5)
 109              	.LBE17:
 110              	.LBE16:
  17:src/main.cpp  **** 
  18:src/main.cpp  ****     threads[0] = TCB::createThread(nullptr,nullptr);
 111              		.loc 1 18 5 is_stmt 1
 112              		.loc 1 18 35 is_stmt 0
 113 0094 93050000 		li	a1,0
 114 0098 13050000 		li	a0,0
 115 009c 97000000 		call	_ZN3TCB12createThreadEPFvPvES0_@plt
 115      E7800000 
 116              	.LVL0:
 117              		.loc 1 18 16
 118 00a4 233CA4FA 		sd	a0,-72(s0)
  19:src/main.cpp  ****     TCB::running = threads[0];
 119              		.loc 1 19 5 is_stmt 1
 120              		.loc 1 19 18 is_stmt 0
 121 00a8 97070000 		la	a5,_ZN3TCB7runningE
 121      83B70700 
GAS LISTING /tmp/cciwyjKT.s 			page 5


 122 00b0 23B0A700 		sd	a0,0(a5)
  20:src/main.cpp  **** 
  21:src/main.cpp  ****     Riscv::w_stvec((uint64) &Riscv::stvecVectorTable | 0b01);
 123              		.loc 1 21 5 is_stmt 1
 124              		.loc 1 21 19 is_stmt 0
 125 00b4 97070000 		la	a5,_ZN5Riscv16stvecVectorTableEv
 125      83B70700 
 126 00bc 93E71700 		ori	a5,a5,1
 127              	.LVL1:
 128              	.LBB18:
 129              	.LBB19:
 130              		.file 3 "src/../h/riscv.hpp"
   1:src/../h/riscv.hpp **** //
   2:src/../h/riscv.hpp **** // Created by marko on 20.4.22..
   3:src/../h/riscv.hpp **** //
   4:src/../h/riscv.hpp **** 
   5:src/../h/riscv.hpp **** #ifndef OS1_VEZBE07_RISCV_CONTEXT_SWITCH_2_INTERRUPT_RISCV_HPP
   6:src/../h/riscv.hpp **** #define OS1_VEZBE07_RISCV_CONTEXT_SWITCH_2_INTERRUPT_RISCV_HPP
   7:src/../h/riscv.hpp **** 
   8:src/../h/riscv.hpp **** #include "../lib/hw.h"
   9:src/../h/riscv.hpp **** 
  10:src/../h/riscv.hpp **** class Riscv
  11:src/../h/riscv.hpp **** {
  12:src/../h/riscv.hpp **** public:
  13:src/../h/riscv.hpp **** 
  14:src/../h/riscv.hpp ****     // pop sstatus.spp and sstatus.spie bits (has to be a non inline function)
  15:src/../h/riscv.hpp ****     static void popSppSpie();
  16:src/../h/riscv.hpp **** 
  17:src/../h/riscv.hpp ****     // read register scause
  18:src/../h/riscv.hpp ****     static uint64 r_scause();
  19:src/../h/riscv.hpp **** 
  20:src/../h/riscv.hpp ****     // write register scause
  21:src/../h/riscv.hpp ****     static void w_scause(uint64 scause);
  22:src/../h/riscv.hpp **** 
  23:src/../h/riscv.hpp ****     // read register sepc
  24:src/../h/riscv.hpp ****     static uint64 r_sepc();
  25:src/../h/riscv.hpp **** 
  26:src/../h/riscv.hpp ****     // write register sepc
  27:src/../h/riscv.hpp ****     static void w_sepc(uint64 sepc);
  28:src/../h/riscv.hpp **** 
  29:src/../h/riscv.hpp ****     // read register stvec
  30:src/../h/riscv.hpp ****     static uint64 r_stvec();
  31:src/../h/riscv.hpp **** 
  32:src/../h/riscv.hpp ****     // write register stvec
  33:src/../h/riscv.hpp ****     static void w_stvec(uint64 stvec);
  34:src/../h/riscv.hpp **** 
  35:src/../h/riscv.hpp ****     // read register stval
  36:src/../h/riscv.hpp ****     static uint64 r_stval();
  37:src/../h/riscv.hpp **** 
  38:src/../h/riscv.hpp ****     // write register stval
  39:src/../h/riscv.hpp ****     static void w_stval(uint64 stval);
  40:src/../h/riscv.hpp **** 
  41:src/../h/riscv.hpp ****     enum BitMaskSip
  42:src/../h/riscv.hpp ****     {
  43:src/../h/riscv.hpp ****         SIP_SSIP = (1 << 1),
  44:src/../h/riscv.hpp ****         SIP_STIP = (1 << 5),
  45:src/../h/riscv.hpp ****         SIP_SEIP = (1 << 9),
GAS LISTING /tmp/cciwyjKT.s 			page 6


  46:src/../h/riscv.hpp ****     };
  47:src/../h/riscv.hpp **** 
  48:src/../h/riscv.hpp ****     // mask set register sip
  49:src/../h/riscv.hpp ****     static void ms_sip(uint64 mask);
  50:src/../h/riscv.hpp **** 
  51:src/../h/riscv.hpp ****     // mask clear register sip
  52:src/../h/riscv.hpp ****     static void mc_sip(uint64 mask);
  53:src/../h/riscv.hpp **** 
  54:src/../h/riscv.hpp ****     // read register sip
  55:src/../h/riscv.hpp ****     static uint64 r_sip();
  56:src/../h/riscv.hpp **** 
  57:src/../h/riscv.hpp ****     // write register sip
  58:src/../h/riscv.hpp ****     static void w_sip(uint64 sip);
  59:src/../h/riscv.hpp **** 
  60:src/../h/riscv.hpp ****     enum BitMaskSstatus
  61:src/../h/riscv.hpp ****     {
  62:src/../h/riscv.hpp ****         SSTATUS_SIE = (1 << 1),
  63:src/../h/riscv.hpp ****         SSTATUS_SPIE = (1 << 5),
  64:src/../h/riscv.hpp ****         SSTATUS_SPP = (1 << 8),
  65:src/../h/riscv.hpp ****     };
  66:src/../h/riscv.hpp **** 
  67:src/../h/riscv.hpp ****     // mask set register sstatus
  68:src/../h/riscv.hpp ****     static void ms_sstatus(uint64 mask);
  69:src/../h/riscv.hpp **** 
  70:src/../h/riscv.hpp ****     // mask clear register sstatus
  71:src/../h/riscv.hpp ****     static void mc_sstatus(uint64 mask);
  72:src/../h/riscv.hpp **** 
  73:src/../h/riscv.hpp ****     // read register sstatus
  74:src/../h/riscv.hpp ****     static uint64 r_sstatus();
  75:src/../h/riscv.hpp **** 
  76:src/../h/riscv.hpp ****     // write register sstatus
  77:src/../h/riscv.hpp ****     static void w_sstatus(uint64 sstatus);
  78:src/../h/riscv.hpp **** 
  79:src/../h/riscv.hpp ****     // supervisor trap
  80:src/../h/riscv.hpp ****     static void supervisorTrap();
  81:src/../h/riscv.hpp **** 
  82:src/../h/riscv.hpp ****     //stvec Vector "table"
  83:src/../h/riscv.hpp ****     static void stvecVectorTable();
  84:src/../h/riscv.hpp **** 
  85:src/../h/riscv.hpp ****     //read a0 register
  86:src/../h/riscv.hpp ****     static uint64 r_a0();
  87:src/../h/riscv.hpp **** 
  88:src/../h/riscv.hpp ****     //write to a0 register
  89:src/../h/riscv.hpp ****     static void w_a0(uint64 writeValue);
  90:src/../h/riscv.hpp **** 
  91:src/../h/riscv.hpp ****     //read a1 register
  92:src/../h/riscv.hpp ****     static uint64 r_a1();
  93:src/../h/riscv.hpp **** 
  94:src/../h/riscv.hpp ****     //write to a1 register
  95:src/../h/riscv.hpp ****     static void w_a1(uint64 writeValue);
  96:src/../h/riscv.hpp **** 
  97:src/../h/riscv.hpp ****     //read a2 register
  98:src/../h/riscv.hpp ****     static uint64 r_a2();
  99:src/../h/riscv.hpp **** 
 100:src/../h/riscv.hpp ****     //write to a2 register
 101:src/../h/riscv.hpp ****     static void w_a2(uint64 writeValue);
 102:src/../h/riscv.hpp **** 
GAS LISTING /tmp/cciwyjKT.s 			page 7


 103:src/../h/riscv.hpp ****     //read a3 register
 104:src/../h/riscv.hpp ****     static uint64 r_a3();
 105:src/../h/riscv.hpp **** 
 106:src/../h/riscv.hpp ****     //write to a3 register
 107:src/../h/riscv.hpp ****     static void w_a3(uint64 writeValue);
 108:src/../h/riscv.hpp **** 
 109:src/../h/riscv.hpp ****     //read a4 register
 110:src/../h/riscv.hpp ****     static uint64 r_a4();
 111:src/../h/riscv.hpp **** 
 112:src/../h/riscv.hpp ****     //write to a4 register
 113:src/../h/riscv.hpp ****     static void w_a4(uint64 writeValue);
 114:src/../h/riscv.hpp **** 
 115:src/../h/riscv.hpp ****     //read a5 register
 116:src/../h/riscv.hpp ****     static uint64 r_a5();
 117:src/../h/riscv.hpp **** 
 118:src/../h/riscv.hpp ****     //write to a5 register
 119:src/../h/riscv.hpp ****     static void w_a5(uint64 writeValue);
 120:src/../h/riscv.hpp **** 
 121:src/../h/riscv.hpp ****     //read a6 register
 122:src/../h/riscv.hpp ****     static uint64 r_a6();
 123:src/../h/riscv.hpp **** 
 124:src/../h/riscv.hpp ****     //write to a6 register
 125:src/../h/riscv.hpp ****     static void w_a6(uint64 writeValue);
 126:src/../h/riscv.hpp **** 
 127:src/../h/riscv.hpp ****     //read a7 register
 128:src/../h/riscv.hpp ****     static uint64 r_a7();
 129:src/../h/riscv.hpp **** 
 130:src/../h/riscv.hpp ****     //write to a7 register
 131:src/../h/riscv.hpp ****     static void w_a7(uint64 writeValue);
 132:src/../h/riscv.hpp **** 
 133:src/../h/riscv.hpp **** 
 134:src/../h/riscv.hpp **** private:
 135:src/../h/riscv.hpp **** 
 136:src/../h/riscv.hpp ****     // supervisor trap handler
 137:src/../h/riscv.hpp ****     static void handleSupervisorTrap();
 138:src/../h/riscv.hpp **** 
 139:src/../h/riscv.hpp ****     static void handleTimerInterrupt();
 140:src/../h/riscv.hpp **** 
 141:src/../h/riscv.hpp ****     static void handleConsoleInterrupt();
 142:src/../h/riscv.hpp **** };
 143:src/../h/riscv.hpp **** 
 144:src/../h/riscv.hpp **** 
 145:src/../h/riscv.hpp **** inline uint64 Riscv::r_scause()
 146:src/../h/riscv.hpp **** {
 147:src/../h/riscv.hpp ****     uint64 volatile scause;
 148:src/../h/riscv.hpp ****     __asm__ volatile ("csrr %[scause], scause" : [scause] "=r"(scause));
 149:src/../h/riscv.hpp ****     return scause;
 150:src/../h/riscv.hpp **** }
 151:src/../h/riscv.hpp **** 
 152:src/../h/riscv.hpp **** inline void Riscv::w_scause(uint64 scause)
 153:src/../h/riscv.hpp **** {
 154:src/../h/riscv.hpp ****     __asm__ volatile ("csrw scause, %[scause]" : : [scause] "r"(scause));
 155:src/../h/riscv.hpp **** }
 156:src/../h/riscv.hpp **** 
 157:src/../h/riscv.hpp **** inline uint64 Riscv::r_sepc()
 158:src/../h/riscv.hpp **** {
 159:src/../h/riscv.hpp ****     uint64 volatile sepc;
GAS LISTING /tmp/cciwyjKT.s 			page 8


 160:src/../h/riscv.hpp ****     __asm__ volatile ("csrr %[sepc], sepc" : [sepc] "=r"(sepc));
 161:src/../h/riscv.hpp ****     return sepc;
 162:src/../h/riscv.hpp **** }
 163:src/../h/riscv.hpp **** 
 164:src/../h/riscv.hpp **** inline void Riscv::w_sepc(uint64 sepc)
 165:src/../h/riscv.hpp **** {
 166:src/../h/riscv.hpp ****     __asm__ volatile ("csrw sepc, %[sepc]" : : [sepc] "r"(sepc));
 167:src/../h/riscv.hpp **** }
 168:src/../h/riscv.hpp **** 
 169:src/../h/riscv.hpp **** inline uint64 Riscv::r_stvec()
 170:src/../h/riscv.hpp **** {
 171:src/../h/riscv.hpp ****     uint64 volatile stvec;
 172:src/../h/riscv.hpp ****     __asm__ volatile ("csrr %[stvec], stvec" : [stvec] "=r"(stvec));
 173:src/../h/riscv.hpp ****     return stvec;
 174:src/../h/riscv.hpp **** }
 175:src/../h/riscv.hpp **** 
 176:src/../h/riscv.hpp **** inline void Riscv::w_stvec(uint64 stvec)
 177:src/../h/riscv.hpp **** {
 178:src/../h/riscv.hpp ****     __asm__ volatile ("csrw stvec, %[stvec]" : : [stvec] "r"(stvec));
 131              		.loc 3 178 5 is_stmt 1
 132              		.loc 3 178 69 is_stmt 0
 133              	#APP
 134              	# 178 "src/../h/riscv.hpp" 1
 179              	}
 135              		csrw stvec, a5
 136              	# 0 "" 2
 137              	.LVL2:
 138              	#NO_APP
 139              	.LBE19:
 140              	.LBE18:
  22:src/main.cpp  ****     Riscv::ms_sstatus(Riscv::SSTATUS_SIE);
 141              		.loc 1 22 5 is_stmt 1
 142              	.LBB20:
 143              	.LBB21:
 180:src/../h/riscv.hpp **** 
 181:src/../h/riscv.hpp **** inline uint64 Riscv::r_stval()
 182:src/../h/riscv.hpp **** {
 183:src/../h/riscv.hpp ****     uint64 volatile stval;
 184:src/../h/riscv.hpp ****     __asm__ volatile ("csrr %[stval], stval" : [stval] "=r"(stval));
 185:src/../h/riscv.hpp ****     return stval;
 186:src/../h/riscv.hpp **** }
 187:src/../h/riscv.hpp **** 
 188:src/../h/riscv.hpp **** inline void Riscv::w_stval(uint64 stval)
 189:src/../h/riscv.hpp **** {
 190:src/../h/riscv.hpp ****     __asm__ volatile ("csrw stval, %[stval]" : : [stval] "r"(stval));
 191:src/../h/riscv.hpp **** }
 192:src/../h/riscv.hpp **** 
 193:src/../h/riscv.hpp **** inline void Riscv::ms_sip(uint64 mask)
 194:src/../h/riscv.hpp **** {
 195:src/../h/riscv.hpp ****     __asm__ volatile ("csrs sip, %[mask]" : : [mask] "r"(mask));
 196:src/../h/riscv.hpp **** }
 197:src/../h/riscv.hpp **** 
 198:src/../h/riscv.hpp **** inline void Riscv::mc_sip(uint64 mask)
 199:src/../h/riscv.hpp **** {
 200:src/../h/riscv.hpp ****     __asm__ volatile ("csrc sip, %[mask]" : : [mask] "r"(mask));
 201:src/../h/riscv.hpp **** }
 202:src/../h/riscv.hpp **** 
GAS LISTING /tmp/cciwyjKT.s 			page 9


 203:src/../h/riscv.hpp **** inline uint64 Riscv::r_sip()
 204:src/../h/riscv.hpp **** {
 205:src/../h/riscv.hpp ****     uint64 volatile sip;
 206:src/../h/riscv.hpp ****     __asm__ volatile ("csrr %[sip], sip" : [sip] "=r"(sip));
 207:src/../h/riscv.hpp ****     return sip;
 208:src/../h/riscv.hpp **** }
 209:src/../h/riscv.hpp **** 
 210:src/../h/riscv.hpp **** inline void Riscv::w_sip(uint64 sip)
 211:src/../h/riscv.hpp **** {
 212:src/../h/riscv.hpp ****     __asm__ volatile ("csrw sip, %[sip]" : : [sip] "r"(sip));
 213:src/../h/riscv.hpp **** }
 214:src/../h/riscv.hpp **** 
 215:src/../h/riscv.hpp **** inline void Riscv::ms_sstatus(uint64 mask)
 216:src/../h/riscv.hpp **** {
 217:src/../h/riscv.hpp ****     __asm__ volatile ("csrs sstatus, %[mask]" : : [mask] "r"(mask));
 144              		.loc 3 217 5
 145              		.loc 3 217 68 is_stmt 0
 146 00c4 93072000 		li	a5,2
 147              	#APP
 148              	# 217 "src/../h/riscv.hpp" 1
 218              	}
 149              		csrs sstatus, a5
 150              	# 0 "" 2
 151              	.LVL3:
 152              	#NO_APP
 153              	.LBE21:
 154              	.LBE20:
  23:src/main.cpp  **** 
  24:src/main.cpp  ****     int return1 = thread_create(&threads[1], workerBodyA, nullptr);
 155              		.loc 1 24 5 is_stmt 1
 156              		.loc 1 24 32 is_stmt 0
 157 00cc 13060000 		li	a2,0
 158 00d0 97050000 		la	a1,_Z11workerBodyAPv
 158      83B50500 
 159 00d8 130504FC 		addi	a0,s0,-64
 160 00dc 97000000 		call	_Z13thread_createPP3TCBPFvPvES2_@plt
 160      E7800000 
 161              	.LVL4:
 162 00e4 93040500 		mv	s1,a0
 163              	.LVL5:
  25:src/main.cpp  ****     printString("ThreadA created\n");
 164              		.loc 1 25 5 is_stmt 1
 165              		.loc 1 25 16 is_stmt 0
 166 00e8 17050000 		lla	a0,.LC0
 166      13050500 
 167 00f0 97000000 		call	_Z11printStringPKc@plt
 167      E7800000 
 168              	.LVL6:
  26:src/main.cpp  ****     printInteger(return1);
 169              		.loc 1 26 5 is_stmt 1
 170              		.loc 1 26 17 is_stmt 0
 171 00f8 13850400 		mv	a0,s1
 172 00fc 97000000 		call	_Z12printIntegerm@plt
 172      E7800000 
 173              	.LVL7:
  27:src/main.cpp  ****     int return2 = thread_create(&threads[2], workerBodyB, threads[1]);
 174              		.loc 1 27 5 is_stmt 1
GAS LISTING /tmp/cciwyjKT.s 			page 10


 175              		.loc 1 27 32 is_stmt 0
 176 0104 033604FC 		ld	a2,-64(s0)
 177 0108 97050000 		la	a1,_Z11workerBodyBPv
 177      83B50500 
 178 0110 130584FC 		addi	a0,s0,-56
 179 0114 97000000 		call	_Z13thread_createPP3TCBPFvPvES2_@plt
 179      E7800000 
 180              	.LVL8:
 181 011c 93040500 		mv	s1,a0
 182              	.LVL9:
  28:src/main.cpp  ****     printString("ThreadB created\n");
 183              		.loc 1 28 5 is_stmt 1
 184              		.loc 1 28 16 is_stmt 0
 185 0120 17050000 		lla	a0,.LC1
 185      13050500 
 186 0128 97000000 		call	_Z11printStringPKc@plt
 186      E7800000 
 187              	.LVL10:
  29:src/main.cpp  ****     printInteger(return2);
 188              		.loc 1 29 5 is_stmt 1
 189              		.loc 1 29 17 is_stmt 0
 190 0130 13850400 		mv	a0,s1
 191 0134 97000000 		call	_Z12printIntegerm@plt
 191      E7800000 
 192              	.LVL11:
  30:src/main.cpp  **** 
  31:src/main.cpp  ****     MySemaphore* semaphore[2];
 193              		.loc 1 31 5 is_stmt 1
  32:src/main.cpp  ****     sem_open(&semaphore[0], 0);
 194              		.loc 1 32 5
 195              		.loc 1 32 13 is_stmt 0
 196 013c 93050000 		li	a1,0
 197 0140 130584FA 		addi	a0,s0,-88
 198 0144 97000000 		call	_Z8sem_openPP11MySemaphorej@plt
 198      E7800000 
 199              	.LVL12:
 200 014c 6F00C000 		j	.L4
 201              	.L2:
  33:src/main.cpp  **** 
  34:src/main.cpp  ****     while (!(threads[1]->isFinished() &&
  35:src/main.cpp  ****              threads[2]->isFinished()))
  36:src/main.cpp  ****     {
  37:src/main.cpp  ****         thread_dispatch();
 202              		.loc 1 37 9 is_stmt 1 discriminator 3
 203              		.loc 1 37 24 is_stmt 0 discriminator 3
 204 0150 97000000 		call	_Z15thread_dispatchv@plt
 204      E7800000 
 205              	.LVL13:
 206              	.L4:
  34:src/main.cpp  ****              threads[2]->isFinished()))
 207              		.loc 1 34 5 is_stmt 1
  34:src/main.cpp  ****              threads[2]->isFinished()))
 208              		.loc 1 34 12
  34:src/main.cpp  ****              threads[2]->isFinished()))
 209              		.loc 1 34 23 is_stmt 0
 210 0158 833704FC 		ld	a5,-64(s0)
 211              	.LVL14:
GAS LISTING /tmp/cciwyjKT.s 			page 11


 212              	.LBB22:
 213              	.LBB23:
 214              		.file 4 "src/../h/tcb.hpp"
   1:src/../h/tcb.hpp **** //
   2:src/../h/tcb.hpp **** // Created by marko on 20.4.22..
   3:src/../h/tcb.hpp **** //
   4:src/../h/tcb.hpp **** 
   5:src/../h/tcb.hpp **** #ifndef OS1_VEZBE07_RISCV_CONTEXT_SWITCH_2_INTERRUPT_TCB_HPP
   6:src/../h/tcb.hpp **** #define OS1_VEZBE07_RISCV_CONTEXT_SWITCH_2_INTERRUPT_TCB_HPP
   7:src/../h/tcb.hpp **** 
   8:src/../h/tcb.hpp **** #include "../lib/hw.h"
   9:src/../h/tcb.hpp **** #include "scheduler.hpp"
  10:src/../h/tcb.hpp **** 
  11:src/../h/tcb.hpp **** // Thread Control Block
  12:src/../h/tcb.hpp **** class TCB
  13:src/../h/tcb.hpp **** {
  14:src/../h/tcb.hpp **** public:
  15:src/../h/tcb.hpp ****     ~TCB() { delete[] stack; }
  16:src/../h/tcb.hpp **** 
  17:src/../h/tcb.hpp ****     bool isFinished() const { return finished; }
 215              		.loc 4 17 31 is_stmt 1
 216              		.loc 4 17 38 is_stmt 0
 217 015c 83C70702 		lbu	a5,32(a5)
 218              	.LVL15:
 219              	.LBE23:
 220              	.LBE22:
  34:src/main.cpp  ****              threads[2]->isFinished()))
 221              		.loc 1 34 12
 222 0160 E38807FE 		beqz	a5,.L2
  35:src/main.cpp  ****     {
 223              		.loc 1 35 23 discriminator 2
 224 0164 833784FC 		ld	a5,-56(s0)
 225              	.LVL16:
 226              	.LBB24:
 227              	.LBB25:
 228              		.loc 4 17 31 is_stmt 1 discriminator 2
 229              		.loc 4 17 38 is_stmt 0 discriminator 2
 230 0168 83C70702 		lbu	a5,32(a5)
 231              	.LVL17:
 232              	.LBE25:
 233              	.LBE24:
  34:src/main.cpp  ****              threads[2]->isFinished()))
 234              		.loc 1 34 12 discriminator 2
 235 016c E38207FE 		beqz	a5,.L2
  38:src/main.cpp  ****     }
  39:src/main.cpp  **** 
  40:src/main.cpp  **** 
  41:src/main.cpp  ****     printString("main: Pravimo C...");
 236              		.loc 1 41 5 is_stmt 1
 237              		.loc 1 41 16 is_stmt 0
 238 0170 17050000 		lla	a0,.LC2
 238      13050500 
 239 0178 97000000 		call	_Z11printStringPKc@plt
 239      E7800000 
 240              	.LVL18:
  42:src/main.cpp  ****     thread_create(&threads[3], workerBodyC, semaphore[0]);
 241              		.loc 1 42 5 is_stmt 1
GAS LISTING /tmp/cciwyjKT.s 			page 12


 242              		.loc 1 42 18 is_stmt 0
 243 0180 033684FA 		ld	a2,-88(s0)
 244 0184 97050000 		la	a1,_Z11workerBodyCPv
 244      83B50500 
 245 018c 930404FD 		addi	s1,s0,-48
 246              	.LVL19:
 247 0190 13850400 		mv	a0,s1
 248 0194 97000000 		call	_Z13thread_createPP3TCBPFvPvES2_@plt
 248      E7800000 
 249              	.LVL20:
  43:src/main.cpp  ****     printString("main: Pravimo D....");
 250              		.loc 1 43 5 is_stmt 1
 251              		.loc 1 43 16 is_stmt 0
 252 019c 17050000 		lla	a0,.LC3
 252      13050500 
 253 01a4 97000000 		call	_Z11printStringPKc@plt
 253      E7800000 
 254              	.LVL21:
  44:src/main.cpp  ****     thread_create(&threads[3], workerBodyD, semaphore[0]);
 255              		.loc 1 44 5 is_stmt 1
 256              		.loc 1 44 18 is_stmt 0
 257 01ac 033684FA 		ld	a2,-88(s0)
 258 01b0 97050000 		la	a1,_Z11workerBodyDPv
 258      83B50500 
 259 01b8 13850400 		mv	a0,s1
 260 01bc 97000000 		call	_Z13thread_createPP3TCBPFvPvES2_@plt
 260      E7800000 
 261              	.LVL22:
  45:src/main.cpp  ****     //thread_dispatch();
  46:src/main.cpp  ****     int returnValue = sem_wait(semaphore[0]);
 262              		.loc 1 46 5 is_stmt 1
 263              		.loc 1 46 31 is_stmt 0
 264 01c4 033584FA 		ld	a0,-88(s0)
 265 01c8 97000000 		call	_Z8sem_waitP11MySemaphore@plt
 265      E7800000 
 266              	.LVL23:
 267 01d0 93040500 		mv	s1,a0
 268              	.LVL24:
  47:src/main.cpp  **** 
  48:src/main.cpp  ****     printString("Finished\nReturn value: ");
 269              		.loc 1 48 5 is_stmt 1
 270              		.loc 1 48 16 is_stmt 0
 271 01d4 17050000 		lla	a0,.LC4
 271      13050500 
 272 01dc 97000000 		call	_Z11printStringPKc@plt
 272      E7800000 
 273              	.LVL25:
  49:src/main.cpp  ****     printInteger(returnValue);
 274              		.loc 1 49 5 is_stmt 1
 275              		.loc 1 49 17 is_stmt 0
 276 01e4 13850400 		mv	a0,s1
 277 01e8 97000000 		call	_Z12printIntegerm@plt
 277      E7800000 
 278              	.LVL26:
  50:src/main.cpp  ****     printString("\n");
 279              		.loc 1 50 5 is_stmt 1
 280              		.loc 1 50 16 is_stmt 0
GAS LISTING /tmp/cciwyjKT.s 			page 13


 281 01f0 17050000 		lla	a0,.LC5
 281      13050500 
 282 01f8 97000000 		call	_Z11printStringPKc@plt
 282      E7800000 
 283              	.LVL27:
  51:src/main.cpp  **** 
  52:src/main.cpp  ****     thread_dispatch();
 284              		.loc 1 52 5 is_stmt 1
 285              		.loc 1 52 20 is_stmt 0
 286 0200 97000000 		call	_Z15thread_dispatchv@plt
 286      E7800000 
 287              	.LVL28:
 288              	.LBB26:
  53:src/main.cpp  ****     for (auto &thread: threads) {
 289              		.loc 1 53 24
 290 0208 930484FB 		addi	s1,s0,-72
 291              	.LVL29:
 292 020c 6F004001 		j	.L8
 293              	.LVL30:
 294              	.L7:
  54:src/main.cpp  ****         delete thread;
 295              		.loc 1 54 16
 296 0210 13050900 		mv	a0,s2
 297 0214 97000000 		call	_ZdlPv@plt
 297      E7800000 
 298              	.LVL31:
 299              	.L6:
  53:src/main.cpp  ****     for (auto &thread: threads) {
 300              		.loc 1 53 5 is_stmt 1 discriminator 3
 301 021c 93848400 		addi	s1,s1,8
 302              	.LVL32:
 303              	.L8:
  53:src/main.cpp  ****     for (auto &thread: threads) {
 304              		.loc 1 53 24 discriminator 1
 305 0220 930704FE 		addi	a5,s0,-32
 306 0224 6380F402 		beq	s1,a5,.L5
 307              	.LVL33:
 308              		.loc 1 54 9 discriminator 2
 309              		.loc 1 54 16 is_stmt 0 discriminator 2
 310 0228 03B90400 		ld	s2,0(s1)
 311              		.loc 1 54 22 discriminator 2
 312 022c E30809FE 		beqz	s2,.L6
 313              	.LVL34:
 314              	.LBB27:
 315              	.LBB28:
  15:src/../h/tcb.hpp **** 
 316              		.loc 4 15 14 is_stmt 1
  15:src/../h/tcb.hpp **** 
 317              		.loc 4 15 23 is_stmt 0
 318 0230 03358900 		ld	a0,8(s2)
  15:src/../h/tcb.hpp **** 
 319              		.loc 4 15 28
 320 0234 E30E05FC 		beqz	a0,.L7
  15:src/../h/tcb.hpp **** 
 321              		.loc 4 15 23
 322 0238 97000000 		call	_ZdaPv@plt
 322      E7800000 
GAS LISTING /tmp/cciwyjKT.s 			page 14


 323              	.LVL35:
 324 0240 6FF01FFD 		j	.L7
 325              	.LVL36:
 326              	.L5:
 327              	.LBE28:
 328              	.LBE27:
 329              	.LBE26:
  55:src/main.cpp  ****     }
  56:src/main.cpp  **** 
  57:src/main.cpp  **** 
  58:src/main.cpp  ****     //Testing
  59:src/main.cpp  ****     printString("New called: ");
 330              		.loc 1 59 5 is_stmt 1
 331              		.loc 1 59 16 is_stmt 0
 332 0244 17050000 		lla	a0,.LC6
 332      13050500 
 333 024c 97000000 		call	_Z11printStringPKc@plt
 333      E7800000 
 334              	.LVL37:
  60:src/main.cpp  ****     printInteger(MemoryAllocator::newCalled);
 335              		.loc 1 60 5 is_stmt 1
 336              		.loc 1 60 17 is_stmt 0
 337 0254 97070000 		la	a5,_ZN15MemoryAllocator9newCalledE
 337      83B70700 
 338 025c 03A50700 		lw	a0,0(a5)
 339 0260 97000000 		call	_Z12printIntegerm@plt
 339      E7800000 
 340              	.LVL38:
  61:src/main.cpp  ****     printString("\n");
 341              		.loc 1 61 5 is_stmt 1
 342              		.loc 1 61 16 is_stmt 0
 343 0268 17050000 		lla	a0,.LC5
 343      13050500 
 344 0270 97000000 		call	_Z11printStringPKc@plt
 344      E7800000 
 345              	.LVL39:
  62:src/main.cpp  **** 
  63:src/main.cpp  ****     printString("New[] called: ");
 346              		.loc 1 63 5 is_stmt 1
 347              		.loc 1 63 16 is_stmt 0
 348 0278 17050000 		lla	a0,.LC7
 348      13050500 
 349 0280 97000000 		call	_Z11printStringPKc@plt
 349      E7800000 
 350              	.LVL40:
  64:src/main.cpp  ****     printInteger(MemoryAllocator::newArrayCalled);
 351              		.loc 1 64 5 is_stmt 1
 352              		.loc 1 64 17 is_stmt 0
 353 0288 97070000 		la	a5,_ZN15MemoryAllocator14newArrayCalledE
 353      83B70700 
 354 0290 03A50700 		lw	a0,0(a5)
 355 0294 97000000 		call	_Z12printIntegerm@plt
 355      E7800000 
 356              	.LVL41:
  65:src/main.cpp  ****     printString("\n");
 357              		.loc 1 65 5 is_stmt 1
 358              		.loc 1 65 16 is_stmt 0
GAS LISTING /tmp/cciwyjKT.s 			page 15


 359 029c 17050000 		lla	a0,.LC5
 359      13050500 
 360 02a4 97000000 		call	_Z11printStringPKc@plt
 360      E7800000 
 361              	.LVL42:
  66:src/main.cpp  **** 
  67:src/main.cpp  **** 
  68:src/main.cpp  ****     printString("Delete called: ");
 362              		.loc 1 68 5 is_stmt 1
 363              		.loc 1 68 16 is_stmt 0
 364 02ac 17050000 		lla	a0,.LC8
 364      13050500 
 365 02b4 97000000 		call	_Z11printStringPKc@plt
 365      E7800000 
 366              	.LVL43:
  69:src/main.cpp  ****     printInteger(MemoryAllocator::deleteCalled);
 367              		.loc 1 69 5 is_stmt 1
 368              		.loc 1 69 17 is_stmt 0
 369 02bc 97070000 		la	a5,_ZN15MemoryAllocator12deleteCalledE
 369      83B70700 
 370 02c4 03A50700 		lw	a0,0(a5)
 371 02c8 97000000 		call	_Z12printIntegerm@plt
 371      E7800000 
 372              	.LVL44:
  70:src/main.cpp  ****     printString("\n");
 373              		.loc 1 70 5 is_stmt 1
 374              		.loc 1 70 16 is_stmt 0
 375 02d0 17050000 		lla	a0,.LC5
 375      13050500 
 376 02d8 97000000 		call	_Z11printStringPKc@plt
 376      E7800000 
 377              	.LVL45:
  71:src/main.cpp  **** 
  72:src/main.cpp  ****     printString("Delete[] called: ");
 378              		.loc 1 72 5 is_stmt 1
 379              		.loc 1 72 16 is_stmt 0
 380 02e0 17050000 		lla	a0,.LC9
 380      13050500 
 381 02e8 97000000 		call	_Z11printStringPKc@plt
 381      E7800000 
 382              	.LVL46:
  73:src/main.cpp  ****     printInteger(MemoryAllocator::deleteArrayCalled);
 383              		.loc 1 73 5 is_stmt 1
 384              		.loc 1 73 17 is_stmt 0
 385 02f0 97070000 		la	a5,_ZN15MemoryAllocator17deleteArrayCalledE
 385      83B70700 
 386 02f8 03A50700 		lw	a0,0(a5)
 387 02fc 97000000 		call	_Z12printIntegerm@plt
 387      E7800000 
 388              	.LVL47:
  74:src/main.cpp  ****     printString("\n");
 389              		.loc 1 74 5 is_stmt 1
 390              		.loc 1 74 16 is_stmt 0
 391 0304 17050000 		lla	a0,.LC5
 391      13050500 
 392 030c 97000000 		call	_Z11printStringPKc@plt
 392      E7800000 
GAS LISTING /tmp/cciwyjKT.s 			page 16


 393              	.LVL48:
  75:src/main.cpp  **** 
  76:src/main.cpp  ****     return 0;
 394              		.loc 1 76 5 is_stmt 1
  77:src/main.cpp  **** }
 395              		.loc 1 77 1 is_stmt 0
 396 0314 13050000 		li	a0,0
 397 0318 83308105 		ld	ra,88(sp)
 398              		.cfi_restore 1
 399 031c 03340105 		ld	s0,80(sp)
 400              		.cfi_restore 8
 401              		.cfi_def_cfa 2, 96
 402 0320 83348104 		ld	s1,72(sp)
 403              		.cfi_restore 9
 404              	.LVL49:
 405 0324 03390104 		ld	s2,64(sp)
 406              		.cfi_restore 18
 407 0328 13010106 		addi	sp,sp,96
 408              		.cfi_def_cfa_offset 0
 409 032c 67800000 		jr	ra
 410              		.cfi_endproc
 411              	.LFE41:
 413              	.Letext0:
 414              		.file 5 "src/../h/../lib/hw.h"
 415              		.file 6 "src/../h/list.hpp"
 416              		.file 7 "src/../h/mySemaphore.hpp"
 417              		.file 8 "src/../h/syscall_c.hpp"
 418              		.file 9 "src/../h/print.hpp"
GAS LISTING /tmp/cciwyjKT.s 			page 17


DEFINED SYMBOLS
                            *ABS*:0000000000000000 main.cpp
     /tmp/cciwyjKT.s:41     .text:0000000000000000 main
     /tmp/cciwyjKT.s:45     .text:0000000000000000 .L0 
     /tmp/cciwyjKT.s:46     .text:0000000000000000 .L0 
     /tmp/cciwyjKT.s:47     .text:0000000000000004 .L0 
     /tmp/cciwyjKT.s:52     .text:0000000000000014 .L0 
     /tmp/cciwyjKT.s:53     .text:0000000000000014 .L0 
     /tmp/cciwyjKT.s:54     .text:0000000000000014 .L0 
     /tmp/cciwyjKT.s:55     .text:0000000000000014 .L0 
     /tmp/cciwyjKT.s:57     .text:0000000000000018 .L0 
     /tmp/cciwyjKT.s:59     .text:0000000000000018 .L0 
     /tmp/cciwyjKT.s:63     .text:0000000000000018 .L0 
     /tmp/cciwyjKT.s:64     .text:0000000000000018 .L0 
     /tmp/cciwyjKT.s:65     .text:0000000000000018 .L0 
     /tmp/cciwyjKT.s:70     .text:0000000000000030 .L0 
     /tmp/cciwyjKT.s:71     .text:0000000000000030 .L0 
     /tmp/cciwyjKT.s:74     .text:000000000000003c .L0 
     /tmp/cciwyjKT.s:75     .text:000000000000003c .L0 
     /tmp/cciwyjKT.s:77     .text:0000000000000040 .L0 
     /tmp/cciwyjKT.s:78     .text:0000000000000040 .L0 
     /tmp/cciwyjKT.s:80     .text:0000000000000044 .L0 
     /tmp/cciwyjKT.s:82     .text:0000000000000048 .L0 
     /tmp/cciwyjKT.s:83     .text:0000000000000048 .L0 
     /tmp/cciwyjKT.s:85     .text:000000000000004c .L0 
     /tmp/cciwyjKT.s:88     .text:0000000000000058 .L0 
     /tmp/cciwyjKT.s:90     .text:000000000000005c .L0 
     /tmp/cciwyjKT.s:92     .text:0000000000000060 .L0 
     /tmp/cciwyjKT.s:94     .text:0000000000000064 .L0 
     /tmp/cciwyjKT.s:95     .text:0000000000000064 .L0 
     /tmp/cciwyjKT.s:98     .text:0000000000000070 .L0 
     /tmp/cciwyjKT.s:99     .text:0000000000000070 .L0 
     /tmp/cciwyjKT.s:102    .text:000000000000007c .L0 
     /tmp/cciwyjKT.s:103    .text:000000000000007c .L0 
     /tmp/cciwyjKT.s:106    .text:0000000000000088 .L0 
     /tmp/cciwyjKT.s:107    .text:0000000000000088 .L0 
     /tmp/cciwyjKT.s:112    .text:0000000000000094 .L0 
     /tmp/cciwyjKT.s:113    .text:0000000000000094 .L0 
     /tmp/cciwyjKT.s:118    .text:00000000000000a4 .L0 
     /tmp/cciwyjKT.s:120    .text:00000000000000a8 .L0 
     /tmp/cciwyjKT.s:121    .text:00000000000000a8 .L0 
     /tmp/cciwyjKT.s:124    .text:00000000000000b4 .L0 
     /tmp/cciwyjKT.s:125    .text:00000000000000b4 .L0 
     /tmp/cciwyjKT.s:132    .text:00000000000000c0 .L0 
  src/../h/riscv.hpp:178    .text:00000000000000c0 .L0 
     /tmp/cciwyjKT.s:144    .text:00000000000000c4 .L0 
     /tmp/cciwyjKT.s:145    .text:00000000000000c4 .L0 
     /tmp/cciwyjKT.s:146    .text:00000000000000c4 .L0 
     /tmp/cciwyjKT.s:156    .text:00000000000000cc .L0 
     /tmp/cciwyjKT.s:157    .text:00000000000000cc .L0 
     /tmp/cciwyjKT.s:165    .text:00000000000000e8 .L0 
     /tmp/cciwyjKT.s:166    .text:00000000000000e8 .L0 
     /tmp/cciwyjKT.s:170    .text:00000000000000f8 .L0 
     /tmp/cciwyjKT.s:171    .text:00000000000000f8 .L0 
     /tmp/cciwyjKT.s:175    .text:0000000000000104 .L0 
     /tmp/cciwyjKT.s:176    .text:0000000000000104 .L0 
     /tmp/cciwyjKT.s:184    .text:0000000000000120 .L0 
GAS LISTING /tmp/cciwyjKT.s 			page 18


     /tmp/cciwyjKT.s:185    .text:0000000000000120 .L0 
     /tmp/cciwyjKT.s:189    .text:0000000000000130 .L0 
     /tmp/cciwyjKT.s:190    .text:0000000000000130 .L0 
     /tmp/cciwyjKT.s:194    .text:000000000000013c .L0 
     /tmp/cciwyjKT.s:195    .text:000000000000013c .L0 
     /tmp/cciwyjKT.s:196    .text:000000000000013c .L0 
     /tmp/cciwyjKT.s:203    .text:0000000000000150 .L0 
     /tmp/cciwyjKT.s:204    .text:0000000000000150 .L0 
     /tmp/cciwyjKT.s:208    .text:0000000000000158 .L0 
     /tmp/cciwyjKT.s:209    .text:0000000000000158 .L0 
     /tmp/cciwyjKT.s:210    .text:0000000000000158 .L0 
     /tmp/cciwyjKT.s:216    .text:000000000000015c .L0 
     /tmp/cciwyjKT.s:217    .text:000000000000015c .L0 
     /tmp/cciwyjKT.s:222    .text:0000000000000160 .L0 
     /tmp/cciwyjKT.s:224    .text:0000000000000164 .L0 
     /tmp/cciwyjKT.s:229    .text:0000000000000168 .L0 
     /tmp/cciwyjKT.s:230    .text:0000000000000168 .L0 
     /tmp/cciwyjKT.s:235    .text:000000000000016c .L0 
     /tmp/cciwyjKT.s:237    .text:0000000000000170 .L0 
     /tmp/cciwyjKT.s:238    .text:0000000000000170 .L0 
     /tmp/cciwyjKT.s:242    .text:0000000000000180 .L0 
     /tmp/cciwyjKT.s:243    .text:0000000000000180 .L0 
     /tmp/cciwyjKT.s:251    .text:000000000000019c .L0 
     /tmp/cciwyjKT.s:252    .text:000000000000019c .L0 
     /tmp/cciwyjKT.s:256    .text:00000000000001ac .L0 
     /tmp/cciwyjKT.s:257    .text:00000000000001ac .L0 
     /tmp/cciwyjKT.s:263    .text:00000000000001c4 .L0 
     /tmp/cciwyjKT.s:264    .text:00000000000001c4 .L0 
     /tmp/cciwyjKT.s:270    .text:00000000000001d4 .L0 
     /tmp/cciwyjKT.s:271    .text:00000000000001d4 .L0 
     /tmp/cciwyjKT.s:275    .text:00000000000001e4 .L0 
     /tmp/cciwyjKT.s:276    .text:00000000000001e4 .L0 
     /tmp/cciwyjKT.s:280    .text:00000000000001f0 .L0 
     /tmp/cciwyjKT.s:281    .text:00000000000001f0 .L0 
     /tmp/cciwyjKT.s:285    .text:0000000000000200 .L0 
     /tmp/cciwyjKT.s:286    .text:0000000000000200 .L0 
     /tmp/cciwyjKT.s:290    .text:0000000000000208 .L0 
     /tmp/cciwyjKT.s:296    .text:0000000000000210 .L0 
     /tmp/cciwyjKT.s:301    .text:000000000000021c .L0 
     /tmp/cciwyjKT.s:305    .text:0000000000000220 .L0 
     /tmp/cciwyjKT.s:309    .text:0000000000000228 .L0 
     /tmp/cciwyjKT.s:310    .text:0000000000000228 .L0 
     /tmp/cciwyjKT.s:312    .text:000000000000022c .L0 
     /tmp/cciwyjKT.s:317    .text:0000000000000230 .L0 
     /tmp/cciwyjKT.s:318    .text:0000000000000230 .L0 
     /tmp/cciwyjKT.s:320    .text:0000000000000234 .L0 
     /tmp/cciwyjKT.s:322    .text:0000000000000238 .L0 
     /tmp/cciwyjKT.s:331    .text:0000000000000244 .L0 
     /tmp/cciwyjKT.s:332    .text:0000000000000244 .L0 
     /tmp/cciwyjKT.s:336    .text:0000000000000254 .L0 
     /tmp/cciwyjKT.s:337    .text:0000000000000254 .L0 
     /tmp/cciwyjKT.s:342    .text:0000000000000268 .L0 
     /tmp/cciwyjKT.s:343    .text:0000000000000268 .L0 
     /tmp/cciwyjKT.s:347    .text:0000000000000278 .L0 
     /tmp/cciwyjKT.s:348    .text:0000000000000278 .L0 
     /tmp/cciwyjKT.s:352    .text:0000000000000288 .L0 
     /tmp/cciwyjKT.s:353    .text:0000000000000288 .L0 
GAS LISTING /tmp/cciwyjKT.s 			page 19


     /tmp/cciwyjKT.s:358    .text:000000000000029c .L0 
     /tmp/cciwyjKT.s:359    .text:000000000000029c .L0 
     /tmp/cciwyjKT.s:363    .text:00000000000002ac .L0 
     /tmp/cciwyjKT.s:364    .text:00000000000002ac .L0 
     /tmp/cciwyjKT.s:368    .text:00000000000002bc .L0 
     /tmp/cciwyjKT.s:369    .text:00000000000002bc .L0 
     /tmp/cciwyjKT.s:374    .text:00000000000002d0 .L0 
     /tmp/cciwyjKT.s:375    .text:00000000000002d0 .L0 
     /tmp/cciwyjKT.s:379    .text:00000000000002e0 .L0 
     /tmp/cciwyjKT.s:380    .text:00000000000002e0 .L0 
     /tmp/cciwyjKT.s:384    .text:00000000000002f0 .L0 
     /tmp/cciwyjKT.s:385    .text:00000000000002f0 .L0 
     /tmp/cciwyjKT.s:390    .text:0000000000000304 .L0 
     /tmp/cciwyjKT.s:391    .text:0000000000000304 .L0 
     /tmp/cciwyjKT.s:395    .text:0000000000000314 .L0 
     /tmp/cciwyjKT.s:396    .text:0000000000000314 .L0 
     /tmp/cciwyjKT.s:398    .text:000000000000031c .L0 
     /tmp/cciwyjKT.s:400    .text:0000000000000320 .L0 
     /tmp/cciwyjKT.s:401    .text:0000000000000320 .L0 
     /tmp/cciwyjKT.s:403    .text:0000000000000324 .L0 
     /tmp/cciwyjKT.s:406    .text:0000000000000328 .L0 
     /tmp/cciwyjKT.s:408    .text:000000000000032c .L0 
     /tmp/cciwyjKT.s:410    .text:0000000000000330 .L0 
     /tmp/cciwyjKT.s:419    .text:0000000000000330 .L0 
     /tmp/cciwyjKT.s:65     .text:0000000000000018 .L0 
     /tmp/cciwyjKT.s:67     .text:0000000000000024 .L0 
     /tmp/cciwyjKT.s:71     .text:0000000000000030 .L0 
     /tmp/cciwyjKT.s:85     .text:000000000000004c .L0 
     /tmp/cciwyjKT.s:95     .text:0000000000000064 .L0 
     /tmp/cciwyjKT.s:99     .text:0000000000000070 .L0 
     /tmp/cciwyjKT.s:103    .text:000000000000007c .L0 
     /tmp/cciwyjKT.s:107    .text:0000000000000088 .L0 
     /tmp/cciwyjKT.s:121    .text:00000000000000a8 .L0 
     /tmp/cciwyjKT.s:125    .text:00000000000000b4 .L0 
     /tmp/cciwyjKT.s:158    .text:00000000000000d0 .L0 
     /tmp/cciwyjKT.s:8      .rodata.str1.8:0000000000000000 .LC0
     /tmp/cciwyjKT.s:166    .text:00000000000000e8 .L0 
     /tmp/cciwyjKT.s:177    .text:0000000000000108 .L0 
     /tmp/cciwyjKT.s:11     .rodata.str1.8:0000000000000018 .LC1
     /tmp/cciwyjKT.s:185    .text:0000000000000120 .L0 
     /tmp/cciwyjKT.s:14     .rodata.str1.8:0000000000000030 .LC2
     /tmp/cciwyjKT.s:238    .text:0000000000000170 .L0 
     /tmp/cciwyjKT.s:244    .text:0000000000000184 .L0 
     /tmp/cciwyjKT.s:17     .rodata.str1.8:0000000000000048 .LC3
     /tmp/cciwyjKT.s:252    .text:000000000000019c .L0 
     /tmp/cciwyjKT.s:258    .text:00000000000001b0 .L0 
     /tmp/cciwyjKT.s:20     .rodata.str1.8:0000000000000060 .LC4
     /tmp/cciwyjKT.s:271    .text:00000000000001d4 .L0 
     /tmp/cciwyjKT.s:23     .rodata.str1.8:0000000000000078 .LC5
     /tmp/cciwyjKT.s:281    .text:00000000000001f0 .L0 
     /tmp/cciwyjKT.s:26     .rodata.str1.8:0000000000000080 .LC6
     /tmp/cciwyjKT.s:332    .text:0000000000000244 .L0 
     /tmp/cciwyjKT.s:337    .text:0000000000000254 .L0 
     /tmp/cciwyjKT.s:343    .text:0000000000000268 .L0 
     /tmp/cciwyjKT.s:29     .rodata.str1.8:0000000000000090 .LC7
     /tmp/cciwyjKT.s:348    .text:0000000000000278 .L0 
     /tmp/cciwyjKT.s:353    .text:0000000000000288 .L0 
GAS LISTING /tmp/cciwyjKT.s 			page 20


     /tmp/cciwyjKT.s:359    .text:000000000000029c .L0 
     /tmp/cciwyjKT.s:32     .rodata.str1.8:00000000000000a0 .LC8
     /tmp/cciwyjKT.s:364    .text:00000000000002ac .L0 
     /tmp/cciwyjKT.s:369    .text:00000000000002bc .L0 
     /tmp/cciwyjKT.s:375    .text:00000000000002d0 .L0 
     /tmp/cciwyjKT.s:35     .rodata.str1.8:00000000000000b0 .LC9
     /tmp/cciwyjKT.s:380    .text:00000000000002e0 .L0 
     /tmp/cciwyjKT.s:385    .text:00000000000002f0 .L0 
     /tmp/cciwyjKT.s:391    .text:0000000000000304 .L0 
     /tmp/cciwyjKT.s:206    .text:0000000000000158 .L4
     /tmp/cciwyjKT.s:201    .text:0000000000000150 .L2
     /tmp/cciwyjKT.s:303    .text:0000000000000220 .L8
     /tmp/cciwyjKT.s:326    .text:0000000000000244 .L5
     /tmp/cciwyjKT.s:299    .text:000000000000021c .L6
     /tmp/cciwyjKT.s:294    .text:0000000000000210 .L7
     /tmp/cciwyjKT.s:2153   .debug_abbrev:0000000000000000 .Ldebug_abbrev0
     /tmp/cciwyjKT.s:3579   .debug_str:0000000000000a51 .LASF207
     /tmp/cciwyjKT.s:3325   .debug_str:0000000000000363 .LASF208
     /tmp/cciwyjKT.s:3281   .debug_str:00000000000001bf .LASF209
     /tmp/cciwyjKT.s:5      .text:0000000000000000 .Ltext0
     /tmp/cciwyjKT.s:413    .text:0000000000000330 .Letext0
     /tmp/cciwyjKT.s:3221   .debug_line:0000000000000000 .Ldebug_line0
     /tmp/cciwyjKT.s:3359   .debug_str:0000000000000473 .LASF0
     /tmp/cciwyjKT.s:3399   .debug_str:0000000000000579 .LASF1
     /tmp/cciwyjKT.s:3511   .debug_str:00000000000008b2 .LASF2
     /tmp/cciwyjKT.s:3519   .debug_str:00000000000008ed .LASF4
     /tmp/cciwyjKT.s:3369   .debug_str:00000000000004a9 .LASF3
     /tmp/cciwyjKT.s:3243   .debug_str:00000000000000ae .LASF5
     /tmp/cciwyjKT.s:3471   .debug_str:000000000000079e .LASF6
     /tmp/cciwyjKT.s:3387   .debug_str:0000000000000507 .LASF7
     /tmp/cciwyjKT.s:3333   .debug_str:000000000000038b .LASF8
     /tmp/cciwyjKT.s:3341   .debug_str:00000000000003e9 .LASF9
     /tmp/cciwyjKT.s:3269   .debug_str:000000000000016f .LASF10
     /tmp/cciwyjKT.s:3323   .debug_str:0000000000000354 .LASF11
     /tmp/cciwyjKT.s:3287   .debug_str:0000000000000225 .LASF12
     /tmp/cciwyjKT.s:3267   .debug_str:000000000000015f .LASF13
     /tmp/cciwyjKT.s:3555   .debug_str:00000000000009c3 .LASF14
     /tmp/cciwyjKT.s:3307   .debug_str:00000000000002a2 .LASF15
     /tmp/cciwyjKT.s:3541   .debug_str:0000000000000961 .LASF16
     /tmp/cciwyjKT.s:3613   .debug_str:0000000000000c09 .LASF34
     /tmp/cciwyjKT.s:3603   .debug_str:0000000000000bc2 .LASF210
     /tmp/cciwyjKT.s:3547   .debug_str:0000000000000996 .LASF17
     /tmp/cciwyjKT.s:3439   .debug_str:00000000000006d5 .LASF18
     /tmp/cciwyjKT.s:3433   .debug_str:00000000000006b1 .LASF19
     /tmp/cciwyjKT.s:3543   .debug_str:0000000000000977 .LASF21
     /tmp/cciwyjKT.s:3319   .debug_str:000000000000031c .LASF26
     /tmp/cciwyjKT.s:3513   .debug_str:00000000000008c0 .LASF211
     /tmp/cciwyjKT.s:3501   .debug_str:000000000000086c .LASF212
     /tmp/cciwyjKT.s:3393   .debug_str:0000000000000547 .LASF20
     /tmp/cciwyjKT.s:3259   .debug_str:000000000000010b .LASF22
     /tmp/cciwyjKT.s:3411   .debug_str:00000000000005df .LASF23
     /tmp/cciwyjKT.s:3309   .debug_str:00000000000002b8 .LASF24
     /tmp/cciwyjKT.s:3467   .debug_str:0000000000000781 .LASF25
     /tmp/cciwyjKT.s:3615   .debug_str:0000000000000c13 .LASF27
     /tmp/cciwyjKT.s:3659   .debug_str:0000000000000d3c .LASF28
     /tmp/cciwyjKT.s:3645   .debug_str:0000000000000cc8 .LASF29
     /tmp/cciwyjKT.s:3533   .debug_str:000000000000093e .LASF30
GAS LISTING /tmp/cciwyjKT.s 			page 21


     /tmp/cciwyjKT.s:3385   .debug_str:00000000000004ea .LASF31
     /tmp/cciwyjKT.s:3493   .debug_str:0000000000000840 .LASF32
     /tmp/cciwyjKT.s:3235   .debug_str:0000000000000056 .LASF33
     /tmp/cciwyjKT.s:3561   .debug_str:00000000000009eb .LASF157
     /tmp/cciwyjKT.s:3521   .debug_str:00000000000008f4 .LASF35
     /tmp/cciwyjKT.s:3239   .debug_str:0000000000000098 .LASF36
     /tmp/cciwyjKT.s:3563   .debug_str:00000000000009f3 .LASF37
     /tmp/cciwyjKT.s:3435   .debug_str:00000000000006b6 .LASF38
     /tmp/cciwyjKT.s:3253   .debug_str:00000000000000ec .LASF39
     /tmp/cciwyjKT.s:3599   .debug_str:0000000000000ba2 .LASF40
     /tmp/cciwyjKT.s:3635   .debug_str:0000000000000c70 .LASF41
     /tmp/cciwyjKT.s:3261   .debug_str:0000000000000128 .LASF42
     /tmp/cciwyjKT.s:3565   .debug_str:00000000000009fe .LASF43
     /tmp/cciwyjKT.s:3283   .debug_str:00000000000001f5 .LASF44
     /tmp/cciwyjKT.s:3553   .debug_str:00000000000009b6 .LASF45
     /tmp/cciwyjKT.s:3607   .debug_str:0000000000000bd5 .LASF46
     /tmp/cciwyjKT.s:3455   .debug_str:0000000000000733 .LASF213
     /tmp/cciwyjKT.s:3403   .debug_str:00000000000005b2 .LASF65
     /tmp/cciwyjKT.s:3583   .debug_str:0000000000000b29 .LASF67
     /tmp/cciwyjKT.s:3575   .debug_str:0000000000000a3c .LASF163
     /tmp/cciwyjKT.s:3581   .debug_str:0000000000000b15 .LASF214
     /tmp/cciwyjKT.s:3229   .debug_str:0000000000000030 .LASF47
     /tmp/cciwyjKT.s:3537   .debug_str:0000000000000952 .LASF48
     /tmp/cciwyjKT.s:3593   .debug_str:0000000000000b74 .LASF49
     /tmp/cciwyjKT.s:3539   .debug_str:0000000000000958 .LASF50
     /tmp/cciwyjKT.s:3447   .debug_str:000000000000070a .LASF51
     /tmp/cciwyjKT.s:3257   .debug_str:00000000000000fd .LASF52
     /tmp/cciwyjKT.s:3405   .debug_str:00000000000005b8 .LASF54
     /tmp/cciwyjKT.s:3291   .debug_str:000000000000023a .LASF56
     /tmp/cciwyjKT.s:3237   .debug_str:0000000000000070 .LASF58
     /tmp/cciwyjKT.s:3299   .debug_str:000000000000027d .LASF53
     /tmp/cciwyjKT.s:3279   .debug_str:00000000000001ac .LASF55
     /tmp/cciwyjKT.s:3571   .debug_str:0000000000000a26 .LASF57
     /tmp/cciwyjKT.s:3327   .debug_str:0000000000000370 .LASF59
     /tmp/cciwyjKT.s:3517   .debug_str:00000000000008e2 .LASF215
     /tmp/cciwyjKT.s:3413   .debug_str:00000000000005e7 .LASF60
     /tmp/cciwyjKT.s:3619   .debug_str:0000000000000c38 .LASF61
     /tmp/cciwyjKT.s:3609   .debug_str:0000000000000bf5 .LASF216
     /tmp/cciwyjKT.s:3315   .debug_str:00000000000002fd .LASF62
     /tmp/cciwyjKT.s:3577   .debug_str:0000000000000a44 .LASF63
     /tmp/cciwyjKT.s:3295   .debug_str:000000000000025f .LASF64
     /tmp/cciwyjKT.s:3347   .debug_str:0000000000000422 .LASF66
     /tmp/cciwyjKT.s:3355   .debug_str:000000000000044e .LASF68
     /tmp/cciwyjKT.s:3601   .debug_str:0000000000000bb9 .LASF70
     /tmp/cciwyjKT.s:3595   .debug_str:0000000000000b7c .LASF72
     /tmp/cciwyjKT.s:3507   .debug_str:000000000000089e .LASF69
     /tmp/cciwyjKT.s:3449   .debug_str:0000000000000712 .LASF75
     /tmp/cciwyjKT.s:3487   .debug_str:0000000000000812 .LASF71
     /tmp/cciwyjKT.s:3489   .debug_str:0000000000000819 .LASF73
     /tmp/cciwyjKT.s:3441   .debug_str:00000000000006da .LASF74
     /tmp/cciwyjKT.s:3389   .debug_str:000000000000051a .LASF76
     /tmp/cciwyjKT.s:3637   .debug_str:0000000000000c7a .LASF77
     /tmp/cciwyjKT.s:3551   .debug_str:00000000000009a2 .LASF78
     /tmp/cciwyjKT.s:3437   .debug_str:00000000000006cd .LASF79
     /tmp/cciwyjKT.s:3647   .debug_str:0000000000000ce3 .LASF80
     /tmp/cciwyjKT.s:3407   .debug_str:00000000000005d1 .LASF81
     /tmp/cciwyjKT.s:3491   .debug_str:000000000000082c .LASF82
GAS LISTING /tmp/cciwyjKT.s 			page 22


     /tmp/cciwyjKT.s:3653   .debug_str:0000000000000d1b .LASF83
     /tmp/cciwyjKT.s:3365   .debug_str:0000000000000490 .LASF84
     /tmp/cciwyjKT.s:3549   .debug_str:000000000000099b .LASF85
     /tmp/cciwyjKT.s:3523   .debug_str:00000000000008f9 .LASF86
     /tmp/cciwyjKT.s:3525   .debug_str:000000000000090c .LASF87
     /tmp/cciwyjKT.s:3275   .debug_str:000000000000018d .LASF88
     /tmp/cciwyjKT.s:3305   .debug_str:000000000000029c .LASF89
     /tmp/cciwyjKT.s:3351   .debug_str:0000000000000433 .LASF90
     /tmp/cciwyjKT.s:3363   .debug_str:000000000000048a .LASF91
     /tmp/cciwyjKT.s:3297   .debug_str:000000000000026b .LASF92
     /tmp/cciwyjKT.s:3245   .debug_str:00000000000000b5 .LASF93
     /tmp/cciwyjKT.s:3515   .debug_str:00000000000008ca .LASF94
     /tmp/cciwyjKT.s:3509   .debug_str:00000000000008a7 .LASF95
     /tmp/cciwyjKT.s:3649   .debug_str:0000000000000cf7 .LASF96
     /tmp/cciwyjKT.s:3621   .debug_str:0000000000000c3e .LASF97
     /tmp/cciwyjKT.s:3639   .debug_str:0000000000000c82 .LASF98
     /tmp/cciwyjKT.s:3273   .debug_str:0000000000000183 .LASF99
     /tmp/cciwyjKT.s:3421   .debug_str:0000000000000639 .LASF100
     /tmp/cciwyjKT.s:3631   .debug_str:0000000000000c5c .LASF101
     /tmp/cciwyjKT.s:3339   .debug_str:00000000000003cd .LASF102
     /tmp/cciwyjKT.s:3527   .debug_str:0000000000000913 .LASF103
     /tmp/cciwyjKT.s:3461   .debug_str:000000000000074e .LASF104
     /tmp/cciwyjKT.s:3623   .debug_str:0000000000000c48 .LASF105
     /tmp/cciwyjKT.s:3457   .debug_str:0000000000000738 .LASF106
     /tmp/cciwyjKT.s:3373   .debug_str:00000000000004cc .LASF107
     /tmp/cciwyjKT.s:3573   .debug_str:0000000000000a2b .LASF108
     /tmp/cciwyjKT.s:3625   .debug_str:0000000000000c4d .LASF109
     /tmp/cciwyjKT.s:3371   .debug_str:00000000000004bb .LASF110
     /tmp/cciwyjKT.s:3375   .debug_str:00000000000004d1 .LASF111
     /tmp/cciwyjKT.s:3469   .debug_str:000000000000078d .LASF112
     /tmp/cciwyjKT.s:3627   .debug_str:0000000000000c52 .LASF113
     /tmp/cciwyjKT.s:3233   .debug_str:0000000000000045 .LASF114
     /tmp/cciwyjKT.s:3377   .debug_str:00000000000004d6 .LASF115
     /tmp/cciwyjKT.s:3567   .debug_str:0000000000000a09 .LASF116
     /tmp/cciwyjKT.s:3629   .debug_str:0000000000000c57 .LASF117
     /tmp/cciwyjKT.s:3657   .debug_str:0000000000000d2b .LASF118
     /tmp/cciwyjKT.s:3379   .debug_str:00000000000004db .LASF119
     /tmp/cciwyjKT.s:3303   .debug_str:000000000000028b .LASF120
     /tmp/cciwyjKT.s:3451   .debug_str:0000000000000727 .LASF121
     /tmp/cciwyjKT.s:3589   .debug_str:0000000000000b5e .LASF122
     /tmp/cciwyjKT.s:3381   .debug_str:00000000000004e0 .LASF123
     /tmp/cciwyjKT.s:3227   .debug_str:000000000000001f .LASF124
     /tmp/cciwyjKT.s:3633   .debug_str:0000000000000c6b .LASF125
     /tmp/cciwyjKT.s:3503   .debug_str:0000000000000883 .LASF126
     /tmp/cciwyjKT.s:3383   .debug_str:00000000000004e5 .LASF127
     /tmp/cciwyjKT.s:3597   .debug_str:0000000000000b91 .LASF128
     /tmp/cciwyjKT.s:3459   .debug_str:0000000000000749 .LASF129
     /tmp/cciwyjKT.s:3415   .debug_str:00000000000005ec .LASF130
     /tmp/cciwyjKT.s:3255   .debug_str:00000000000000f8 .LASF131
     /tmp/cciwyjKT.s:3417   .debug_str:00000000000005fd .LASF132
     /tmp/cciwyjKT.s:3463   .debug_str:000000000000076c .LASF133
     /tmp/cciwyjKT.s:3337   .debug_str:00000000000003bc .LASF134
     /tmp/cciwyjKT.s:3591   .debug_str:0000000000000b6f .LASF135
     /tmp/cciwyjKT.s:3425   .debug_str:0000000000000659 .LASF136
     /tmp/cciwyjKT.s:3477   .debug_str:00000000000007d4 .LASF137
     /tmp/cciwyjKT.s:3311   .debug_str:00000000000002d4 .LASF138
     /tmp/cciwyjKT.s:3557   .debug_str:00000000000009cf .LASF139
GAS LISTING /tmp/cciwyjKT.s 			page 23


     /tmp/cciwyjKT.s:3443   .debug_str:00000000000006e1 .LASF140
     /tmp/cciwyjKT.s:3293   .debug_str:0000000000000248 .LASF141
     /tmp/cciwyjKT.s:3431   .debug_str:000000000000068d .LASF142
     /tmp/cciwyjKT.s:3277   .debug_str:00000000000001a0 .LASF143
     /tmp/cciwyjKT.s:3225   .debug_str:000000000000000a .LASF144
     /tmp/cciwyjKT.s:3301   .debug_str:0000000000000286 .LASF145
     /tmp/cciwyjKT.s:3265   .debug_str:0000000000000147 .LASF146
     /tmp/cciwyjKT.s:3559   .debug_str:00000000000009e4 .LASF147
     /tmp/cciwyjKT.s:3285   .debug_str:000000000000020b .LASF148
     /tmp/cciwyjKT.s:3475   .debug_str:00000000000007c4 .LASF149
     /tmp/cciwyjKT.s:3643   .debug_str:0000000000000ca4 .LASF150
     /tmp/cciwyjKT.s:3585   .debug_str:0000000000000b39 .LASF151
     /tmp/cciwyjKT.s:3397   .debug_str:000000000000055c .LASF152
     /tmp/cciwyjKT.s:3249   .debug_str:00000000000000e1 .LASF153
     /tmp/cciwyjKT.s:3343   .debug_str:00000000000003f7 .LASF154
     /tmp/cciwyjKT.s:3617   .debug_str:0000000000000c31 .LASF155
     /tmp/cciwyjKT.s:3349   .debug_str:000000000000042d .LASF156
     /tmp/cciwyjKT.s:3263   .debug_str:000000000000013d .LASF158
     /tmp/cciwyjKT.s:3271   .debug_str:000000000000017e .LASF159
     /tmp/cciwyjKT.s:3251   .debug_str:00000000000000e7 .LASF160
     /tmp/cciwyjKT.s:3289   .debug_str:0000000000000235 .LASF161
     /tmp/cciwyjKT.s:3465   .debug_str:0000000000000771 .LASF162
     /tmp/cciwyjKT.s:3367   .debug_str:00000000000004a4 .LASF164
     /tmp/cciwyjKT.s:3485   .debug_str:000000000000080d .LASF165
     /tmp/cciwyjKT.s:3497   .debug_str:0000000000000859 .LASF166
     /tmp/cciwyjKT.s:3481   .debug_str:00000000000007f6 .LASF167
     /tmp/cciwyjKT.s:3357   .debug_str:0000000000000466 .LASF168
     /tmp/cciwyjKT.s:3531   .debug_str:000000000000092c .LASF169
     /tmp/cciwyjKT.s:3423   .debug_str:000000000000064f .LASF170
     /tmp/cciwyjKT.s:3247   .debug_str:00000000000000c0 .LASF171
     /tmp/cciwyjKT.s:3353   .debug_str:0000000000000445 .LASF172
     /tmp/cciwyjKT.s:3321   .debug_str:0000000000000333 .LASF173
     /tmp/cciwyjKT.s:3361   .debug_str:0000000000000480 .LASF174
     /tmp/cciwyjKT.s:3419   .debug_str:000000000000060e .LASF175
     /tmp/cciwyjKT.s:3429   .debug_str:000000000000067f .LASF176
     /tmp/cciwyjKT.s:3401   .debug_str:000000000000058c .LASF177
     /tmp/cciwyjKT.s:3331   .debug_str:0000000000000386 .LASF178
     /tmp/cciwyjKT.s:42     .text:0000000000000000 .LFB41
     /tmp/cciwyjKT.s:411    .text:0000000000000330 .LFE41
     /tmp/cciwyjKT.s:3529   .debug_str:0000000000000924 .LASF179
     /tmp/cciwyjKT.s:3655   .debug_str:0000000000000d23 .LASF180
     /tmp/cciwyjKT.s:3133   .debug_loc:0000000000000000 .LLST0
     /tmp/cciwyjKT.s:3483   .debug_str:0000000000000805 .LASF181
     /tmp/cciwyjKT.s:3140   .debug_loc:0000000000000023 .LLST1
     /tmp/cciwyjKT.s:3505   .debug_str:0000000000000894 .LASF182
     /tmp/cciwyjKT.s:3651   .debug_str:0000000000000d0f .LASF183
     /tmp/cciwyjKT.s:3147   .debug_loc:0000000000000046 .LLST2
     /tmp/cciwyjKT.s:288    .text:0000000000000208 .LBB26
     /tmp/cciwyjKT.s:329    .text:0000000000000244 .LBE26
     /tmp/cciwyjKT.s:3313   .debug_str:00000000000002f6 .LASF184
     /tmp/cciwyjKT.s:3154   .debug_loc:0000000000000069 .LLST7
     /tmp/cciwyjKT.s:3545   .debug_str:000000000000098a .LASF185
     /tmp/cciwyjKT.s:3569   .debug_str:0000000000000a1a .LASF217
     /tmp/cciwyjKT.s:3165   .debug_loc:000000000000009f .LLST8
     /tmp/cciwyjKT.s:3223   .debug_str:0000000000000000 .LASF186
     /tmp/cciwyjKT.s:314    .text:0000000000000230 .LBB27
     /tmp/cciwyjKT.s:328    .text:0000000000000244 .LBE27
GAS LISTING /tmp/cciwyjKT.s 			page 24


     /tmp/cciwyjKT.s:3172   .debug_loc:00000000000000c2 .LLST9
     /tmp/cciwyjKT.s:323    .text:0000000000000240 .LVL35
     /tmp/cciwyjKT.s:298    .text:000000000000021c .LVL31
     /tmp/cciwyjKT.s:60     .text:0000000000000018 .LBB16
     /tmp/cciwyjKT.s:110    .text:0000000000000094 .LBE16
     /tmp/cciwyjKT.s:128    .text:00000000000000c0 .LBB18
     /tmp/cciwyjKT.s:140    .text:00000000000000c4 .LBE18
     /tmp/cciwyjKT.s:3179   .debug_loc:00000000000000e5 .LLST3
     /tmp/cciwyjKT.s:142    .text:00000000000000c4 .LBB20
     /tmp/cciwyjKT.s:154    .text:00000000000000cc .LBE20
     /tmp/cciwyjKT.s:3186   .debug_loc:0000000000000108 .LLST4
     /tmp/cciwyjKT.s:212    .text:000000000000015c .LBB22
     /tmp/cciwyjKT.s:220    .text:0000000000000160 .LBE22
     /tmp/cciwyjKT.s:3194   .debug_loc:000000000000012c .LLST5
     /tmp/cciwyjKT.s:226    .text:0000000000000168 .LBB24
     /tmp/cciwyjKT.s:233    .text:000000000000016c .LBE24
     /tmp/cciwyjKT.s:3201   .debug_loc:000000000000014f .LLST6
     /tmp/cciwyjKT.s:116    .text:00000000000000a4 .LVL0
     /tmp/cciwyjKT.s:161    .text:00000000000000e4 .LVL4
     /tmp/cciwyjKT.s:168    .text:00000000000000f8 .LVL6
     /tmp/cciwyjKT.s:173    .text:0000000000000104 .LVL7
     /tmp/cciwyjKT.s:180    .text:000000000000011c .LVL8
     /tmp/cciwyjKT.s:187    .text:0000000000000130 .LVL10
     /tmp/cciwyjKT.s:192    .text:000000000000013c .LVL11
     /tmp/cciwyjKT.s:199    .text:000000000000014c .LVL12
     /tmp/cciwyjKT.s:205    .text:0000000000000158 .LVL13
     /tmp/cciwyjKT.s:240    .text:0000000000000180 .LVL18
     /tmp/cciwyjKT.s:249    .text:000000000000019c .LVL20
     /tmp/cciwyjKT.s:254    .text:00000000000001ac .LVL21
     /tmp/cciwyjKT.s:261    .text:00000000000001c4 .LVL22
     /tmp/cciwyjKT.s:266    .text:00000000000001d0 .LVL23
     /tmp/cciwyjKT.s:273    .text:00000000000001e4 .LVL25
     /tmp/cciwyjKT.s:278    .text:00000000000001f0 .LVL26
     /tmp/cciwyjKT.s:283    .text:0000000000000200 .LVL27
     /tmp/cciwyjKT.s:287    .text:0000000000000208 .LVL28
     /tmp/cciwyjKT.s:334    .text:0000000000000254 .LVL37
     /tmp/cciwyjKT.s:340    .text:0000000000000268 .LVL38
     /tmp/cciwyjKT.s:345    .text:0000000000000278 .LVL39
     /tmp/cciwyjKT.s:350    .text:0000000000000288 .LVL40
     /tmp/cciwyjKT.s:356    .text:000000000000029c .LVL41
     /tmp/cciwyjKT.s:361    .text:00000000000002ac .LVL42
     /tmp/cciwyjKT.s:366    .text:00000000000002bc .LVL43
     /tmp/cciwyjKT.s:372    .text:00000000000002d0 .LVL44
     /tmp/cciwyjKT.s:377    .text:00000000000002e0 .LVL45
     /tmp/cciwyjKT.s:382    .text:00000000000002f0 .LVL46
     /tmp/cciwyjKT.s:388    .text:0000000000000304 .LVL47
     /tmp/cciwyjKT.s:393    .text:0000000000000314 .LVL48
     /tmp/cciwyjKT.s:3611   .debug_str:0000000000000c04 .LASF187
     /tmp/cciwyjKT.s:3409   .debug_str:00000000000005d9 .LASF188
     /tmp/cciwyjKT.s:3329   .debug_str:0000000000000381 .LASF189
     /tmp/cciwyjKT.s:3241   .debug_str:00000000000000a4 .LASF190
     /tmp/cciwyjKT.s:3395   .debug_str:0000000000000550 .LASF218
     /tmp/cciwyjKT.s:3445   .debug_str:0000000000000703 .LASF191
     /tmp/cciwyjKT.s:3317   .debug_str:0000000000000309 .LASF193
     /tmp/cciwyjKT.s:3453   .debug_str:000000000000072c .LASF192
     /tmp/cciwyjKT.s:3231   .debug_str:0000000000000035 .LASF194
     /tmp/cciwyjKT.s:3335   .debug_str:000000000000039b .LASF195
GAS LISTING /tmp/cciwyjKT.s 			page 25


     /tmp/cciwyjKT.s:3605   .debug_str:0000000000000bc7 .LASF197
     /tmp/cciwyjKT.s:3473   .debug_str:00000000000007b1 .LASF196
     /tmp/cciwyjKT.s:3641   .debug_str:0000000000000c98 .LASF198
     /tmp/cciwyjKT.s:3345   .debug_str:0000000000000410 .LASF199
     /tmp/cciwyjKT.s:3479   .debug_str:00000000000007e9 .LASF200
     /tmp/cciwyjKT.s:3587   .debug_str:0000000000000b42 .LASF201
     /tmp/cciwyjKT.s:3499   .debug_str:0000000000000863 .LASF202
     /tmp/cciwyjKT.s:3427   .debug_str:000000000000066a .LASF203
     /tmp/cciwyjKT.s:3495   .debug_str:0000000000000849 .LASF204
     /tmp/cciwyjKT.s:3391   .debug_str:000000000000052d .LASF205
     /tmp/cciwyjKT.s:3535   .debug_str:0000000000000949 .LASF206
     /tmp/cciwyjKT.s:163    .text:00000000000000e8 .LVL5
     /tmp/cciwyjKT.s:182    .text:0000000000000120 .LVL9
     /tmp/cciwyjKT.s:246    .text:0000000000000190 .LVL19
     /tmp/cciwyjKT.s:268    .text:00000000000001d4 .LVL24
     /tmp/cciwyjKT.s:291    .text:000000000000020c .LVL29
     /tmp/cciwyjKT.s:293    .text:0000000000000210 .LVL30
     /tmp/cciwyjKT.s:302    .text:0000000000000220 .LVL32
     /tmp/cciwyjKT.s:307    .text:0000000000000228 .LVL33
     /tmp/cciwyjKT.s:325    .text:0000000000000244 .LVL36
     /tmp/cciwyjKT.s:404    .text:0000000000000324 .LVL49
     /tmp/cciwyjKT.s:313    .text:0000000000000230 .LVL34
     /tmp/cciwyjKT.s:127    .text:00000000000000c0 .LVL1
     /tmp/cciwyjKT.s:137    .text:00000000000000c4 .LVL2
     /tmp/cciwyjKT.s:151    .text:00000000000000cc .LVL3
     /tmp/cciwyjKT.s:211    .text:000000000000015c .LVL14
     /tmp/cciwyjKT.s:218    .text:0000000000000160 .LVL15
     /tmp/cciwyjKT.s:225    .text:0000000000000168 .LVL16
     /tmp/cciwyjKT.s:231    .text:000000000000016c .LVL17
     /tmp/cciwyjKT.s:420    .debug_info:0000000000000000 .Ldebug_info0

UNDEFINED SYMBOLS
HEAP_START_ADDR
_ZN15MemoryAllocator4freeE
_ZN15MemoryAllocator4usedE
HEAP_END_ADDR
_ZN15MemoryAllocator9newCalledE
_ZN15MemoryAllocator14newArrayCalledE
_ZN15MemoryAllocator12deleteCalledE
_ZN15MemoryAllocator17deleteArrayCalledE
_ZN3TCB12createThreadEPFvPvES0_
_ZN3TCB7runningE
_ZN5Riscv16stvecVectorTableEv
_Z11workerBodyAPv
_Z13thread_createPP3TCBPFvPvES2_
_Z11printStringPKc
_Z12printIntegerm
_Z11workerBodyBPv
_Z8sem_openPP11MySemaphorej
_Z15thread_dispatchv
_Z11workerBodyCPv
_Z11workerBodyDPv
_Z8sem_waitP11MySemaphore
_ZdlPv
_ZdaPv
