GAS LISTING /tmp/cciwyjKT.s 			page 1


   1              		.file	"main.cpp"
   2              		.option pic
   3              		.option norelax
   4              		.text
   5              	.Ltext0:
   6              		.section	.rodata.str1.8,"aMS",@progbits,1
   7              		.align	3
   8              	.LC0:
   9 0000 54687265 		.string	"ThreadA created\n"
   9      61644120 
   9      63726561 
   9      7465640A 
   9      00
  10 0011 00000000 		.align	3
  10      000000
  11              	.LC1:
  12 0018 54687265 		.string	"ThreadB created\n"
  12      61644220 
  12      63726561 
  12      7465640A 
  12      00
  13 0029 00000000 		.align	3
  13      000000
  14              	.LC2:
  15 0030 6D61696E 		.string	"main: Pravimo C..."
  15      3A205072 
  15      6176696D 
  15      6F20432E 
  15      2E2E00
  16 0043 00000000 		.align	3
  16      00
  17              	.LC3:
  18 0048 6D61696E 		.string	"main: Pravimo D...."
  18      3A205072 
  18      6176696D 
  18      6F20442E 
  18      2E2E2E00 
  19 005c 00000000 		.align	3
  20              	.LC4:
  21 0060 46696E69 		.string	"Finished\nReturn value: "
  21      73686564 
  21      0A526574 
  21      75726E20 
  21      76616C75 
  22              		.align	3
  23              	.LC5:
  24 0078 0A00     		.string	"\n"
  25 007a 00000000 		.align	3
  25      0000
  26              	.LC6:
  27 0080 4E657720 		.string	"New called: "
  27      63616C6C 
  27      65643A20 
  27      00
  28 008d 000000   		.align	3
  29              	.LC7:
  30 0090 4E65775B 		.string	"New[] called: "
GAS LISTING /tmp/cciwyjKT.s 			page 2


  30      5D206361 
  30      6C6C6564 
  30      3A2000
  31 009f 00       		.align	3
  32              	.LC8:
  33 00a0 44656C65 		.string	"Delete called: "
  33      74652063 
  33      616C6C65 
  33      643A2000 
  34              		.align	3
  35              	.LC9:
  36 00b0 44656C65 		.string	"Delete[] called: "
  36      74655B5D 
  36      2063616C 
  36      6C65643A 
  36      2000
  37              		.text
  38              		.align	2
  39              		.globl	main
  41              	main:
  42              	.LFB41:
  43              		.file 1 "src/main.cpp"
   1:src/main.cpp  **** //
   2:src/main.cpp  **** // Created by marko on 20.4.22..
   3:src/main.cpp  **** //
   4:src/main.cpp  **** 
   5:src/main.cpp  **** #include "../h/tcb.hpp"
   6:src/main.cpp  **** #include "../h/workers.hpp"
   7:src/main.cpp  **** #include "../h/print.hpp"
   8:src/main.cpp  **** #include "../h/riscv.hpp"
   9:src/main.cpp  **** #include "../h/syscall_c.hpp"
  10:src/main.cpp  **** #include "../h/memoryAllocator.hpp"
  11:src/main.cpp  **** 
  12:src/main.cpp  **** int main()
  13:src/main.cpp  **** {
  44              		.loc 1 13 1
  45              		.cfi_startproc
  46 0000 130101FA 		addi	sp,sp,-96
  47              		.cfi_def_cfa_offset 96
  48 0004 233C1104 		sd	ra,88(sp)
  49 0008 23388104 		sd	s0,80(sp)
  50 000c 23349104 		sd	s1,72(sp)
  51 0010 23302105 		sd	s2,64(sp)
  52              		.cfi_offset 1, -8
  53              		.cfi_offset 8, -16
  54              		.cfi_offset 9, -24
  55              		.cfi_offset 18, -32
  56 0014 13040106 		addi	s0,sp,96
  57              		.cfi_def_cfa 8, 0
  14:src/main.cpp  ****     TCB *threads[5];
  58              		.loc 1 14 5
  15:src/main.cpp  **** 
  16:src/main.cpp  ****     MemoryAllocator::initFreeBlock();
  59              		.loc 1 16 5
  60              	.LBB16:
  61              	.LBB17:
  62              		.file 2 "src/../h/memoryAllocator.hpp"
GAS LISTING /tmp/cciwyjKT.s 			page 3


   1:src/../h/memoryAllocator.hpp **** #ifndef memoryAllocator
   2:src/../h/memoryAllocator.hpp **** #define memoryAllocator
   3:src/../h/memoryAllocator.hpp **** 
   4:src/../h/memoryAllocator.hpp **** #include "../lib/hw.h"
   5:src/../h/memoryAllocator.hpp **** 
   6:src/../h/memoryAllocator.hpp **** struct DataBlock {
   7:src/../h/memoryAllocator.hpp ****     DataBlock* next;
   8:src/../h/memoryAllocator.hpp ****     DataBlock* prev;
   9:src/../h/memoryAllocator.hpp ****     size_t size;
  10:src/../h/memoryAllocator.hpp **** };
  11:src/../h/memoryAllocator.hpp **** 
  12:src/../h/memoryAllocator.hpp **** class MemoryAllocator {
  13:src/../h/memoryAllocator.hpp **** public:
  14:src/../h/memoryAllocator.hpp ****     static DataBlock* free;
  15:src/../h/memoryAllocator.hpp ****     static DataBlock* used;
  16:src/../h/memoryAllocator.hpp **** 
  17:src/../h/memoryAllocator.hpp ****     static int newCalled;
  18:src/../h/memoryAllocator.hpp ****     static int newArrayCalled;
  19:src/../h/memoryAllocator.hpp ****     static int deleteCalled;
  20:src/../h/memoryAllocator.hpp ****     static int deleteArrayCalled;
  21:src/../h/memoryAllocator.hpp **** 
  22:src/../h/memoryAllocator.hpp ****     static void* mem_alloc(size_t size);
  23:src/../h/memoryAllocator.hpp **** 
  24:src/../h/memoryAllocator.hpp ****     static int mem_free (void* ptr);
  25:src/../h/memoryAllocator.hpp **** 
  26:src/../h/memoryAllocator.hpp ****     static void tryToJoin(DataBlock* curr);
  27:src/../h/memoryAllocator.hpp **** 
  28:src/../h/memoryAllocator.hpp ****     static void initFreeBlock() {
  29:src/../h/memoryAllocator.hpp **** 
  30:src/../h/memoryAllocator.hpp ****         MemoryAllocator::free = (DataBlock*)((char*)HEAP_START_ADDR);
  63              		.loc 2 30 9
  64              		.loc 2 30 31 is_stmt 0
  65 0018 97070000 		la	a5,HEAP_START_ADDR
  65      83B70700 
  66 0020 83B60700 		ld	a3,0(a5)
  67 0024 17070000 		la	a4,_ZN15MemoryAllocator4freeE
  67      03370700 
  68 002c 2330D700 		sd	a3,0(a4)
  31:src/../h/memoryAllocator.hpp ****         used = nullptr;
  69              		.loc 2 31 9 is_stmt 1
  70              		.loc 2 31 14 is_stmt 0
  71 0030 17060000 		la	a2,_ZN15MemoryAllocator4usedE
  71      03360600 
  72 0038 23300600 		sd	zero,0(a2)
  32:src/../h/memoryAllocator.hpp **** 
  33:src/../h/memoryAllocator.hpp ****         free->next = nullptr;
  73              		.loc 2 33 9 is_stmt 1
  74              		.loc 2 33 20 is_stmt 0
  75 003c 23B00600 		sd	zero,0(a3)
  34:src/../h/memoryAllocator.hpp ****         free->prev  = nullptr;
  76              		.loc 2 34 9 is_stmt 1
  77              		.loc 2 34 15 is_stmt 0
  78 0040 03370700 		ld	a4,0(a4)
  79              		.loc 2 34 21
  80 0044 23340700 		sd	zero,8(a4)
  35:src/../h/memoryAllocator.hpp ****         free->size = ((char*)HEAP_START_ADDR - (char*)HEAP_END_ADDR - sizeof(DataBlock)); //FOR NOW
  81              		.loc 2 35 9 is_stmt 1
GAS LISTING /tmp/cciwyjKT.s 			page 4


  82              		.loc 2 35 23 is_stmt 0
  83 0048 83B70700 		ld	a5,0(a5)
  84              		.loc 2 35 48
  85 004c 97060000 		la	a3,HEAP_END_ADDR
  85      83B60600 
  86 0054 83B60600 		ld	a3,0(a3)
  87              		.loc 2 35 46
  88 0058 B387D740 		sub	a5,a5,a3
  89              		.loc 2 35 69
  90 005c 938787FE 		addi	a5,a5,-24
  91              		.loc 2 35 20
  92 0060 2338F700 		sd	a5,16(a4)
  36:src/../h/memoryAllocator.hpp **** 
  37:src/../h/memoryAllocator.hpp **** 
  38:src/../h/memoryAllocator.hpp ****         //testing purposes
  39:src/../h/memoryAllocator.hpp ****         newCalled = 0;
  93              		.loc 2 39 9 is_stmt 1
  94              		.loc 2 39 19 is_stmt 0
  95 0064 97070000 		la	a5,_ZN15MemoryAllocator9newCalledE
  95      83B70700 
  96 006c 23A00700 		sw	zero,0(a5)
  40:src/../h/memoryAllocator.hpp ****         newArrayCalled = 0;
  97              		.loc 2 40 9 is_stmt 1
  98              		.loc 2 40 24 is_stmt 0
  99 0070 97070000 		la	a5,_ZN15MemoryAllocator14newArrayCalledE
  99      83B70700 
 100 0078 23A00700 		sw	zero,0(a5)
  41:src/../h/memoryAllocator.hpp ****         deleteCalled= 0;
 101              		.loc 2 41 9 is_stmt 1
 102              		.loc 2 41 21 is_stmt 0
 103 007c 97070000 		la	a5,_ZN15MemoryAllocator12deleteCalledE
 103      83B70700 
 104 0084 23A00700 		sw	zero,0(a5)
  42:src/../h/memoryAllocator.hpp ****         deleteArrayCalled = 0;
 105              		.loc 2 42 9 is_stmt 1
 106              		.loc 2 42 27 is_stmt 0
 107 0088 97070000 		la	a5,_ZN15MemoryAllocator17deleteArrayCalledE
 107      83B70700 
 108 0090 23A00700 		sw	zero,0(a5)
 109              	.LBE17:
 110              	.LBE16:
  17:src/main.cpp  **** 
  18:src/main.cpp  ****     threads[0] = TCB::createThread(nullptr,nullptr);
 111              		.loc 1 18 5 is_stmt 1
 112              		.loc 1 18 35 is_stmt 0
 113 0094 93050000 		li	a1,0
 114 0098 13050000 		li	a0,0
 115 009c 97000000 		call	_ZN3TCB12createThreadEPFvPvES0_@plt
 115      E7800000 
 116              	.LVL0:
 117              		.loc 1 18 16
 118 00a4 233CA4FA 		sd	a0,-72(s0)
  19:src/main.cpp  ****     TCB::running = threads[0];
 119              		.loc 1 19 5 is_stmt 1
 120              		.loc 1 19 18 is_stmt 0
 121 00a8 97070000 		la	a5,_ZN3TCB7runningE
 121      83B70700 
GAS LISTING /tmp/cciwyjKT.s 			page 5


 122 00b0 23B0A700 		sd	a0,0(a5)
  20:src/main.cpp  **** 
  21:src/main.cpp  ****     Riscv::w_stvec((uint64) &Riscv::stvecVectorTable | 0b01);
 123              		.loc 1 21 5 is_stmt 1
 124              		.loc 1 21 19 is_stmt 0
 125 00b4 97070000 		la	a5,_ZN5Riscv16stvecVectorTableEv
 125      83B70700 
 126 00bc 93E71700 		ori	a5,a5,1
 127              	.LVL1:
 128              	.LBB18:
 129              	.LBB19:
 130              		.file 3 "src/../h/riscv.hpp"
   1:src/../h/riscv.hpp **** //
   2:src/../h/riscv.hpp **** // Created by marko on 20.4.22..
   3:src/../h/riscv.hpp **** //
   4:src/../h/riscv.hpp **** 
   5:src/../h/riscv.hpp **** #ifndef OS1_VEZBE07_RISCV_CONTEXT_SWITCH_2_INTERRUPT_RISCV_HPP
   6:src/../h/riscv.hpp **** #define OS1_VEZBE07_RISCV_CONTEXT_SWITCH_2_INTERRUPT_RISCV_HPP
   7:src/../h/riscv.hpp **** 
   8:src/../h/riscv.hpp **** #include "../lib/hw.h"
   9:src/../h/riscv.hpp **** 
  10:src/../h/riscv.hpp **** class Riscv
  11:src/../h/riscv.hpp **** {
  12:src/../h/riscv.hpp **** public:
  13:src/../h/riscv.hpp **** 
  14:src/../h/riscv.hpp ****     // pop sstatus.spp and sstatus.spie bits (has to be a non inline function)
  15:src/../h/riscv.hpp ****     static void popSppSpie();
  16:src/../h/riscv.hpp **** 
  17:src/../h/riscv.hpp ****     // read register scause
  18:src/../h/riscv.hpp ****     static uint64 r_scause();
  19:src/../h/riscv.hpp **** 
  20:src/../h/riscv.hpp ****     // write register scause
  21:src/../h/riscv.hpp ****     static void w_scause(uint64 scause);
  22:src/../h/riscv.hpp **** 
  23:src/../h/riscv.hpp ****     // read register sepc
  24:src/../h/riscv.hpp ****     static uint64 r_sepc();
  25:src/../h/riscv.hpp **** 
  26:src/../h/riscv.hpp ****     // write register sepc
  27:src/../h/riscv.hpp ****     static void w_sepc(uint64 sepc);
  28:src/../h/riscv.hpp **** 
  29:src/../h/riscv.hpp ****     // read register stvec
  30:src/../h/riscv.hpp ****     static uint64 r_stvec();
  31:src/../h/riscv.hpp **** 
  32:src/../h/riscv.hpp ****     // write register stvec
  33:src/../h/riscv.hpp ****     static void w_stvec(uint64 stvec);
  34:src/../h/riscv.hpp **** 
  35:src/../h/riscv.hpp ****     // read register stval
  36:src/../h/riscv.hpp ****     static uint64 r_stval();
  37:src/../h/riscv.hpp **** 
  38:src/../h/riscv.hpp ****     // write register stval
  39:src/../h/riscv.hpp ****     static void w_stval(uint64 stval);
  40:src/../h/riscv.hpp **** 
  41:src/../h/riscv.hpp ****     enum BitMaskSip
  42:src/../h/riscv.hpp ****     {
  43:src/../h/riscv.hpp ****         SIP_SSIP = (1 << 1),
  44:src/../h/riscv.hpp ****         SIP_STIP = (1 << 5),
  45:src/../h/riscv.hpp ****         SIP_SEIP = (1 << 9),
GAS LISTING /tmp/cciwyjKT.s 			page 6


  46:src/../h/riscv.hpp ****     };
  47:src/../h/riscv.hpp **** 
  48:src/../h/riscv.hpp ****     // mask set register sip
  49:src/../h/riscv.hpp ****     static void ms_sip(uint64 mask);
  50:src/../h/riscv.hpp **** 
  51:src/../h/riscv.hpp ****     // mask clear register sip
  52:src/../h/riscv.hpp ****     static void mc_sip(uint64 mask);
  53:src/../h/riscv.hpp **** 
  54:src/../h/riscv.hpp ****     // read register sip
  55:src/../h/riscv.hpp ****     static uint64 r_sip();
  56:src/../h/riscv.hpp **** 
  57:src/../h/riscv.hpp ****     // write register sip
  58:src/../h/riscv.hpp ****     static void w_sip(uint64 sip);
  59:src/../h/riscv.hpp **** 
  60:src/../h/riscv.hpp ****     enum BitMaskSstatus
  61:src/../h/riscv.hpp ****     {
  62:src/../h/riscv.hpp ****         SSTATUS_SIE = (1 << 1),
  63:src/../h/riscv.hpp ****         SSTATUS_SPIE = (1 << 5),
  64:src/../h/riscv.hpp ****         SSTATUS_SPP = (1 << 8),
  65:src/../h/riscv.hpp ****     };
  66:src/../h/riscv.hpp **** 
  67:src/../h/riscv.hpp ****     // mask set register sstatus
  68:src/../h/riscv.hpp ****     static void ms_sstatus(uint64 mask);
  69:src/../h/riscv.hpp **** 
  70:src/../h/riscv.hpp ****     // mask clear register sstatus
  71:src/../h/riscv.hpp ****     static void mc_sstatus(uint64 mask);
  72:src/../h/riscv.hpp **** 
  73:src/../h/riscv.hpp ****     // read register sstatus
  74:src/../h/riscv.hpp ****     static uint64 r_sstatus();
  75:src/../h/riscv.hpp **** 
  76:src/../h/riscv.hpp ****     // write register sstatus
  77:src/../h/riscv.hpp ****     static void w_sstatus(uint64 sstatus);
  78:src/../h/riscv.hpp **** 
  79:src/../h/riscv.hpp ****     // supervisor trap
  80:src/../h/riscv.hpp ****     static void supervisorTrap();
  81:src/../h/riscv.hpp **** 
  82:src/../h/riscv.hpp ****     //stvec Vector "table"
  83:src/../h/riscv.hpp ****     static void stvecVectorTable();
  84:src/../h/riscv.hpp **** 
  85:src/../h/riscv.hpp ****     //read a0 register
  86:src/../h/riscv.hpp ****     static uint64 r_a0();
  87:src/../h/riscv.hpp **** 
  88:src/../h/riscv.hpp ****     //write to a0 register
  89:src/../h/riscv.hpp ****     static void w_a0(uint64 writeValue);
  90:src/../h/riscv.hpp **** 
  91:src/../h/riscv.hpp ****     //read a1 register
  92:src/../h/riscv.hpp ****     static uint64 r_a1();
  93:src/../h/riscv.hpp **** 
  94:src/../h/riscv.hpp ****     //write to a1 register
  95:src/../h/riscv.hpp ****     static void w_a1(uint64 writeValue);
  96:src/../h/riscv.hpp **** 
  97:src/../h/riscv.hpp ****     //read a2 register
  98:src/../h/riscv.hpp ****     static uint64 r_a2();
  99:src/../h/riscv.hpp **** 
 100:src/../h/riscv.hpp ****     //write to a2 register
 101:src/../h/riscv.hpp ****     static void w_a2(uint64 writeValue);
 102:src/../h/riscv.hpp **** 
GAS LISTING /tmp/cciwyjKT.s 			page 7


 103:src/../h/riscv.hpp ****     //read a3 register
 104:src/../h/riscv.hpp ****     static uint64 r_a3();
 105:src/../h/riscv.hpp **** 
 106:src/../h/riscv.hpp ****     //write to a3 register
 107:src/../h/riscv.hpp ****     static void w_a3(uint64 writeValue);
 108:src/../h/riscv.hpp **** 
 109:src/../h/riscv.hpp ****     //read a4 register
 110:src/../h/riscv.hpp ****     static uint64 r_a4();
 111:src/../h/riscv.hpp **** 
 112:src/../h/riscv.hpp ****     //write to a4 register
 113:src/../h/riscv.hpp ****     static void w_a4(uint64 writeValue);
 114:src/../h/riscv.hpp **** 
 115:src/../h/riscv.hpp ****     //read a5 register
 116:src/../h/riscv.hpp ****     static uint64 r_a5();
 117:src/../h/riscv.hpp **** 
 118:src/../h/riscv.hpp ****     //write to a5 register
 119:src/../h/riscv.hpp ****     static void w_a5(uint64 writeValue);
 120:src/../h/riscv.hpp **** 
 121:src/../h/riscv.hpp ****     //read a6 register
 122:src/../h/riscv.hpp ****     static uint64 r_a6();
 123:src/../h/riscv.hpp **** 
 124:src/../h/riscv.hpp ****     //write to a6 register
 125:src/../h/riscv.hpp ****     static void w_a6(uint64 writeValue);
 126:src/../h/riscv.hpp **** 
 127:src/../h/riscv.hpp ****     //read a7 register
 128:src/../h/riscv.hpp ****     static uint64 r_a7();
 129:src/../h/riscv.hpp **** 
 130:src/../h/riscv.hpp ****     //write to a7 register
 131:src/../h/riscv.hpp ****     static void w_a7(uint64 writeValue);
 132:src/../h/riscv.hpp **** 
 133:src/../h/riscv.hpp **** 
 134:src/../h/riscv.hpp **** private:
 135:src/../h/riscv.hpp **** 
 136:src/../h/riscv.hpp ****     // supervisor trap handler
 137:src/../h/riscv.hpp ****     static void handleSupervisorTrap();
 138:src/../h/riscv.hpp **** 
 139:src/../h/riscv.hpp ****     static void handleTimerInterrupt();
 140:src/../h/riscv.hpp **** 
 141:src/../h/riscv.hpp ****     static void handleConsoleInterrupt();
 142:src/../h/riscv.hpp **** };
 143:src/../h/riscv.hpp **** 
 144:src/../h/riscv.hpp **** 
 145:src/../h/riscv.hpp **** inline uint64 Riscv::r_scause()
 146:src/../h/riscv.hpp **** {
 147:src/../h/riscv.hpp ****     uint64 volatile scause;
 148:src/../h/riscv.hpp ****     __asm__ volatile ("csrr %[scause], scause" : [scause] "=r"(scause));
 149:src/../h/riscv.hpp ****     return scause;
 150:src/../h/riscv.hpp **** }
 151:src/../h/riscv.hpp **** 
 152:src/../h/riscv.hpp **** inline void Riscv::w_scause(uint64 scause)
 153:src/../h/riscv.hpp **** {
 154:src/../h/riscv.hpp ****     __asm__ volatile ("csrw scause, %[scause]" : : [scause] "r"(scause));
 155:src/../h/riscv.hpp **** }
 156:src/../h/riscv.hpp **** 
 157:src/../h/riscv.hpp **** inline uint64 Riscv::r_sepc()
 158:src/../h/riscv.hpp **** {
 159:src/../h/riscv.hpp ****     uint64 volatile sepc;
GAS LISTING /tmp/cciwyjKT.s 			page 8


 160:src/../h/riscv.hpp ****     __asm__ volatile ("csrr %[sepc], sepc" : [sepc] "=r"(sepc));
 161:src/../h/riscv.hpp ****     return sepc;
 162:src/../h/riscv.hpp **** }
 163:src/../h/riscv.hpp **** 
 164:src/../h/riscv.hpp **** inline void Riscv::w_sepc(uint64 sepc)
 165:src/../h/riscv.hpp **** {
 166:src/../h/riscv.hpp ****     __asm__ volatile ("csrw sepc, %[sepc]" : : [sepc] "r"(sepc));
 167:src/../h/riscv.hpp **** }
 168:src/../h/riscv.hpp **** 
 169:src/../h/riscv.hpp **** inline uint64 Riscv::r_stvec()
 170:src/../h/riscv.hpp **** {
 171:src/../h/riscv.hpp ****     uint64 volatile stvec;
 172:src/../h/riscv.hpp ****     __asm__ volatile ("csrr %[stvec], stvec" : [stvec] "=r"(stvec));
 173:src/../h/riscv.hpp ****     return stvec;
 174:src/../h/riscv.hpp **** }
 175:src/../h/riscv.hpp **** 
 176:src/../h/riscv.hpp **** inline void Riscv::w_stvec(uint64 stvec)
 177:src/../h/riscv.hpp **** {
 178:src/../h/riscv.hpp ****     __asm__ volatile ("csrw stvec, %[stvec]" : : [stvec] "r"(stvec));
 131              		.loc 3 178 5 is_stmt 1
 132              		.loc 3 178 69 is_stmt 0
 133              	#APP
 134              	# 178 "src/../h/riscv.hpp" 1
 179              	}
 135              		csrw stvec, a5
 136              	# 0 "" 2
 137              	.LVL2:
 138              	#NO_APP
 139              	.LBE19:
 140              	.LBE18:
  22:src/main.cpp  ****     Riscv::ms_sstatus(Riscv::SSTATUS_SIE);
 141              		.loc 1 22 5 is_stmt 1
 142              	.LBB20:
 143              	.LBB21:
 180:src/../h/riscv.hpp **** 
 181:src/../h/riscv.hpp **** inline uint64 Riscv::r_stval()
 182:src/../h/riscv.hpp **** {
 183:src/../h/riscv.hpp ****     uint64 volatile stval;
 184:src/../h/riscv.hpp ****     __asm__ volatile ("csrr %[stval], stval" : [stval] "=r"(stval));
 185:src/../h/riscv.hpp ****     return stval;
 186:src/../h/riscv.hpp **** }
 187:src/../h/riscv.hpp **** 
 188:src/../h/riscv.hpp **** inline void Riscv::w_stval(uint64 stval)
 189:src/../h/riscv.hpp **** {
 190:src/../h/riscv.hpp ****     __asm__ volatile ("csrw stval, %[stval]" : : [stval] "r"(stval));
 191:src/../h/riscv.hpp **** }
 192:src/../h/riscv.hpp **** 
 193:src/../h/riscv.hpp **** inline void Riscv::ms_sip(uint64 mask)
 194:src/../h/riscv.hpp **** {
 195:src/../h/riscv.hpp ****     __asm__ volatile ("csrs sip, %[mask]" : : [mask] "r"(mask));
 196:src/../h/riscv.hpp **** }
 197:src/../h/riscv.hpp **** 
 198:src/../h/riscv.hpp **** inline void Riscv::mc_sip(uint64 mask)
 199:src/../h/riscv.hpp **** {
 200:src/../h/riscv.hpp ****     __asm__ volatile ("csrc sip, %[mask]" : : [mask] "r"(mask));
 201:src/../h/riscv.hpp **** }
 202:src/../h/riscv.hpp **** 
GAS LISTING /tmp/cciwyjKT.s 			page 9


 203:src/../h/riscv.hpp **** inline uint64 Riscv::r_sip()
 204:src/../h/riscv.hpp **** {
 205:src/../h/riscv.hpp ****     uint64 volatile sip;
 206:src/../h/riscv.hpp ****     __asm__ volatile ("csrr %[sip], sip" : [sip] "=r"(sip));
 207:src/../h/riscv.hpp ****     return sip;
 208:src/../h/riscv.hpp **** }
 209:src/../h/riscv.hpp **** 
 210:src/../h/riscv.hpp **** inline void Riscv::w_sip(uint64 sip)
 211:src/../h/riscv.hpp **** {
 212:src/../h/riscv.hpp ****     __asm__ volatile ("csrw sip, %[sip]" : : [sip] "r"(sip));
 213:src/../h/riscv.hpp **** }
 214:src/../h/riscv.hpp **** 
 215:src/../h/riscv.hpp **** inline void Riscv::ms_sstatus(uint64 mask)
 216:src/../h/riscv.hpp **** {
 217:src/../h/riscv.hpp ****     __asm__ volatile ("csrs sstatus, %[mask]" : : [mask] "r"(mask));
 144              		.loc 3 217 5
 145              		.loc 3 217 68 is_stmt 0
 146 00c4 93072000 		li	a5,2
 147              	#APP
 148              	# 217 "src/../h/riscv.hpp" 1
 218              	}
 149              		csrs sstatus, a5
 150              	# 0 "" 2
 151              	.LVL3:
 152              	#NO_APP
 153              	.LBE21:
 154              	.LBE20:
  23:src/main.cpp  **** 
  24:src/main.cpp  ****     int return1 = thread_create(&threads[1], workerBodyA, nullptr);
 155              		.loc 1 24 5 is_stmt 1
 156              		.loc 1 24 32 is_stmt 0
 157 00cc 13060000 		li	a2,0
 158 00d0 97050000 		la	a1,_Z11workerBodyAPv
 158      83B50500 
 159 00d8 130504FC 		addi	a0,s0,-64
 160 00dc 97000000 		call	_Z13thread_createPP3TCBPFvPvES2_@plt
 160      E7800000 
 161              	.LVL4:
 162 00e4 93040500 		mv	s1,a0
 163              	.LVL5:
  25:src/main.cpp  ****     printString("ThreadA created\n");
 164              		.loc 1 25 5 is_stmt 1
 165              		.loc 1 25 16 is_stmt 0
 166 00e8 17050000 		lla	a0,.LC0
 166      13050500 
 167 00f0 97000000 		call	_Z11printStringPKc@plt
 167      E7800000 
 168              	.LVL6:
  26:src/main.cpp  ****     printInteger(return1);
 169              		.loc 1 26 5 is_stmt 1
 170              		.loc 1 26 17 is_stmt 0
 171 00f8 13850400 		mv	a0,s1
 172 00fc 97000000 		call	_Z12printIntegerm@plt
 172      E7800000 
 173              	.LVL7:
  27:src/main.cpp  ****     int return2 = thread_create(&threads[2], workerBodyB, threads[1]);
 174              		.loc 1 27 5 is_stmt 1
GAS LISTING /tmp/cciwyjKT.s 			page 10


 175              		.loc 1 27 32 is_stmt 0
 176 0104 033604FC 		ld	a2,-64(s0)
 177 0108 97050000 		la	a1,_Z11workerBodyBPv
 177      83B50500 
 178 0110 130584FC 		addi	a0,s0,-56
 179 0114 97000000 		call	_Z13thread_createPP3TCBPFvPvES2_@plt
 179      E7800000 
 180              	.LVL8:
 181 011c 93040500 		mv	s1,a0
 182              	.LVL9:
  28:src/main.cpp  ****     printString("ThreadB created\n");
 183              		.loc 1 28 5 is_stmt 1
 184              		.loc 1 28 16 is_stmt 0
 185 0120 17050000 		lla	a0,.LC1
 185      13050500 
 186 0128 97000000 		call	_Z11printStringPKc@plt
 186      E7800000 
 187              	.LVL10:
  29:src/main.cpp  ****     printInteger(return2);
 188              		.loc 1 29 5 is_stmt 1
 189              		.loc 1 29 17 is_stmt 0
 190 0130 13850400 		mv	a0,s1
 191 0134 97000000 		call	_Z12printIntegerm@plt
 191      E7800000 
 192              	.LVL11:
  30:src/main.cpp  **** 
  31:src/main.cpp  ****     MySemaphore* semaphore[2];
 193              		.loc 1 31 5 is_stmt 1
  32:src/main.cpp  ****     sem_open(&semaphore[0], 0);
 194              		.loc 1 32 5
 195              		.loc 1 32 13 is_stmt 0
 196 013c 93050000 		li	a1,0
 197 0140 130584FA 		addi	a0,s0,-88
 198 0144 97000000 		call	_Z8sem_openPP11MySemaphorej@plt
 198      E7800000 
 199              	.LVL12:
 200 014c 6F00C000 		j	.L4
 201              	.L2:
  33:src/main.cpp  **** 
  34:src/main.cpp  ****     while (!(threads[1]->isFinished() &&
  35:src/main.cpp  ****              threads[2]->isFinished()))
  36:src/main.cpp  ****     {
  37:src/main.cpp  ****         thread_dispatch();
 202              		.loc 1 37 9 is_stmt 1 discriminator 3
 203              		.loc 1 37 24 is_stmt 0 discriminator 3
 204 0150 97000000 		call	_Z15thread_dispatchv@plt
 204      E7800000 
 205              	.LVL13:
 206              	.L4:
  34:src/main.cpp  ****              threads[2]->isFinished()))
 207              		.loc 1 34 5 is_stmt 1
  34:src/main.cpp  ****              threads[2]->isFinished()))
 208              		.loc 1 34 12
  34:src/main.cpp  ****              threads[2]->isFinished()))
 209              		.loc 1 34 23 is_stmt 0
 210 0158 833704FC 		ld	a5,-64(s0)
 211              	.LVL14:
GAS LISTING /tmp/cciwyjKT.s 			page 11


 212              	.LBB22:
 213              	.LBB23:
 214              		.file 4 "src/../h/tcb.hpp"
   1:src/../h/tcb.hpp **** //
   2:src/../h/tcb.hpp **** // Created by marko on 20.4.22..
   3:src/../h/tcb.hpp **** //
   4:src/../h/tcb.hpp **** 
   5:src/../h/tcb.hpp **** #ifndef OS1_VEZBE07_RISCV_CONTEXT_SWITCH_2_INTERRUPT_TCB_HPP
   6:src/../h/tcb.hpp **** #define OS1_VEZBE07_RISCV_CONTEXT_SWITCH_2_INTERRUPT_TCB_HPP
   7:src/../h/tcb.hpp **** 
   8:src/../h/tcb.hpp **** #include "../lib/hw.h"
   9:src/../h/tcb.hpp **** #include "scheduler.hpp"
  10:src/../h/tcb.hpp **** 
  11:src/../h/tcb.hpp **** // Thread Control Block
  12:src/../h/tcb.hpp **** class TCB
  13:src/../h/tcb.hpp **** {
  14:src/../h/tcb.hpp **** public:
  15:src/../h/tcb.hpp ****     ~TCB() { delete[] stack; }
  16:src/../h/tcb.hpp **** 
  17:src/../h/tcb.hpp ****     bool isFinished() const { return finished; }
 215              		.loc 4 17 31 is_stmt 1
 216              		.loc 4 17 38 is_stmt 0
 217 015c 83C70702 		lbu	a5,32(a5)
 218              	.LVL15:
 219              	.LBE23:
 220              	.LBE22:
  34:src/main.cpp  ****              threads[2]->isFinished()))
 221              		.loc 1 34 12
 222 0160 E38807FE 		beqz	a5,.L2
  35:src/main.cpp  ****     {
 223              		.loc 1 35 23 discriminator 2
 224 0164 833784FC 		ld	a5,-56(s0)
 225              	.LVL16:
 226              	.LBB24:
 227              	.LBB25:
 228              		.loc 4 17 31 is_stmt 1 discriminator 2
 229              		.loc 4 17 38 is_stmt 0 discriminator 2
 230 0168 83C70702 		lbu	a5,32(a5)
 231              	.LVL17:
 232              	.LBE25:
 233              	.LBE24:
  34:src/main.cpp  ****              threads[2]->isFinished()))
 234              		.loc 1 34 12 discriminator 2
 235 016c E38207FE 		beqz	a5,.L2
  38:src/main.cpp  ****     }
  39:src/main.cpp  **** 
  40:src/main.cpp  **** 
  41:src/main.cpp  ****     printString("main: Pravimo C...");
 236              		.loc 1 41 5 is_stmt 1
 237              		.loc 1 41 16 is_stmt 0
 238 0170 17050000 		lla	a0,.LC2
 238      13050500 
 239 0178 97000000 		call	_Z11printStringPKc@plt
 239      E7800000 
 240              	.LVL18:
  42:src/main.cpp  ****     thread_create(&threads[3], workerBodyC, semaphore[0]);
 241              		.loc 1 42 5 is_stmt 1
GAS LISTING /tmp/cciwyjKT.s 			page 12


 242              		.loc 1 42 18 is_stmt 0
 243 0180 033684FA 		ld	a2,-88(s0)
 244 0184 97050000 		la	a1,_Z11workerBodyCPv
 244      83B50500 
 245 018c 930404FD 		addi	s1,s0,-48
 246              	.LVL19:
 247 0190 13850400 		mv	a0,s1
 248 0194 97000000 		call	_Z13thread_createPP3TCBPFvPvES2_@plt
 248      E7800000 
 249              	.LVL20:
  43:src/main.cpp  ****     printString("main: Pravimo D....");
 250              		.loc 1 43 5 is_stmt 1
 251              		.loc 1 43 16 is_stmt 0
 252 019c 17050000 		lla	a0,.LC3
 252      13050500 
 253 01a4 97000000 		call	_Z11printStringPKc@plt
 253      E7800000 
 254              	.LVL21:
  44:src/main.cpp  ****     thread_create(&threads[3], workerBodyD, semaphore[0]);
 255              		.loc 1 44 5 is_stmt 1
 256              		.loc 1 44 18 is_stmt 0
 257 01ac 033684FA 		ld	a2,-88(s0)
 258 01b0 97050000 		la	a1,_Z11workerBodyDPv
 258      83B50500 
 259 01b8 13850400 		mv	a0,s1
 260 01bc 97000000 		call	_Z13thread_createPP3TCBPFvPvES2_@plt
 260      E7800000 
 261              	.LVL22:
  45:src/main.cpp  ****     //thread_dispatch();
  46:src/main.cpp  ****     int returnValue = sem_wait(semaphore[0]);
 262              		.loc 1 46 5 is_stmt 1
 263              		.loc 1 46 31 is_stmt 0
 264 01c4 033584FA 		ld	a0,-88(s0)
 265 01c8 97000000 		call	_Z8sem_waitP11MySemaphore@plt
 265      E7800000 
 266              	.LVL23:
 267 01d0 93040500 		mv	s1,a0
 268              	.LVL24:
  47:src/main.cpp  **** 
  48:src/main.cpp  ****     printString("Finished\nReturn value: ");
 269              		.loc 1 48 5 is_stmt 1
 270              		.loc 1 48 16 is_stmt 0
 271 01d4 17050000 		lla	a0,.LC4
 271      13050500 
 272 01dc 97000000 		call	_Z11printStringPKc@plt
 272      E7800000 
 273              	.LVL25:
  49:src/main.cpp  ****     printInteger(returnValue);
 274              		.loc 1 49 5 is_stmt 1
 275              		.loc 1 49 17 is_stmt 0
 276 01e4 13850400 		mv	a0,s1
 277 01e8 97000000 		call	_Z12printIntegerm@plt
 277      E7800000 
 278              	.LVL26:
  50:src/main.cpp  ****     printString("\n");
 279              		.loc 1 50 5 is_stmt 1
 280              		.loc 1 50 16 is_stmt 0
GAS LISTING /tmp/cciwyjKT.s 			page 13


 281 01f0 17050000 		lla	a0,.LC5
 281      13050500 
 282 01f8 97000000 		call	_Z11printStringPKc@plt
 282      E7800000 
 283              	.LVL27:
  51:src/main.cpp  **** 
  52:src/main.cpp  ****     thread_dispatch();
 284              		.loc 1 52 5 is_stmt 1
 285              		.loc 1 52 20 is_stmt 0
 286 0200 97000000 		call	_Z15thread_dispatchv@plt
 286      E7800000 
 287              	.LVL28:
 288              	.LBB26:
  53:src/main.cpp  ****     for (auto &thread: threads) {
 289              		.loc 1 53 24
 290 0208 930484FB 		addi	s1,s0,-72
 291              	.LVL29:
 292 020c 6F004001 		j	.L8
 293              	.LVL30:
 294              	.L7:
  54:src/main.cpp  ****         delete thread;
 295              		.loc 1 54 16
 296 0210 13050900 		mv	a0,s2
 297 0214 97000000 		call	_ZdlPv@plt
 297      E7800000 
 298              	.LVL31:
 299              	.L6:
  53:src/main.cpp  ****     for (auto &thread: threads) {
 300              		.loc 1 53 5 is_stmt 1 discriminator 3
 301 021c 93848400 		addi	s1,s1,8
 302              	.LVL32:
 303              	.L8:
  53:src/main.cpp  ****     for (auto &thread: threads) {
 304              		.loc 1 53 24 discriminator 1
 305 0220 930704FE 		addi	a5,s0,-32
 306 0224 6380F402 		beq	s1,a5,.L5
 307              	.LVL33:
 308              		.loc 1 54 9 discriminator 2
 309              		.loc 1 54 16 is_stmt 0 discriminator 2
 310 0228 03B90400 		ld	s2,0(s1)
 311              		.loc 1 54 22 discriminator 2
 312 022c E30809FE 		beqz	s2,.L6
 313              	.LVL34:
 314              	.LBB27:
 315              	.LBB28:
  15:src/../h/tcb.hpp **** 
 316              		.loc 4 15 14 is_stmt 1
  15:src/../h/tcb.hpp **** 
 317              		.loc 4 15 23 is_stmt 0
 318 0230 03358900 		ld	a0,8(s2)
  15:src/../h/tcb.hpp **** 
 319              		.loc 4 15 28
 320 0234 E30E05FC 		beqz	a0,.L7
  15:src/../h/tcb.hpp **** 
 321              		.loc 4 15 23
 322 0238 97000000 		call	_ZdaPv@plt
 322      E7800000 
GAS LISTING /tmp/cciwyjKT.s 			page 14


 323              	.LVL35:
 324 0240 6FF01FFD 		j	.L7
 325              	.LVL36:
 326              	.L5:
 327              	.LBE28:
 328              	.LBE27:
 329              	.LBE26:
  55:src/main.cpp  ****     }
  56:src/main.cpp  **** 
  57:src/main.cpp  **** 
  58:src/main.cpp  ****     //Testing
  59:src/main.cpp  ****     printString("New called: ");
 330              		.loc 1 59 5 is_stmt 1
 331              		.loc 1 59 16 is_stmt 0
 332 0244 17050000 		lla	a0,.LC6
 332      13050500 
 333 024c 97000000 		call	_Z11printStringPKc@plt
 333      E7800000 
 334              	.LVL37:
  60:src/main.cpp  ****     printInteger(MemoryAllocator::newCalled);
 335              		.loc 1 60 5 is_stmt 1
 336              		.loc 1 60 17 is_stmt 0
 337 0254 97070000 		la	a5,_ZN15MemoryAllocator9newCalledE
 337      83B70700 
 338 025c 03A50700 		lw	a0,0(a5)
 339 0260 97000000 		call	_Z12printIntegerm@plt
 339      E7800000 
 340              	.LVL38:
  61:src/main.cpp  ****     printString("\n");
 341              		.loc 1 61 5 is_stmt 1
 342              		.loc 1 61 16 is_stmt 0
 343 0268 17050000 		lla	a0,.LC5
 343      13050500 
 344 0270 97000000 		call	_Z11printStringPKc@plt
 344      E7800000 
 345              	.LVL39:
  62:src/main.cpp  **** 
  63:src/main.cpp  ****     printString("New[] called: ");
 346              		.loc 1 63 5 is_stmt 1
 347              		.loc 1 63 16 is_stmt 0
 348 0278 17050000 		lla	a0,.LC7
 348      13050500 
 349 0280 97000000 		call	_Z11printStringPKc@plt
 349      E7800000 
 350              	.LVL40:
  64:src/main.cpp  ****     printInteger(MemoryAllocator::newArrayCalled);
 351              		.loc 1 64 5 is_stmt 1
 352              		.loc 1 64 17 is_stmt 0
 353 0288 97070000 		la	a5,_ZN15MemoryAllocator14newArrayCalledE
 353      83B70700 
 354 0290 03A50700 		lw	a0,0(a5)
 355 0294 97000000 		call	_Z12printIntegerm@plt
 355      E7800000 
 356              	.LVL41:
  65:src/main.cpp  ****     printString("\n");
 357              		.loc 1 65 5 is_stmt 1
 358              		.loc 1 65 16 is_stmt 0
GAS LISTING /tmp/cciwyjKT.s 			page 15


 359 029c 17050000 		lla	a0,.LC5
 359      13050500 
 360 02a4 97000000 		call	_Z11printStringPKc@plt
 360      E7800000 
 361              	.LVL42:
  66:src/main.cpp  **** 
  67:src/main.cpp  **** 
  68:src/main.cpp  ****     printString("Delete called: ");
 362              		.loc 1 68 5 is_stmt 1
 363              		.loc 1 68 16 is_stmt 0
 364 02ac 17050000 		lla	a0,.LC8
 364      13050500 
 365 02b4 97000000 		call	_Z11printStringPKc@plt
 365      E7800000 
 366              	.LVL43:
  69:src/main.cpp  ****     printInteger(MemoryAllocator::deleteCalled);
 367              		.loc 1 69 5 is_stmt 1
 368              		.loc 1 69 17 is_stmt 0
 369 02bc 97070000 		la	a5,_ZN15MemoryAllocator12deleteCalledE
 369      83B70700 
 370 02c4 03A50700 		lw	a0,0(a5)
 371 02c8 97000000 		call	_Z12printIntegerm@plt
 371      E7800000 
 372              	.LVL44:
  70:src/main.cpp  ****     printString("\n");
 373              		.loc 1 70 5 is_stmt 1
 374              		.loc 1 70 16 is_stmt 0
 375 02d0 17050000 		lla	a0,.LC5
 375      13050500 
 376 02d8 97000000 		call	_Z11printStringPKc@plt
 376      E7800000 
 377              	.LVL45:
  71:src/main.cpp  **** 
  72:src/main.cpp  ****     printString("Delete[] called: ");
 378              		.loc 1 72 5 is_stmt 1
 379              		.loc 1 72 16 is_stmt 0
 380 02e0 17050000 		lla	a0,.LC9
 380      13050500 
 381 02e8 97000000 		call	_Z11printStringPKc@plt
 381      E7800000 
 382              	.LVL46:
  73:src/main.cpp  ****     printInteger(MemoryAllocator::deleteArrayCalled);
 383              		.loc 1 73 5 is_stmt 1
 384              		.loc 1 73 17 is_stmt 0
 385 02f0 97070000 		la	a5,_ZN15MemoryAllocator17deleteArrayCalledE
 385      83B70700 
 386 02f8 03A50700 		lw	a0,0(a5)
 387 02fc 97000000 		call	_Z12printIntegerm@plt
 387      E7800000 
 388              	.LVL47:
  74:src/main.cpp  ****     printString("\n");
 389              		.loc 1 74 5 is_stmt 1
 390              		.loc 1 74 16 is_stmt 0
 391 0304 17050000 		lla	a0,.LC5
 391      13050500 
 392 030c 97000000 		call	_Z11printStringPKc@plt
 392      E7800000 
GAS LISTING /tmp/cciwyjKT.s 			page 16


 393              	.LVL48:
  75:src/main.cpp  **** 
  76:src/main.cpp  ****     return 0;
 394              		.loc 1 76 5 is_stmt 1
  77:src/main.cpp  **** }
 395              		.loc 1 77 1 is_stmt 0
 396 0314 13050000 		li	a0,0
 397 0318 83308105 		ld	ra,88(sp)
 398              		.cfi_restore 1
 399 031c 03340105 		ld	s0,80(sp)
 400              		.cfi_restore 8
 401              		.cfi_def_cfa 2, 96
 402 0320 83348104 		ld	s1,72(sp)
 403              		.cfi_restore 9
 404              	.LVL49:
 405 0324 03390104 		ld	s2,64(sp)
 406              		.cfi_restore 18
 407 0328 13010106 		addi	sp,sp,96
 408              		.cfi_def_cfa_offset 0
 409 032c 67800000 		jr	ra
 410              		.cfi_endproc
 411              	.LFE41:
 413              	.Letext0:
 414              		.file 5 "src/../h/../lib/hw.h"
 415              		.file 6 "src/../h/list.hpp"
 416              		.file 7 "src/../h/mySemaphore.hpp"
 417              		.file 8 "src/../h/syscall_c.hpp"
 418              		.file 9 "src/../h/print.hpp"
GAS LISTING /tmp/cciwyjKT.s 			page 17

