GAS LISTING /tmp/ccqVkRqo.s 			page 1


   1              		.file	"main.cpp"
   2              		.option pic
   3              		.option norelax
   4              		.text
   5              	.Ltext0:
   6              		.section	.rodata.str1.8,"aMS",@progbits,1
   7              		.align	3
   8              	.LC0:
   9 0000 54687265 		.string	"ThreadA created\n"
   9      61644120 
   9      63726561 
   9      7465640A 
   9      00
  10 0011 00000000 		.align	3
  10      000000
  11              	.LC1:
  12 0018 54687265 		.string	"ThreadB created\n"
  12      61644220 
  12      63726561 
  12      7465640A 
  12      00
  13 0029 00000000 		.align	3
  13      000000
  14              	.LC2:
  15 0030 46696E69 		.string	"Finished\n"
  15      73686564 
  15      0A00
  16              		.text
  17              		.align	2
  18              		.globl	main
  20              	main:
  21              	.LFB52:
  22              		.file 1 "src/main.cpp"
   1:src/main.cpp  **** //
   2:src/main.cpp  **** // Created by marko on 20.4.22..
   3:src/main.cpp  **** //
   4:src/main.cpp  **** 
   5:src/main.cpp  **** #include "../h/tcb.hpp"
   6:src/main.cpp  **** #include "../h/workers.hpp"
   7:src/main.cpp  **** #include "../h/print.hpp"
   8:src/main.cpp  **** #include "../h/riscv.hpp"
   9:src/main.cpp  **** #include "../h/syscall_c.hpp"
  10:src/main.cpp  **** 
  11:src/main.cpp  **** int main()
  12:src/main.cpp  **** {
  23              		.loc 1 12 1
  24              		.cfi_startproc
  25 0000 130101FB 		addi	sp,sp,-80
  26              		.cfi_def_cfa_offset 80
  27 0004 23341104 		sd	ra,72(sp)
  28 0008 23308104 		sd	s0,64(sp)
  29 000c 233C9102 		sd	s1,56(sp)
  30 0010 23382103 		sd	s2,48(sp)
  31              		.cfi_offset 1, -8
  32              		.cfi_offset 8, -16
  33              		.cfi_offset 9, -24
  34              		.cfi_offset 18, -32
GAS LISTING /tmp/ccqVkRqo.s 			page 2


  35 0014 13040105 		addi	s0,sp,80
  36              		.cfi_def_cfa 8, 0
  13:src/main.cpp  ****     TCB *threads[5];
  37              		.loc 1 13 5
  14:src/main.cpp  **** 
  15:src/main.cpp  ****     threads[0] = TCB::createThread(nullptr,nullptr);
  38              		.loc 1 15 5
  39              		.loc 1 15 35 is_stmt 0
  40 0018 93050000 		li	a1,0
  41 001c 13050000 		li	a0,0
  42 0020 97000000 		call	_ZN3TCB12createThreadEPFvPvES0_@plt
  42      E7800000 
  43              	.LVL0:
  44              		.loc 1 15 16
  45 0028 233CA4FA 		sd	a0,-72(s0)
  16:src/main.cpp  ****     TCB::running = threads[0];
  46              		.loc 1 16 5 is_stmt 1
  47              		.loc 1 16 18 is_stmt 0
  48 002c 97070000 		la	a5,_ZN3TCB7runningE
  48      83B70700 
  49 0034 23B0A700 		sd	a0,0(a5)
  17:src/main.cpp  **** 
  18:src/main.cpp  ****     Riscv::w_stvec((uint64) &Riscv::stvecVectorTable | 0b01);
  50              		.loc 1 18 5 is_stmt 1
  51              		.loc 1 18 19 is_stmt 0
  52 0038 97070000 		la	a5,_ZN5Riscv16stvecVectorTableEv
  52      83B70700 
  53 0040 93E71700 		ori	a5,a5,1
  54              	.LVL1:
  55              	.LBB14:
  56              	.LBB15:
  57              		.file 2 "src/../h/riscv.hpp"
   1:src/../h/riscv.hpp **** //
   2:src/../h/riscv.hpp **** // Created by marko on 20.4.22..
   3:src/../h/riscv.hpp **** //
   4:src/../h/riscv.hpp **** 
   5:src/../h/riscv.hpp **** #ifndef OS1_VEZBE07_RISCV_CONTEXT_SWITCH_2_INTERRUPT_RISCV_HPP
   6:src/../h/riscv.hpp **** #define OS1_VEZBE07_RISCV_CONTEXT_SWITCH_2_INTERRUPT_RISCV_HPP
   7:src/../h/riscv.hpp **** 
   8:src/../h/riscv.hpp **** #include "../lib/hw.h"
   9:src/../h/riscv.hpp **** 
  10:src/../h/riscv.hpp **** class Riscv
  11:src/../h/riscv.hpp **** {
  12:src/../h/riscv.hpp **** public:
  13:src/../h/riscv.hpp **** 
  14:src/../h/riscv.hpp ****     // pop sstatus.spp and sstatus.spie bits (has to be a non inline function)
  15:src/../h/riscv.hpp ****     static void popSppSpie();
  16:src/../h/riscv.hpp **** 
  17:src/../h/riscv.hpp ****     // read register scause
  18:src/../h/riscv.hpp ****     static uint64 r_scause();
  19:src/../h/riscv.hpp **** 
  20:src/../h/riscv.hpp ****     // write register scause
  21:src/../h/riscv.hpp ****     static void w_scause(uint64 scause);
  22:src/../h/riscv.hpp **** 
  23:src/../h/riscv.hpp ****     // read register sepc
  24:src/../h/riscv.hpp ****     static uint64 r_sepc();
  25:src/../h/riscv.hpp **** 
GAS LISTING /tmp/ccqVkRqo.s 			page 3


  26:src/../h/riscv.hpp ****     // write register sepc
  27:src/../h/riscv.hpp ****     static void w_sepc(uint64 sepc);
  28:src/../h/riscv.hpp **** 
  29:src/../h/riscv.hpp ****     // read register stvec
  30:src/../h/riscv.hpp ****     static uint64 r_stvec();
  31:src/../h/riscv.hpp **** 
  32:src/../h/riscv.hpp ****     // write register stvec
  33:src/../h/riscv.hpp ****     static void w_stvec(uint64 stvec);
  34:src/../h/riscv.hpp **** 
  35:src/../h/riscv.hpp ****     // read register stval
  36:src/../h/riscv.hpp ****     static uint64 r_stval();
  37:src/../h/riscv.hpp **** 
  38:src/../h/riscv.hpp ****     // write register stval
  39:src/../h/riscv.hpp ****     static void w_stval(uint64 stval);
  40:src/../h/riscv.hpp **** 
  41:src/../h/riscv.hpp ****     enum BitMaskSip
  42:src/../h/riscv.hpp ****     {
  43:src/../h/riscv.hpp ****         SIP_SSIP = (1 << 1),
  44:src/../h/riscv.hpp ****         SIP_STIP = (1 << 5),
  45:src/../h/riscv.hpp ****         SIP_SEIP = (1 << 9),
  46:src/../h/riscv.hpp ****     };
  47:src/../h/riscv.hpp **** 
  48:src/../h/riscv.hpp ****     // mask set register sip
  49:src/../h/riscv.hpp ****     static void ms_sip(uint64 mask);
  50:src/../h/riscv.hpp **** 
  51:src/../h/riscv.hpp ****     // mask clear register sip
  52:src/../h/riscv.hpp ****     static void mc_sip(uint64 mask);
  53:src/../h/riscv.hpp **** 
  54:src/../h/riscv.hpp ****     // read register sip
  55:src/../h/riscv.hpp ****     static uint64 r_sip();
  56:src/../h/riscv.hpp **** 
  57:src/../h/riscv.hpp ****     // write register sip
  58:src/../h/riscv.hpp ****     static void w_sip(uint64 sip);
  59:src/../h/riscv.hpp **** 
  60:src/../h/riscv.hpp ****     enum BitMaskSstatus
  61:src/../h/riscv.hpp ****     {
  62:src/../h/riscv.hpp ****         SSTATUS_SIE = (1 << 1),
  63:src/../h/riscv.hpp ****         SSTATUS_SPIE = (1 << 5),
  64:src/../h/riscv.hpp ****         SSTATUS_SPP = (1 << 8),
  65:src/../h/riscv.hpp ****     };
  66:src/../h/riscv.hpp **** 
  67:src/../h/riscv.hpp ****     // mask set register sstatus
  68:src/../h/riscv.hpp ****     static void ms_sstatus(uint64 mask);
  69:src/../h/riscv.hpp **** 
  70:src/../h/riscv.hpp ****     // mask clear register sstatus
  71:src/../h/riscv.hpp ****     static void mc_sstatus(uint64 mask);
  72:src/../h/riscv.hpp **** 
  73:src/../h/riscv.hpp ****     // read register sstatus
  74:src/../h/riscv.hpp ****     static uint64 r_sstatus();
  75:src/../h/riscv.hpp **** 
  76:src/../h/riscv.hpp ****     // write register sstatus
  77:src/../h/riscv.hpp ****     static void w_sstatus(uint64 sstatus);
  78:src/../h/riscv.hpp **** 
  79:src/../h/riscv.hpp ****     // supervisor trap
  80:src/../h/riscv.hpp ****     static void supervisorTrap();
  81:src/../h/riscv.hpp **** 
  82:src/../h/riscv.hpp ****     //stvec Vector "table"
GAS LISTING /tmp/ccqVkRqo.s 			page 4


  83:src/../h/riscv.hpp ****     static void stvecVectorTable();
  84:src/../h/riscv.hpp **** 
  85:src/../h/riscv.hpp ****     //read a0 register
  86:src/../h/riscv.hpp ****     static uint64 r_a0();
  87:src/../h/riscv.hpp **** 
  88:src/../h/riscv.hpp ****     //write to a0 register
  89:src/../h/riscv.hpp ****     static void w_a0(uint64 writeValue);
  90:src/../h/riscv.hpp **** 
  91:src/../h/riscv.hpp ****     //read a1 register
  92:src/../h/riscv.hpp ****     static uint64 r_a1();
  93:src/../h/riscv.hpp **** 
  94:src/../h/riscv.hpp ****     //write to a1 register
  95:src/../h/riscv.hpp ****     static void w_a1(uint64 writeValue);
  96:src/../h/riscv.hpp **** 
  97:src/../h/riscv.hpp ****     //read a2 register
  98:src/../h/riscv.hpp ****     static uint64 r_a2();
  99:src/../h/riscv.hpp **** 
 100:src/../h/riscv.hpp ****     //write to a2 register
 101:src/../h/riscv.hpp ****     static void w_a2(uint64 writeValue);
 102:src/../h/riscv.hpp **** 
 103:src/../h/riscv.hpp ****     //read a3 register
 104:src/../h/riscv.hpp ****     static uint64 r_a3();
 105:src/../h/riscv.hpp **** 
 106:src/../h/riscv.hpp ****     //write to a3 register
 107:src/../h/riscv.hpp ****     static void w_a3(uint64 writeValue);
 108:src/../h/riscv.hpp **** 
 109:src/../h/riscv.hpp ****     //read a4 register
 110:src/../h/riscv.hpp ****     static uint64 r_a4();
 111:src/../h/riscv.hpp **** 
 112:src/../h/riscv.hpp ****     //write to a4 register
 113:src/../h/riscv.hpp ****     static void w_a4(uint64 writeValue);
 114:src/../h/riscv.hpp **** 
 115:src/../h/riscv.hpp ****     //read a5 register
 116:src/../h/riscv.hpp ****     static uint64 r_a5();
 117:src/../h/riscv.hpp **** 
 118:src/../h/riscv.hpp ****     //write to a5 register
 119:src/../h/riscv.hpp ****     static void w_a5(uint64 writeValue);
 120:src/../h/riscv.hpp **** 
 121:src/../h/riscv.hpp ****     //read a6 register
 122:src/../h/riscv.hpp ****     static uint64 r_a6();
 123:src/../h/riscv.hpp **** 
 124:src/../h/riscv.hpp ****     //write to a6 register
 125:src/../h/riscv.hpp ****     static void w_a6(uint64 writeValue);
 126:src/../h/riscv.hpp **** 
 127:src/../h/riscv.hpp ****     //read a7 register
 128:src/../h/riscv.hpp ****     static uint64 r_a7();
 129:src/../h/riscv.hpp **** 
 130:src/../h/riscv.hpp ****     //write to a7 register
 131:src/../h/riscv.hpp ****     static void w_a7(uint64 writeValue);
 132:src/../h/riscv.hpp **** 
 133:src/../h/riscv.hpp **** 
 134:src/../h/riscv.hpp **** private:
 135:src/../h/riscv.hpp **** 
 136:src/../h/riscv.hpp ****     // supervisor trap handler
 137:src/../h/riscv.hpp ****     static void handleSupervisorTrap();
 138:src/../h/riscv.hpp **** 
 139:src/../h/riscv.hpp ****     static void handleTimerInterrupt();
GAS LISTING /tmp/ccqVkRqo.s 			page 5


 140:src/../h/riscv.hpp **** 
 141:src/../h/riscv.hpp ****     static void handleConsoleInterrupt();
 142:src/../h/riscv.hpp **** };
 143:src/../h/riscv.hpp **** 
 144:src/../h/riscv.hpp **** 
 145:src/../h/riscv.hpp **** inline uint64 Riscv::r_scause()
 146:src/../h/riscv.hpp **** {
 147:src/../h/riscv.hpp ****     uint64 volatile scause;
 148:src/../h/riscv.hpp ****     __asm__ volatile ("csrr %[scause], scause" : [scause] "=r"(scause));
 149:src/../h/riscv.hpp ****     return scause;
 150:src/../h/riscv.hpp **** }
 151:src/../h/riscv.hpp **** 
 152:src/../h/riscv.hpp **** inline void Riscv::w_scause(uint64 scause)
 153:src/../h/riscv.hpp **** {
 154:src/../h/riscv.hpp ****     __asm__ volatile ("csrw scause, %[scause]" : : [scause] "r"(scause));
 155:src/../h/riscv.hpp **** }
 156:src/../h/riscv.hpp **** 
 157:src/../h/riscv.hpp **** inline uint64 Riscv::r_sepc()
 158:src/../h/riscv.hpp **** {
 159:src/../h/riscv.hpp ****     uint64 volatile sepc;
 160:src/../h/riscv.hpp ****     __asm__ volatile ("csrr %[sepc], sepc" : [sepc] "=r"(sepc));
 161:src/../h/riscv.hpp ****     return sepc;
 162:src/../h/riscv.hpp **** }
 163:src/../h/riscv.hpp **** 
 164:src/../h/riscv.hpp **** inline void Riscv::w_sepc(uint64 sepc)
 165:src/../h/riscv.hpp **** {
 166:src/../h/riscv.hpp ****     __asm__ volatile ("csrw sepc, %[sepc]" : : [sepc] "r"(sepc));
 167:src/../h/riscv.hpp **** }
 168:src/../h/riscv.hpp **** 
 169:src/../h/riscv.hpp **** inline uint64 Riscv::r_stvec()
 170:src/../h/riscv.hpp **** {
 171:src/../h/riscv.hpp ****     uint64 volatile stvec;
 172:src/../h/riscv.hpp ****     __asm__ volatile ("csrr %[stvec], stvec" : [stvec] "=r"(stvec));
 173:src/../h/riscv.hpp ****     return stvec;
 174:src/../h/riscv.hpp **** }
 175:src/../h/riscv.hpp **** 
 176:src/../h/riscv.hpp **** inline void Riscv::w_stvec(uint64 stvec)
 177:src/../h/riscv.hpp **** {
 178:src/../h/riscv.hpp ****     __asm__ volatile ("csrw stvec, %[stvec]" : : [stvec] "r"(stvec));
  58              		.loc 2 178 5 is_stmt 1
  59              		.loc 2 178 69 is_stmt 0
  60              	#APP
  61              	# 178 "src/../h/riscv.hpp" 1
 179              	}
  62              		csrw stvec, a5
  63              	# 0 "" 2
  64              	.LVL2:
  65              	#NO_APP
  66              	.LBE15:
  67              	.LBE14:
  19:src/main.cpp  ****     Riscv::ms_sstatus(Riscv::SSTATUS_SIE);
  68              		.loc 1 19 5 is_stmt 1
  69              	.LBB16:
  70              	.LBB17:
 180:src/../h/riscv.hpp **** 
 181:src/../h/riscv.hpp **** inline uint64 Riscv::r_stval()
 182:src/../h/riscv.hpp **** {
GAS LISTING /tmp/ccqVkRqo.s 			page 6


 183:src/../h/riscv.hpp ****     uint64 volatile stval;
 184:src/../h/riscv.hpp ****     __asm__ volatile ("csrr %[stval], stval" : [stval] "=r"(stval));
 185:src/../h/riscv.hpp ****     return stval;
 186:src/../h/riscv.hpp **** }
 187:src/../h/riscv.hpp **** 
 188:src/../h/riscv.hpp **** inline void Riscv::w_stval(uint64 stval)
 189:src/../h/riscv.hpp **** {
 190:src/../h/riscv.hpp ****     __asm__ volatile ("csrw stval, %[stval]" : : [stval] "r"(stval));
 191:src/../h/riscv.hpp **** }
 192:src/../h/riscv.hpp **** 
 193:src/../h/riscv.hpp **** inline void Riscv::ms_sip(uint64 mask)
 194:src/../h/riscv.hpp **** {
 195:src/../h/riscv.hpp ****     __asm__ volatile ("csrs sip, %[mask]" : : [mask] "r"(mask));
 196:src/../h/riscv.hpp **** }
 197:src/../h/riscv.hpp **** 
 198:src/../h/riscv.hpp **** inline void Riscv::mc_sip(uint64 mask)
 199:src/../h/riscv.hpp **** {
 200:src/../h/riscv.hpp ****     __asm__ volatile ("csrc sip, %[mask]" : : [mask] "r"(mask));
 201:src/../h/riscv.hpp **** }
 202:src/../h/riscv.hpp **** 
 203:src/../h/riscv.hpp **** inline uint64 Riscv::r_sip()
 204:src/../h/riscv.hpp **** {
 205:src/../h/riscv.hpp ****     uint64 volatile sip;
 206:src/../h/riscv.hpp ****     __asm__ volatile ("csrr %[sip], sip" : [sip] "=r"(sip));
 207:src/../h/riscv.hpp ****     return sip;
 208:src/../h/riscv.hpp **** }
 209:src/../h/riscv.hpp **** 
 210:src/../h/riscv.hpp **** inline void Riscv::w_sip(uint64 sip)
 211:src/../h/riscv.hpp **** {
 212:src/../h/riscv.hpp ****     __asm__ volatile ("csrw sip, %[sip]" : : [sip] "r"(sip));
 213:src/../h/riscv.hpp **** }
 214:src/../h/riscv.hpp **** 
 215:src/../h/riscv.hpp **** inline void Riscv::ms_sstatus(uint64 mask)
 216:src/../h/riscv.hpp **** {
 217:src/../h/riscv.hpp ****     __asm__ volatile ("csrs sstatus, %[mask]" : : [mask] "r"(mask));
  71              		.loc 2 217 5
  72              		.loc 2 217 68 is_stmt 0
  73 0048 93072000 		li	a5,2
  74              	#APP
  75              	# 217 "src/../h/riscv.hpp" 1
 218              	}
  76              		csrs sstatus, a5
  77              	# 0 "" 2
  78              	.LVL3:
  79              	#NO_APP
  80              	.LBE17:
  81              	.LBE16:
  20:src/main.cpp  **** 
  21:src/main.cpp  ****     thread_create(&threads[1], workerBodyA, nullptr);
  82              		.loc 1 21 5 is_stmt 1
  83              		.loc 1 21 18 is_stmt 0
  84 0050 13060000 		li	a2,0
  85 0054 97050000 		la	a1,_Z11workerBodyAPv
  85      83B50500 
  86 005c 130504FC 		addi	a0,s0,-64
  87 0060 97000000 		call	_Z13thread_createPP3TCBPFvPvES2_@plt
  87      E7800000 
GAS LISTING /tmp/ccqVkRqo.s 			page 7


  88              	.LVL4:
  22:src/main.cpp  ****     printString("ThreadA created\n");
  89              		.loc 1 22 5 is_stmt 1
  90              		.loc 1 22 16 is_stmt 0
  91 0068 17050000 		lla	a0,.LC0
  91      13050500 
  92 0070 97000000 		call	_Z11printStringPKc@plt
  92      E7800000 
  93              	.LVL5:
  23:src/main.cpp  ****     thread_create(&threads[2], workerBodyB, threads[1]);
  94              		.loc 1 23 5 is_stmt 1
  95              		.loc 1 23 18 is_stmt 0
  96 0078 033604FC 		ld	a2,-64(s0)
  97 007c 97050000 		la	a1,_Z11workerBodyBPv
  97      83B50500 
  98 0084 130584FC 		addi	a0,s0,-56
  99 0088 97000000 		call	_Z13thread_createPP3TCBPFvPvES2_@plt
  99      E7800000 
 100              	.LVL6:
  24:src/main.cpp  ****     printString("ThreadB created\n");
 101              		.loc 1 24 5 is_stmt 1
 102              		.loc 1 24 16 is_stmt 0
 103 0090 17050000 		lla	a0,.LC1
 103      13050500 
 104 0098 97000000 		call	_Z11printStringPKc@plt
 104      E7800000 
 105              	.LVL7:
 106 00a0 6F00C000 		j	.L4
 107              	.L2:
  25:src/main.cpp  **** 
  26:src/main.cpp  **** 
  27:src/main.cpp  **** 
  28:src/main.cpp  ****     while (!(threads[1]->isFinished() &&
  29:src/main.cpp  ****              threads[2]->isFinished()))
  30:src/main.cpp  ****     {
  31:src/main.cpp  ****         thread_dispatch();
 108              		.loc 1 31 9 is_stmt 1 discriminator 3
 109              		.loc 1 31 24 is_stmt 0 discriminator 3
 110 00a4 97000000 		call	_Z15thread_dispatchv@plt
 110      E7800000 
 111              	.LVL8:
 112              	.L4:
  28:src/main.cpp  ****              threads[2]->isFinished()))
 113              		.loc 1 28 5 is_stmt 1
  28:src/main.cpp  ****              threads[2]->isFinished()))
 114              		.loc 1 28 12
  28:src/main.cpp  ****              threads[2]->isFinished()))
 115              		.loc 1 28 23 is_stmt 0
 116 00ac 833704FC 		ld	a5,-64(s0)
 117              	.LVL9:
 118              	.LBB18:
 119              	.LBB19:
 120              		.file 3 "src/../h/tcb.hpp"
   1:src/../h/tcb.hpp **** //
   2:src/../h/tcb.hpp **** // Created by marko on 20.4.22..
   3:src/../h/tcb.hpp **** //
   4:src/../h/tcb.hpp **** 
GAS LISTING /tmp/ccqVkRqo.s 			page 8


   5:src/../h/tcb.hpp **** #ifndef OS1_VEZBE07_RISCV_CONTEXT_SWITCH_2_INTERRUPT_TCB_HPP
   6:src/../h/tcb.hpp **** #define OS1_VEZBE07_RISCV_CONTEXT_SWITCH_2_INTERRUPT_TCB_HPP
   7:src/../h/tcb.hpp **** 
   8:src/../h/tcb.hpp **** #include "../lib/hw.h"
   9:src/../h/tcb.hpp **** #include "scheduler.hpp"
  10:src/../h/tcb.hpp **** 
  11:src/../h/tcb.hpp **** // Thread Control Block
  12:src/../h/tcb.hpp **** class TCB
  13:src/../h/tcb.hpp **** {
  14:src/../h/tcb.hpp **** public:
  15:src/../h/tcb.hpp ****     ~TCB() { delete[] stack; }
  16:src/../h/tcb.hpp **** 
  17:src/../h/tcb.hpp ****     bool isFinished() const { return finished; }
 121              		.loc 3 17 31 is_stmt 1
 122              		.loc 3 17 38 is_stmt 0
 123 00b0 83C70702 		lbu	a5,32(a5)
 124              	.LVL10:
 125              	.LBE19:
 126              	.LBE18:
  28:src/main.cpp  ****              threads[2]->isFinished()))
 127              		.loc 1 28 12
 128 00b4 E38807FE 		beqz	a5,.L2
  29:src/main.cpp  ****     {
 129              		.loc 1 29 23 discriminator 2
 130 00b8 833784FC 		ld	a5,-56(s0)
 131              	.LVL11:
 132              	.LBB20:
 133              	.LBB21:
 134              		.loc 3 17 31 is_stmt 1 discriminator 2
 135              		.loc 3 17 38 is_stmt 0 discriminator 2
 136 00bc 83C70702 		lbu	a5,32(a5)
 137              	.LVL12:
 138              	.LBE21:
 139              	.LBE20:
  28:src/main.cpp  ****              threads[2]->isFinished()))
 140              		.loc 1 28 12 discriminator 2
 141 00c0 E38207FE 		beqz	a5,.L2
 142 00c4 930484FB 		addi	s1,s0,-72
 143 00c8 6F004001 		j	.L3
 144              	.LVL13:
 145              	.L7:
 146              	.LBB22:
  32:src/main.cpp  ****     }
  33:src/main.cpp  **** 
  34:src/main.cpp  ****     for (auto &thread: threads)
  35:src/main.cpp  ****     {
  36:src/main.cpp  ****         delete thread;
 147              		.loc 1 36 16
 148 00cc 13050900 		mv	a0,s2
 149 00d0 97000000 		call	_ZdlPv@plt
 149      E7800000 
 150              	.LVL14:
 151              	.L6:
  34:src/main.cpp  ****     {
 152              		.loc 1 34 5 is_stmt 1 discriminator 3
 153 00d8 93848400 		addi	s1,s1,8
 154              	.LVL15:
GAS LISTING /tmp/ccqVkRqo.s 			page 9


 155              	.L3:
  34:src/main.cpp  ****     {
 156              		.loc 1 34 24 discriminator 1
 157 00dc 930704FE 		addi	a5,s0,-32
 158 00e0 6380F402 		beq	s1,a5,.L5
 159              	.LVL16:
 160              		.loc 1 36 9 discriminator 2
 161              		.loc 1 36 16 is_stmt 0 discriminator 2
 162 00e4 03B90400 		ld	s2,0(s1)
 163              		.loc 1 36 22 discriminator 2
 164 00e8 E30809FE 		beqz	s2,.L6
 165              	.LVL17:
 166              	.LBB23:
 167              	.LBB24:
  15:src/../h/tcb.hpp **** 
 168              		.loc 3 15 14 is_stmt 1
  15:src/../h/tcb.hpp **** 
 169              		.loc 3 15 23 is_stmt 0
 170 00ec 03358900 		ld	a0,8(s2)
  15:src/../h/tcb.hpp **** 
 171              		.loc 3 15 28
 172 00f0 E30E05FC 		beqz	a0,.L7
  15:src/../h/tcb.hpp **** 
 173              		.loc 3 15 23
 174 00f4 97000000 		call	_ZdaPv@plt
 174      E7800000 
 175              	.LVL18:
 176 00fc 6FF01FFD 		j	.L7
 177              	.LVL19:
 178              	.L5:
 179              	.LBE24:
 180              	.LBE23:
 181              	.LBE22:
  37:src/main.cpp  ****     }
  38:src/main.cpp  ****     printString("Finished\n");
 182              		.loc 1 38 5 is_stmt 1
 183              		.loc 1 38 16 is_stmt 0
 184 0100 17050000 		lla	a0,.LC2
 184      13050500 
 185 0108 97000000 		call	_Z11printStringPKc@plt
 185      E7800000 
 186              	.LVL20:
  39:src/main.cpp  **** 
  40:src/main.cpp  ****     return 0;
 187              		.loc 1 40 5 is_stmt 1
  41:src/main.cpp  **** }
 188              		.loc 1 41 1 is_stmt 0
 189 0110 13050000 		li	a0,0
 190 0114 83308104 		ld	ra,72(sp)
 191              		.cfi_restore 1
 192 0118 03340104 		ld	s0,64(sp)
 193              		.cfi_restore 8
 194              		.cfi_def_cfa 2, 80
 195 011c 83348103 		ld	s1,56(sp)
 196              		.cfi_restore 9
 197              	.LVL21:
 198 0120 03390103 		ld	s2,48(sp)
GAS LISTING /tmp/ccqVkRqo.s 			page 10


 199              		.cfi_restore 18
 200 0124 13010105 		addi	sp,sp,80
 201              		.cfi_def_cfa_offset 0
 202 0128 67800000 		jr	ra
 203              		.cfi_endproc
 204              	.LFE52:
 206              	.Letext0:
 207              		.file 4 "src/../h/../lib/hw.h"
 208              		.file 5 "src/../h/syscall_c.hpp"
 209              		.file 6 "src/../h/print.hpp"
GAS LISTING /tmp/ccqVkRqo.s 			page 11


DEFINED SYMBOLS
                            *ABS*:0000000000000000 main.cpp
     /tmp/ccqVkRqo.s:20     .text:0000000000000000 main
     /tmp/ccqVkRqo.s:24     .text:0000000000000000 .L0 
     /tmp/ccqVkRqo.s:25     .text:0000000000000000 .L0 
     /tmp/ccqVkRqo.s:26     .text:0000000000000004 .L0 
     /tmp/ccqVkRqo.s:31     .text:0000000000000014 .L0 
     /tmp/ccqVkRqo.s:32     .text:0000000000000014 .L0 
     /tmp/ccqVkRqo.s:33     .text:0000000000000014 .L0 
     /tmp/ccqVkRqo.s:34     .text:0000000000000014 .L0 
     /tmp/ccqVkRqo.s:36     .text:0000000000000018 .L0 
     /tmp/ccqVkRqo.s:38     .text:0000000000000018 .L0 
     /tmp/ccqVkRqo.s:39     .text:0000000000000018 .L0 
     /tmp/ccqVkRqo.s:40     .text:0000000000000018 .L0 
     /tmp/ccqVkRqo.s:45     .text:0000000000000028 .L0 
     /tmp/ccqVkRqo.s:47     .text:000000000000002c .L0 
     /tmp/ccqVkRqo.s:48     .text:000000000000002c .L0 
     /tmp/ccqVkRqo.s:51     .text:0000000000000038 .L0 
     /tmp/ccqVkRqo.s:52     .text:0000000000000038 .L0 
     /tmp/ccqVkRqo.s:59     .text:0000000000000044 .L0 
  src/../h/riscv.hpp:178    .text:0000000000000044 .L0 
     /tmp/ccqVkRqo.s:71     .text:0000000000000048 .L0 
     /tmp/ccqVkRqo.s:72     .text:0000000000000048 .L0 
     /tmp/ccqVkRqo.s:73     .text:0000000000000048 .L0 
     /tmp/ccqVkRqo.s:83     .text:0000000000000050 .L0 
     /tmp/ccqVkRqo.s:84     .text:0000000000000050 .L0 
     /tmp/ccqVkRqo.s:90     .text:0000000000000068 .L0 
     /tmp/ccqVkRqo.s:91     .text:0000000000000068 .L0 
     /tmp/ccqVkRqo.s:95     .text:0000000000000078 .L0 
     /tmp/ccqVkRqo.s:96     .text:0000000000000078 .L0 
     /tmp/ccqVkRqo.s:102    .text:0000000000000090 .L0 
     /tmp/ccqVkRqo.s:103    .text:0000000000000090 .L0 
     /tmp/ccqVkRqo.s:109    .text:00000000000000a4 .L0 
     /tmp/ccqVkRqo.s:110    .text:00000000000000a4 .L0 
     /tmp/ccqVkRqo.s:114    .text:00000000000000ac .L0 
     /tmp/ccqVkRqo.s:115    .text:00000000000000ac .L0 
     /tmp/ccqVkRqo.s:116    .text:00000000000000ac .L0 
     /tmp/ccqVkRqo.s:122    .text:00000000000000b0 .L0 
     /tmp/ccqVkRqo.s:123    .text:00000000000000b0 .L0 
     /tmp/ccqVkRqo.s:128    .text:00000000000000b4 .L0 
     /tmp/ccqVkRqo.s:130    .text:00000000000000b8 .L0 
     /tmp/ccqVkRqo.s:135    .text:00000000000000bc .L0 
     /tmp/ccqVkRqo.s:136    .text:00000000000000bc .L0 
     /tmp/ccqVkRqo.s:141    .text:00000000000000c0 .L0 
     /tmp/ccqVkRqo.s:148    .text:00000000000000cc .L0 
     /tmp/ccqVkRqo.s:153    .text:00000000000000d8 .L0 
     /tmp/ccqVkRqo.s:157    .text:00000000000000dc .L0 
     /tmp/ccqVkRqo.s:161    .text:00000000000000e4 .L0 
     /tmp/ccqVkRqo.s:162    .text:00000000000000e4 .L0 
     /tmp/ccqVkRqo.s:164    .text:00000000000000e8 .L0 
     /tmp/ccqVkRqo.s:169    .text:00000000000000ec .L0 
     /tmp/ccqVkRqo.s:170    .text:00000000000000ec .L0 
     /tmp/ccqVkRqo.s:172    .text:00000000000000f0 .L0 
     /tmp/ccqVkRqo.s:174    .text:00000000000000f4 .L0 
     /tmp/ccqVkRqo.s:183    .text:0000000000000100 .L0 
     /tmp/ccqVkRqo.s:184    .text:0000000000000100 .L0 
     /tmp/ccqVkRqo.s:188    .text:0000000000000110 .L0 
GAS LISTING /tmp/ccqVkRqo.s 			page 12


     /tmp/ccqVkRqo.s:189    .text:0000000000000110 .L0 
     /tmp/ccqVkRqo.s:191    .text:0000000000000118 .L0 
     /tmp/ccqVkRqo.s:193    .text:000000000000011c .L0 
     /tmp/ccqVkRqo.s:194    .text:000000000000011c .L0 
     /tmp/ccqVkRqo.s:196    .text:0000000000000120 .L0 
     /tmp/ccqVkRqo.s:199    .text:0000000000000124 .L0 
     /tmp/ccqVkRqo.s:201    .text:0000000000000128 .L0 
     /tmp/ccqVkRqo.s:203    .text:000000000000012c .L0 
     /tmp/ccqVkRqo.s:210    .text:000000000000012c .L0 
     /tmp/ccqVkRqo.s:48     .text:000000000000002c .L0 
     /tmp/ccqVkRqo.s:52     .text:0000000000000038 .L0 
     /tmp/ccqVkRqo.s:85     .text:0000000000000054 .L0 
     /tmp/ccqVkRqo.s:8      .rodata.str1.8:0000000000000000 .LC0
     /tmp/ccqVkRqo.s:91     .text:0000000000000068 .L0 
     /tmp/ccqVkRqo.s:97     .text:000000000000007c .L0 
     /tmp/ccqVkRqo.s:11     .rodata.str1.8:0000000000000018 .LC1
     /tmp/ccqVkRqo.s:103    .text:0000000000000090 .L0 
     /tmp/ccqVkRqo.s:14     .rodata.str1.8:0000000000000030 .LC2
     /tmp/ccqVkRqo.s:184    .text:0000000000000100 .L0 
     /tmp/ccqVkRqo.s:112    .text:00000000000000ac .L4
     /tmp/ccqVkRqo.s:107    .text:00000000000000a4 .L2
     /tmp/ccqVkRqo.s:155    .text:00000000000000dc .L3
     /tmp/ccqVkRqo.s:178    .text:0000000000000100 .L5
     /tmp/ccqVkRqo.s:151    .text:00000000000000d8 .L6
     /tmp/ccqVkRqo.s:145    .text:00000000000000cc .L7
     /tmp/ccqVkRqo.s:1234   .debug_abbrev:0000000000000000 .Ldebug_abbrev0
     /tmp/ccqVkRqo.s:2428   .debug_str:00000000000007b1 .LASF138
     /tmp/ccqVkRqo.s:2220   .debug_str:00000000000001f4 .LASF139
     /tmp/ccqVkRqo.s:2232   .debug_str:000000000000024d .LASF140
     /tmp/ccqVkRqo.s:5      .text:0000000000000000 .Ltext0
     /tmp/ccqVkRqo.s:206    .text:000000000000012c .Letext0
     /tmp/ccqVkRqo.s:2154   .debug_line:0000000000000000 .Ldebug_line0
     /tmp/ccqVkRqo.s:2246   .debug_str:00000000000002db .LASF0
     /tmp/ccqVkRqo.s:2276   .debug_str:0000000000000386 .LASF1
     /tmp/ccqVkRqo.s:2346   .debug_str:000000000000058c .LASF2
     /tmp/ccqVkRqo.s:2354   .debug_str:00000000000005ce .LASF4
     /tmp/ccqVkRqo.s:2252   .debug_str:0000000000000302 .LASF3
     /tmp/ccqVkRqo.s:2172   .debug_str:000000000000007f .LASF5
     /tmp/ccqVkRqo.s:2326   .debug_str:00000000000004fa .LASF6
     /tmp/ccqVkRqo.s:2270   .debug_str:0000000000000354 .LASF7
     /tmp/ccqVkRqo.s:2228   .debug_str:000000000000021c .LASF8
     /tmp/ccqVkRqo.s:2238   .debug_str:0000000000000298 .LASF9
     /tmp/ccqVkRqo.s:2188   .debug_str:00000000000000e6 .LASF10
     /tmp/ccqVkRqo.s:2218   .debug_str:00000000000001e5 .LASF11
     /tmp/ccqVkRqo.s:2194   .debug_str:000000000000011b .LASF12
     /tmp/ccqVkRqo.s:2186   .debug_str:00000000000000d6 .LASF13
     /tmp/ccqVkRqo.s:2380   .debug_str:0000000000000673 .LASF14
     /tmp/ccqVkRqo.s:2210   .debug_str:000000000000018e .LASF15
     /tmp/ccqVkRqo.s:2368   .debug_str:0000000000000616 .LASF16
     /tmp/ccqVkRqo.s:2384   .debug_str:0000000000000694 .LASF141
     /tmp/ccqVkRqo.s:2356   .debug_str:00000000000005d5 .LASF17
     /tmp/ccqVkRqo.s:2168   .debug_str:0000000000000069 .LASF19
     /tmp/ccqVkRqo.s:2386   .debug_str:000000000000069c .LASF118
     /tmp/ccqVkRqo.s:2296   .debug_str:0000000000000427 .LASF142
     /tmp/ccqVkRqo.s:2178   .debug_str:00000000000000a6 .LASF18
     /tmp/ccqVkRqo.s:2410   .debug_str:0000000000000735 .LASF20
     /tmp/ccqVkRqo.s:2378   .debug_str:0000000000000666 .LASF21
GAS LISTING /tmp/ccqVkRqo.s 			page 13


     /tmp/ccqVkRqo.s:2416   .debug_str:0000000000000763 .LASF22
     /tmp/ccqVkRqo.s:2316   .debug_str:00000000000004b0 .LASF143
     /tmp/ccqVkRqo.s:2278   .debug_str:0000000000000399 .LASF40
     /tmp/ccqVkRqo.s:2398   .debug_str:00000000000006e1 .LASF42
     /tmp/ccqVkRqo.s:2392   .debug_str:00000000000006b8 .LASF144
     /tmp/ccqVkRqo.s:2396   .debug_str:00000000000006cd .LASF145
     /tmp/ccqVkRqo.s:2160   .debug_str:000000000000001b .LASF23
     /tmp/ccqVkRqo.s:2448   .debug_str:00000000000008a5 .LASF24
     /tmp/ccqVkRqo.s:2404   .debug_str:0000000000000707 .LASF25
     /tmp/ccqVkRqo.s:2366   .debug_str:000000000000060d .LASF26
     /tmp/ccqVkRqo.s:2182   .debug_str:00000000000000b7 .LASF27
     /tmp/ccqVkRqo.s:2280   .debug_str:000000000000039f .LASF29
     /tmp/ccqVkRqo.s:2196   .debug_str:000000000000012b .LASF31
     /tmp/ccqVkRqo.s:2166   .debug_str:0000000000000041 .LASF33
     /tmp/ccqVkRqo.s:2204   .debug_str:000000000000016e .LASF28
     /tmp/ccqVkRqo.s:2192   .debug_str:0000000000000108 .LASF30
     /tmp/ccqVkRqo.s:2390   .debug_str:00000000000006b3 .LASF32
     /tmp/ccqVkRqo.s:2222   .debug_str:0000000000000201 .LASF34
     /tmp/ccqVkRqo.s:2352   .debug_str:00000000000005c3 .LASF146
     /tmp/ccqVkRqo.s:2286   .debug_str:00000000000003c6 .LASF35
     /tmp/ccqVkRqo.s:2424   .debug_str:00000000000007a1 .LASF36
     /tmp/ccqVkRqo.s:2418   .debug_str:0000000000000783 .LASF147
     /tmp/ccqVkRqo.s:2214   .debug_str:00000000000001c6 .LASF37
     /tmp/ccqVkRqo.s:2394   .debug_str:00000000000006c0 .LASF38
     /tmp/ccqVkRqo.s:2200   .debug_str:0000000000000150 .LASF39
     /tmp/ccqVkRqo.s:2240   .debug_str:00000000000002a6 .LASF41
     /tmp/ccqVkRqo.s:2244   .debug_str:00000000000002c3 .LASF43
     /tmp/ccqVkRqo.s:2412   .debug_str:000000000000074c .LASF45
     /tmp/ccqVkRqo.s:2406   .debug_str:000000000000070f .LASF47
     /tmp/ccqVkRqo.s:2342   .debug_str:0000000000000578 .LASF44
     /tmp/ccqVkRqo.s:2310   .debug_str:000000000000048f .LASF50
     /tmp/ccqVkRqo.s:2330   .debug_str:0000000000000522 .LASF46
     /tmp/ccqVkRqo.s:2332   .debug_str:0000000000000529 .LASF48
     /tmp/ccqVkRqo.s:2300   .debug_str:0000000000000446 .LASF49
     /tmp/ccqVkRqo.s:2272   .debug_str:0000000000000367 .LASF51
     /tmp/ccqVkRqo.s:2442   .debug_str:000000000000087b .LASF52
     /tmp/ccqVkRqo.s:2376   .debug_str:0000000000000652 .LASF53
     /tmp/ccqVkRqo.s:2298   .debug_str:000000000000043e .LASF54
     /tmp/ccqVkRqo.s:2308   .debug_str:000000000000047b .LASF55
     /tmp/ccqVkRqo.s:2282   .debug_str:00000000000003b8 .LASF56
     /tmp/ccqVkRqo.s:2334   .debug_str:000000000000053c .LASF57
     /tmp/ccqVkRqo.s:2452   .debug_str:00000000000008c3 .LASF58
     /tmp/ccqVkRqo.s:2250   .debug_str:00000000000002ee .LASF59
     /tmp/ccqVkRqo.s:2374   .debug_str:000000000000064b .LASF60
     /tmp/ccqVkRqo.s:2358   .debug_str:00000000000005da .LASF61
     /tmp/ccqVkRqo.s:2360   .debug_str:00000000000005ed .LASF62
     /tmp/ccqVkRqo.s:2190   .debug_str:00000000000000f5 .LASF63
     /tmp/ccqVkRqo.s:2208   .debug_str:0000000000000188 .LASF64
     /tmp/ccqVkRqo.s:2242   .debug_str:00000000000002b1 .LASF65
     /tmp/ccqVkRqo.s:2248   .debug_str:00000000000002e8 .LASF66
     /tmp/ccqVkRqo.s:2202   .debug_str:000000000000015c .LASF67
     /tmp/ccqVkRqo.s:2174   .debug_str:0000000000000086 .LASF68
     /tmp/ccqVkRqo.s:2350   .debug_str:00000000000005ab .LASF69
     /tmp/ccqVkRqo.s:2344   .debug_str:0000000000000581 .LASF70
     /tmp/ccqVkRqo.s:2450   .debug_str:00000000000008ab .LASF71
     /tmp/ccqVkRqo.s:2426   .debug_str:00000000000007a7 .LASF72
     /tmp/ccqVkRqo.s:2444   .debug_str:0000000000000883 .LASF73
GAS LISTING /tmp/ccqVkRqo.s 			page 14


     /tmp/ccqVkRqo.s:2422   .debug_str:0000000000000797 .LASF74
     /tmp/ccqVkRqo.s:2290   .debug_str:00000000000003dc .LASF75
     /tmp/ccqVkRqo.s:2436   .debug_str:0000000000000862 .LASF76
     /tmp/ccqVkRqo.s:2236   .debug_str:000000000000027c .LASF77
     /tmp/ccqVkRqo.s:2362   .debug_str:00000000000005f4 .LASF78
     /tmp/ccqVkRqo.s:2320   .debug_str:00000000000004c6 .LASF79
     /tmp/ccqVkRqo.s:2304   .debug_str:000000000000046f .LASF80
     /tmp/ccqVkRqo.s:2318   .debug_str:00000000000004b5 .LASF81
     /tmp/ccqVkRqo.s:2256   .debug_str:0000000000000325 .LASF82
     /tmp/ccqVkRqo.s:2184   .debug_str:00000000000000c5 .LASF83
     /tmp/ccqVkRqo.s:2430   .debug_str:0000000000000853 .LASF84
     /tmp/ccqVkRqo.s:2254   .debug_str:0000000000000314 .LASF85
     /tmp/ccqVkRqo.s:2258   .debug_str:000000000000032a .LASF86
     /tmp/ccqVkRqo.s:2324   .debug_str:00000000000004e9 .LASF87
     /tmp/ccqVkRqo.s:2432   .debug_str:0000000000000858 .LASF88
     /tmp/ccqVkRqo.s:2164   .debug_str:0000000000000030 .LASF89
     /tmp/ccqVkRqo.s:2260   .debug_str:000000000000032f .LASF90
     /tmp/ccqVkRqo.s:2268   .debug_str:0000000000000343 .LASF91
     /tmp/ccqVkRqo.s:2434   .debug_str:000000000000085d .LASF92
     /tmp/ccqVkRqo.s:2454   .debug_str:00000000000008cb .LASF93
     /tmp/ccqVkRqo.s:2262   .debug_str:0000000000000334 .LASF94
     /tmp/ccqVkRqo.s:2206   .debug_str:0000000000000177 .LASF95
     /tmp/ccqVkRqo.s:2312   .debug_str:00000000000004a4 .LASF96
     /tmp/ccqVkRqo.s:2400   .debug_str:00000000000006f1 .LASF97
     /tmp/ccqVkRqo.s:2264   .debug_str:0000000000000339 .LASF98
     /tmp/ccqVkRqo.s:2158   .debug_str:000000000000000a .LASF99
     /tmp/ccqVkRqo.s:2438   .debug_str:0000000000000871 .LASF100
     /tmp/ccqVkRqo.s:2338   .debug_str:0000000000000560 .LASF101
     /tmp/ccqVkRqo.s:2266   .debug_str:000000000000033e .LASF102
     /tmp/ccqVkRqo.s:2408   .debug_str:0000000000000724 .LASF103
     /tmp/ccqVkRqo.s:2440   .debug_str:0000000000000876 .LASF104
     /tmp/ccqVkRqo.s:2288   .debug_str:00000000000003cb .LASF105
     /tmp/ccqVkRqo.s:2180   .debug_str:00000000000000b2 .LASF106
     /tmp/ccqVkRqo.s:2348   .debug_str:000000000000059a .LASF107
     /tmp/ccqVkRqo.s:2322   .debug_str:00000000000004e4 .LASF108
     /tmp/ccqVkRqo.s:2234   .debug_str:000000000000026b .LASF109
     /tmp/ccqVkRqo.s:2402   .debug_str:0000000000000702 .LASF110
     /tmp/ccqVkRqo.s:2292   .debug_str:00000000000003f2 .LASF111
     /tmp/ccqVkRqo.s:2328   .debug_str:000000000000050d .LASF112
     /tmp/ccqVkRqo.s:2212   .debug_str:00000000000001a4 .LASF113
     /tmp/ccqVkRqo.s:2382   .debug_str:000000000000067f .LASF114
     /tmp/ccqVkRqo.s:2302   .debug_str:000000000000044d .LASF115
     /tmp/ccqVkRqo.s:2198   .debug_str:0000000000000139 .LASF116
     /tmp/ccqVkRqo.s:2294   .debug_str:0000000000000403 .LASF117
     /tmp/ccqVkRqo.s:2226   .debug_str:0000000000000217 .LASF119
     /tmp/ccqVkRqo.s:21     .text:0000000000000000 .LFB52
     /tmp/ccqVkRqo.s:204    .text:000000000000012c .LFE52
     /tmp/ccqVkRqo.s:2364   .debug_str:0000000000000605 .LASF120
     /tmp/ccqVkRqo.s:146    .text:00000000000000cc .LBB22
     /tmp/ccqVkRqo.s:181    .text:0000000000000100 .LBE22
     /tmp/ccqVkRqo.s:2340   .debug_str:0000000000000571 .LASF121
     /tmp/ccqVkRqo.s:2087   .debug_loc:0000000000000000 .LLST4
     /tmp/ccqVkRqo.s:2370   .debug_str:000000000000062c .LASF122
     /tmp/ccqVkRqo.s:2388   .debug_str:00000000000006a7 .LASF148
     /tmp/ccqVkRqo.s:2098   .debug_loc:0000000000000036 .LLST5
     /tmp/ccqVkRqo.s:2156   .debug_str:0000000000000000 .LASF123
     /tmp/ccqVkRqo.s:166    .text:00000000000000ec .LBB23
GAS LISTING /tmp/ccqVkRqo.s 			page 15


     /tmp/ccqVkRqo.s:180    .text:0000000000000100 .LBE23
     /tmp/ccqVkRqo.s:2105   .debug_loc:0000000000000059 .LLST6
     /tmp/ccqVkRqo.s:175    .text:00000000000000fc .LVL18
     /tmp/ccqVkRqo.s:150    .text:00000000000000d8 .LVL14
     /tmp/ccqVkRqo.s:55     .text:0000000000000044 .LBB14
     /tmp/ccqVkRqo.s:67     .text:0000000000000048 .LBE14
     /tmp/ccqVkRqo.s:2112   .debug_loc:000000000000007c .LLST0
     /tmp/ccqVkRqo.s:69     .text:0000000000000048 .LBB16
     /tmp/ccqVkRqo.s:81     .text:0000000000000050 .LBE16
     /tmp/ccqVkRqo.s:2119   .debug_loc:000000000000009f .LLST1
     /tmp/ccqVkRqo.s:118    .text:00000000000000b0 .LBB18
     /tmp/ccqVkRqo.s:126    .text:00000000000000b4 .LBE18
     /tmp/ccqVkRqo.s:2127   .debug_loc:00000000000000c3 .LLST2
     /tmp/ccqVkRqo.s:132    .text:00000000000000bc .LBB20
     /tmp/ccqVkRqo.s:139    .text:00000000000000c0 .LBE20
     /tmp/ccqVkRqo.s:2134   .debug_loc:00000000000000e6 .LLST3
     /tmp/ccqVkRqo.s:43     .text:0000000000000028 .LVL0
     /tmp/ccqVkRqo.s:88     .text:0000000000000068 .LVL4
     /tmp/ccqVkRqo.s:93     .text:0000000000000078 .LVL5
     /tmp/ccqVkRqo.s:100    .text:0000000000000090 .LVL6
     /tmp/ccqVkRqo.s:105    .text:00000000000000a0 .LVL7
     /tmp/ccqVkRqo.s:111    .text:00000000000000ac .LVL8
     /tmp/ccqVkRqo.s:186    .text:0000000000000110 .LVL20
     /tmp/ccqVkRqo.s:2420   .debug_str:0000000000000792 .LASF124
     /tmp/ccqVkRqo.s:2284   .debug_str:00000000000003c0 .LASF125
     /tmp/ccqVkRqo.s:2224   .debug_str:0000000000000212 .LASF126
     /tmp/ccqVkRqo.s:2170   .debug_str:0000000000000075 .LASF127
     /tmp/ccqVkRqo.s:2274   .debug_str:000000000000037a .LASF149
     /tmp/ccqVkRqo.s:2306   .debug_str:0000000000000474 .LASF128
     /tmp/ccqVkRqo.s:2216   .debug_str:00000000000001d2 .LASF130
     /tmp/ccqVkRqo.s:2314   .debug_str:00000000000004a9 .LASF129
     /tmp/ccqVkRqo.s:2162   .debug_str:0000000000000020 .LASF131
     /tmp/ccqVkRqo.s:2230   .debug_str:000000000000022c .LASF132
     /tmp/ccqVkRqo.s:2414   .debug_str:0000000000000755 .LASF134
     /tmp/ccqVkRqo.s:2372   .debug_str:0000000000000638 .LASF133
     /tmp/ccqVkRqo.s:2446   .debug_str:0000000000000899 .LASF135
     /tmp/ccqVkRqo.s:2176   .debug_str:0000000000000091 .LASF136
     /tmp/ccqVkRqo.s:2336   .debug_str:0000000000000550 .LASF137
     /tmp/ccqVkRqo.s:144    .text:00000000000000cc .LVL13
     /tmp/ccqVkRqo.s:154    .text:00000000000000dc .LVL15
     /tmp/ccqVkRqo.s:159    .text:00000000000000e4 .LVL16
     /tmp/ccqVkRqo.s:177    .text:0000000000000100 .LVL19
     /tmp/ccqVkRqo.s:197    .text:0000000000000120 .LVL21
     /tmp/ccqVkRqo.s:165    .text:00000000000000ec .LVL17
     /tmp/ccqVkRqo.s:54     .text:0000000000000044 .LVL1
     /tmp/ccqVkRqo.s:64     .text:0000000000000048 .LVL2
     /tmp/ccqVkRqo.s:78     .text:0000000000000050 .LVL3
     /tmp/ccqVkRqo.s:117    .text:00000000000000b0 .LVL9
     /tmp/ccqVkRqo.s:124    .text:00000000000000b4 .LVL10
     /tmp/ccqVkRqo.s:131    .text:00000000000000bc .LVL11
     /tmp/ccqVkRqo.s:137    .text:00000000000000c0 .LVL12
     /tmp/ccqVkRqo.s:211    .debug_info:0000000000000000 .Ldebug_info0

UNDEFINED SYMBOLS
_ZN3TCB12createThreadEPFvPvES0_
_ZN3TCB7runningE
_ZN5Riscv16stvecVectorTableEv
GAS LISTING /tmp/ccqVkRqo.s 			page 16


_Z11workerBodyAPv
_Z13thread_createPP3TCBPFvPvES2_
_Z11printStringPKc
_Z11workerBodyBPv
_Z15thread_dispatchv
_ZdlPv
_ZdaPv
