GAS LISTING /tmp/ccEY5aWO.s 			page 1


   1              		.file	"memoryAllocator.cpp"
   2              		.option pic
   3              		.option norelax
   4              		.text
   5              	.Ltext0:
   6              		.align	2
   7              		.globl	_ZN15MemoryAllocator9mem_allocEm
   9              	_ZN15MemoryAllocator9mem_allocEm:
  10              	.LFB1:
  11              		.file 1 "src/memoryAllocator.cpp"
   1:src/memoryAllocator.cpp **** #include "../lib/hw.h"
   2:src/memoryAllocator.cpp **** #include "../h/memoryAllocator.hpp"
   3:src/memoryAllocator.cpp **** 
   4:src/memoryAllocator.cpp **** 
   5:src/memoryAllocator.cpp **** DataBlock* MemoryAllocator::free = nullptr;
   6:src/memoryAllocator.cpp **** DataBlock* MemoryAllocator::used = nullptr;
   7:src/memoryAllocator.cpp **** int MemoryAllocator::newCalled = 0;
   8:src/memoryAllocator.cpp **** int MemoryAllocator::newArrayCalled = 0;
   9:src/memoryAllocator.cpp **** int MemoryAllocator::deleteCalled = 0;
  10:src/memoryAllocator.cpp **** int MemoryAllocator::deleteArrayCalled = 0;
  11:src/memoryAllocator.cpp **** 
  12:src/memoryAllocator.cpp **** 
  13:src/memoryAllocator.cpp **** void *MemoryAllocator::mem_alloc(size_t size) {
  12              		.loc 1 13 47
  13              		.cfi_startproc
  14              	.LVL0:
  15 0000 130101FF 		addi	sp,sp,-16
  16              		.cfi_def_cfa_offset 16
  17 0004 23348100 		sd	s0,8(sp)
  18              		.cfi_offset 8, -8
  19 0008 13040101 		addi	s0,sp,16
  20              		.cfi_def_cfa 8, 0
  21 000c 93070500 		mv	a5,a0
  14:src/memoryAllocator.cpp ****     size_t newSize;
  22              		.loc 1 14 5
  15:src/memoryAllocator.cpp ****     if(size%MEM_BLOCK_SIZE != 0) {
  23              		.loc 1 15 5
  24              		.loc 1 15 12 is_stmt 0
  25 0010 1377F503 		andi	a4,a0,63
  26              		.loc 1 15 5
  27 0014 63060700 		beqz	a4,.L2
  16:src/memoryAllocator.cpp ****         newSize = ((size + MEM_BLOCK_SIZE - 1) / MEM_BLOCK_SIZE) * MEM_BLOCK_SIZE;
  28              		.loc 1 16 9 is_stmt 1
  29              		.loc 1 16 43 is_stmt 0
  30 0018 9307F503 		addi	a5,a0,63
  31              		.loc 1 16 17
  32 001c 93F707FC 		andi	a5,a5,-64
  33              	.LVL1:
  34              	.L2:
  17:src/memoryAllocator.cpp ****     }
  18:src/memoryAllocator.cpp ****     else {
  19:src/memoryAllocator.cpp ****         newSize = size;
  20:src/memoryAllocator.cpp ****     }
  21:src/memoryAllocator.cpp **** 
  22:src/memoryAllocator.cpp ****     for(DataBlock* curr = MemoryAllocator::free; curr != nullptr; curr=curr->next) {
  35              		.loc 1 22 5 is_stmt 1
  36              	.LBB2:
GAS LISTING /tmp/ccEY5aWO.s 			page 2


  37              		.loc 1 22 20 is_stmt 0
  38 0020 17050000 		ld	a0,.LANCHOR0
  38      03350500 
  39              	.LVL2:
  40              	.L5:
  41              		.loc 1 22 55 is_stmt 1 discriminator 1
  42 0028 630E0506 		beqz	a0,.L1
  43              	.LBB3:
  23:src/memoryAllocator.cpp ****         if(curr->size<newSize) continue;
  44              		.loc 1 23 9
  45              		.loc 1 23 18 is_stmt 0
  46 002c 03370501 		ld	a4,16(a0)
  47              		.loc 1 23 9
  48 0030 6360F708 		bltu	a4,a5,.L23
  24:src/memoryAllocator.cpp ****         if(curr->size > newSize) {
  49              		.loc 1 24 9 is_stmt 1
  50              	.LBB4:
  51 0034 63F6E70C 		bleu	a4,a5,.L6
  52              	.LBB5:
  25:src/memoryAllocator.cpp ****             //new fragment needs to be created
  26:src/memoryAllocator.cpp ****             //novi ce biti offsetovan od curr za novi size i plus za sizeof(DataBlock) zato sto se 
  27:src/memoryAllocator.cpp ****             // nalazi taj "header"
  28:src/memoryAllocator.cpp ****             DataBlock *newBlock;
  53              		.loc 1 28 13
  29:src/memoryAllocator.cpp ****             newBlock = (DataBlock*) ((char*)curr + newSize + sizeof(DataBlock));
  54              		.loc 1 29 13
  55              		.loc 1 29 60 is_stmt 0
  56 0038 13878701 		addi	a4,a5,24
  57              		.loc 1 29 22
  58 003c 3307E500 		add	a4,a0,a4
  59              	.LVL3:
  30:src/memoryAllocator.cpp **** 
  31:src/memoryAllocator.cpp ****             //Azuriranje free liste
  32:src/memoryAllocator.cpp ****             if(curr->prev) curr->prev->next = newBlock;
  60              		.loc 1 32 13 is_stmt 1
  61              		.loc 1 32 22 is_stmt 0
  62 0040 83368500 		ld	a3,8(a0)
  63              		.loc 1 32 13
  64 0044 638A0606 		beqz	a3,.L7
  65              		.loc 1 32 28 is_stmt 1 discriminator 1
  66              		.loc 1 32 45 is_stmt 0 discriminator 1
  67 0048 23B0E600 		sd	a4,0(a3)
  68              	.L8:
  33:src/memoryAllocator.cpp ****             else MemoryAllocator::free = newBlock;
  34:src/memoryAllocator.cpp ****             if(curr->next) curr->next->prev = newBlock;
  69              		.loc 1 34 13 is_stmt 1
  70              		.loc 1 34 22 is_stmt 0
  71 004c 83360500 		ld	a3,0(a0)
  72              		.loc 1 34 13
  73 0050 63840600 		beqz	a3,.L9
  74              		.loc 1 34 28 is_stmt 1 discriminator 1
  75              		.loc 1 34 45 is_stmt 0 discriminator 1
  76 0054 23B4E600 		sd	a4,8(a3)
  77              	.L9:
  35:src/memoryAllocator.cpp ****             newBlock->prev = curr->prev;
  78              		.loc 1 35 13 is_stmt 1
  79              		.loc 1 35 36 is_stmt 0
GAS LISTING /tmp/ccEY5aWO.s 			page 3


  80 0058 83368500 		ld	a3,8(a0)
  81              		.loc 1 35 28
  82 005c 2334D700 		sd	a3,8(a4)
  36:src/memoryAllocator.cpp ****             newBlock->next = curr->next;
  83              		.loc 1 36 13 is_stmt 1
  84              		.loc 1 36 36 is_stmt 0
  85 0060 83360500 		ld	a3,0(a0)
  86              		.loc 1 36 28
  87 0064 2330D700 		sd	a3,0(a4)
  37:src/memoryAllocator.cpp ****             //size novi je sada prethodni size - novi size i jos - sizeof(DataBlock) jer se to ne b
  38:src/memoryAllocator.cpp ****             //pa mora i to da se cuva
  39:src/memoryAllocator.cpp ****             newBlock->size = curr->size - newSize - sizeof(DataBlock);
  88              		.loc 1 39 13 is_stmt 1
  89              		.loc 1 39 36 is_stmt 0
  90 0068 83360501 		ld	a3,16(a0)
  91              		.loc 1 39 41
  92 006c B386F640 		sub	a3,a3,a5
  93              		.loc 1 39 51
  94 0070 938686FE 		addi	a3,a3,-24
  95              		.loc 1 39 28
  96 0074 2338D700 		sd	a3,16(a4)
  40:src/memoryAllocator.cpp ****             curr->size = newSize;
  97              		.loc 1 40 13 is_stmt 1
  98              		.loc 1 40 24 is_stmt 0
  99 0078 2338F500 		sd	a5,16(a0)
  41:src/memoryAllocator.cpp **** 
  42:src/memoryAllocator.cpp **** 
  43:src/memoryAllocator.cpp ****             //azuriranje USED liste
  44:src/memoryAllocator.cpp ****             if(used == nullptr) {
 100              		.loc 1 44 13 is_stmt 1
 101              	.LBB6:
 102              		.loc 1 44 21 is_stmt 0
 103 007c 97070000 		ld	a5,.LANCHOR0+8
 103      83B70700 
 104              	.LVL4:
 105              		.loc 1 44 13
 106 0084 63800704 		beqz	a5,.L24
 107              	.LBE6:
 108              	.LBE5:
 109              	.LBE4:
 110              	.LBE3:
 111              	.LBE2:
  45:src/memoryAllocator.cpp ****                 used = curr;
  46:src/memoryAllocator.cpp ****                 curr->next = nullptr;
  47:src/memoryAllocator.cpp ****                 curr->prev = nullptr;
  48:src/memoryAllocator.cpp ****             }
  49:src/memoryAllocator.cpp ****             else if((char*) curr < (char*)used) {
 112              		.loc 1 49 18 is_stmt 1
 113              	.LBB29:
 114              	.LBB25:
 115              	.LBB22:
 116              	.LBB12:
 117              	.LBB10:
 118              	.LBB7:
 119 0088 6378F504 		bleu	a5,a0,.L12
  50:src/memoryAllocator.cpp ****                 //treba da ide pre trenutnog used
  51:src/memoryAllocator.cpp ****                 used->prev = curr;
GAS LISTING /tmp/ccEY5aWO.s 			page 4


 120              		.loc 1 51 17
 121              		.loc 1 51 28 is_stmt 0
 122 008c 23B4A700 		sd	a0,8(a5)
 123              	.LVL5:
  52:src/memoryAllocator.cpp ****                 curr->prev = nullptr;
 124              		.loc 1 52 17 is_stmt 1
 125              		.loc 1 52 28 is_stmt 0
 126 0090 23340500 		sd	zero,8(a0)
  53:src/memoryAllocator.cpp ****                 curr->next = used;
 127              		.loc 1 53 17 is_stmt 1
 128              		.loc 1 53 28 is_stmt 0
 129 0094 2330F500 		sd	a5,0(a0)
  54:src/memoryAllocator.cpp ****                 used = curr;
 130              		.loc 1 54 17 is_stmt 1
 131              		.loc 1 54 22 is_stmt 0
 132 0098 97070000 		sd	a0,.LANCHOR0+8,a5
 132      23B0A700 
 133              	.LVL6:
 134              	.L11:
 135              	.LBE7:
 136              	.LBE10:
 137              	.LBE12:
 138              	.LBE22:
  55:src/memoryAllocator.cpp ****             }
  56:src/memoryAllocator.cpp ****             else {
  57:src/memoryAllocator.cpp ****                 //Find place in list
  58:src/memoryAllocator.cpp ****                 DataBlock* currUsed = used;
  59:src/memoryAllocator.cpp ****                 for(; currUsed->next && (char*)(currUsed->next) < (char*) curr; currUsed = currUsed
  60:src/memoryAllocator.cpp **** 
  61:src/memoryAllocator.cpp ****                 curr->next = currUsed->next;
  62:src/memoryAllocator.cpp ****                 curr->prev = currUsed;
  63:src/memoryAllocator.cpp ****                 if(curr->next) curr->next->prev = curr;
  64:src/memoryAllocator.cpp ****                 currUsed->next = curr;
  65:src/memoryAllocator.cpp ****             }
  66:src/memoryAllocator.cpp ****         }
  67:src/memoryAllocator.cpp ****         else {
  68:src/memoryAllocator.cpp ****             //They are the exact same size
  69:src/memoryAllocator.cpp ****             //Update FREE list
  70:src/memoryAllocator.cpp ****             if (curr->prev) curr->prev->next = curr->next;
  71:src/memoryAllocator.cpp ****             else MemoryAllocator::free = curr->next;
  72:src/memoryAllocator.cpp **** 
  73:src/memoryAllocator.cpp ****             if(curr->next) curr->next->prev = curr->prev;
  74:src/memoryAllocator.cpp **** 
  75:src/memoryAllocator.cpp ****             //azuriranje USED liste
  76:src/memoryAllocator.cpp ****             if(used == nullptr) {
  77:src/memoryAllocator.cpp ****                 used = curr;
  78:src/memoryAllocator.cpp ****                 curr->next = nullptr;
  79:src/memoryAllocator.cpp ****                 curr->prev = nullptr;
  80:src/memoryAllocator.cpp ****             }
  81:src/memoryAllocator.cpp ****             else if((char*) curr < (char*)used) {
  82:src/memoryAllocator.cpp ****                 //treba da ide pre trenutnog used
  83:src/memoryAllocator.cpp ****                 used->prev = curr;
  84:src/memoryAllocator.cpp ****                 curr->prev = nullptr;
  85:src/memoryAllocator.cpp ****                 curr->next = used;
  86:src/memoryAllocator.cpp ****                 used = curr;
  87:src/memoryAllocator.cpp ****             }
  88:src/memoryAllocator.cpp ****             else {
GAS LISTING /tmp/ccEY5aWO.s 			page 5


  89:src/memoryAllocator.cpp ****                 //Find place in list
  90:src/memoryAllocator.cpp ****                 DataBlock* currUsed = used;
  91:src/memoryAllocator.cpp ****                 for(; currUsed->next && (char*)(currUsed->next) < (char*) curr; currUsed = currUsed
  92:src/memoryAllocator.cpp **** 
  93:src/memoryAllocator.cpp ****                 curr->next = currUsed->next;
  94:src/memoryAllocator.cpp ****                 curr->prev = currUsed;
  95:src/memoryAllocator.cpp ****                 if(curr->next) curr->next->prev = curr;
  96:src/memoryAllocator.cpp ****                 currUsed->next = curr;
  97:src/memoryAllocator.cpp ****             }
  98:src/memoryAllocator.cpp ****         }
  99:src/memoryAllocator.cpp ****         return (char*)curr + sizeof(DataBlock);
 139              		.loc 1 99 9 is_stmt 1
 140              		.loc 1 99 46 is_stmt 0
 141 00a0 13058501 		addi	a0,a0,24
 142              	.LVL7:
 143              	.L1:
 144              	.LBE25:
 145              	.LBE29:
 100:src/memoryAllocator.cpp ****     }
 101:src/memoryAllocator.cpp ****     return nullptr; //should not enter here
 102:src/memoryAllocator.cpp **** }
 146              		.loc 1 102 1
 147 00a4 03348100 		ld	s0,8(sp)
 148              		.cfi_remember_state
 149              		.cfi_restore 8
 150              		.cfi_def_cfa 2, 16
 151 00a8 13010101 		addi	sp,sp,16
 152              		.cfi_def_cfa_offset 0
 153 00ac 67800000 		jr	ra
 154              	.LVL8:
 155              	.L23:
 156              		.cfi_restore_state
 157              	.LBB30:
 158              	.LBB26:
  23:src/memoryAllocator.cpp ****         if(curr->size > newSize) {
 159              		.loc 1 23 32 is_stmt 1 discriminator 1
 160              	.LBE26:
  22:src/memoryAllocator.cpp ****         if(curr->size<newSize) continue;
 161              		.loc 1 22 5 discriminator 1
  22:src/memoryAllocator.cpp ****         if(curr->size<newSize) continue;
 162              		.loc 1 22 71 is_stmt 0 discriminator 1
 163 00b0 03350500 		ld	a0,0(a0)
 164              	.LVL9:
  22:src/memoryAllocator.cpp ****         if(curr->size<newSize) continue;
 165              		.loc 1 22 5 discriminator 1
 166 00b4 6FF05FF7 		j	.L5
 167              	.LVL10:
 168              	.L7:
 169              	.LBB27:
 170              	.LBB23:
 171              	.LBB13:
  33:src/memoryAllocator.cpp ****             if(curr->next) curr->next->prev = newBlock;
 172              		.loc 1 33 18 is_stmt 1
  33:src/memoryAllocator.cpp ****             if(curr->next) curr->next->prev = newBlock;
 173              		.loc 1 33 40 is_stmt 0
 174 00b8 97060000 		sd	a4,.LANCHOR0,a3
 174      23B0E600 
GAS LISTING /tmp/ccEY5aWO.s 			page 6


 175 00c0 6FF0DFF8 		j	.L8
 176              	.LVL11:
 177              	.L24:
 178              	.LBB11:
  45:src/memoryAllocator.cpp ****                 curr->next = nullptr;
 179              		.loc 1 45 17 is_stmt 1
  45:src/memoryAllocator.cpp ****                 curr->next = nullptr;
 180              		.loc 1 45 22 is_stmt 0
 181 00c4 97070000 		sd	a0,.LANCHOR0+8,a5
 181      23B0A700 
  46:src/memoryAllocator.cpp ****                 curr->prev = nullptr;
 182              		.loc 1 46 17 is_stmt 1
  46:src/memoryAllocator.cpp ****                 curr->prev = nullptr;
 183              		.loc 1 46 28 is_stmt 0
 184 00cc 23300500 		sd	zero,0(a0)
  47:src/memoryAllocator.cpp ****             }
 185              		.loc 1 47 17 is_stmt 1
  47:src/memoryAllocator.cpp ****             }
 186              		.loc 1 47 28 is_stmt 0
 187 00d0 23340500 		sd	zero,8(a0)
 188 00d4 6FF0DFFC 		j	.L11
 189              	.LVL12:
 190              	.L12:
 191              	.LBB9:
 192              	.LBB8:
  59:src/memoryAllocator.cpp **** 
 193              		.loc 1 59 17 is_stmt 1 discriminator 3
  59:src/memoryAllocator.cpp **** 
 194              		.loc 1 59 38 discriminator 3
 195 00d8 13870700 		mv	a4,a5
  59:src/memoryAllocator.cpp **** 
 196              		.loc 1 59 33 is_stmt 0 discriminator 3
 197 00dc 83B70700 		ld	a5,0(a5)
 198              	.LVL13:
  59:src/memoryAllocator.cpp **** 
 199              		.loc 1 59 38 discriminator 3
 200 00e0 63840700 		beqz	a5,.L13
  59:src/memoryAllocator.cpp **** 
 201              		.loc 1 59 38 discriminator 1
 202 00e4 E3EAA7FE 		bltu	a5,a0,.L12
 203              	.L13:
  61:src/memoryAllocator.cpp ****                 curr->prev = currUsed;
 204              		.loc 1 61 17 is_stmt 1
  61:src/memoryAllocator.cpp ****                 curr->prev = currUsed;
 205              		.loc 1 61 28 is_stmt 0
 206 00e8 2330F500 		sd	a5,0(a0)
  62:src/memoryAllocator.cpp ****                 if(curr->next) curr->next->prev = curr;
 207              		.loc 1 62 17 is_stmt 1
  62:src/memoryAllocator.cpp ****                 if(curr->next) curr->next->prev = curr;
 208              		.loc 1 62 28 is_stmt 0
 209 00ec 2334E500 		sd	a4,8(a0)
  63:src/memoryAllocator.cpp ****                 currUsed->next = curr;
 210              		.loc 1 63 17 is_stmt 1
 211 00f0 63840700 		beqz	a5,.L14
  63:src/memoryAllocator.cpp ****                 currUsed->next = curr;
 212              		.loc 1 63 32 discriminator 1
  63:src/memoryAllocator.cpp ****                 currUsed->next = curr;
GAS LISTING /tmp/ccEY5aWO.s 			page 7


 213              		.loc 1 63 49 is_stmt 0 discriminator 1
 214 00f4 23B4A700 		sd	a0,8(a5)
 215              	.LVL14:
 216              	.L14:
  64:src/memoryAllocator.cpp ****             }
 217              		.loc 1 64 17 is_stmt 1
  64:src/memoryAllocator.cpp ****             }
 218              		.loc 1 64 32 is_stmt 0
 219 00f8 2330A700 		sd	a0,0(a4)
 220 00fc 6FF05FFA 		j	.L11
 221              	.LVL15:
 222              	.L6:
 223              	.LBE8:
 224              	.LBE9:
 225              	.LBE11:
 226              	.LBE13:
 227              	.LBB14:
  70:src/memoryAllocator.cpp ****             else MemoryAllocator::free = curr->next;
 228              		.loc 1 70 13 is_stmt 1
  70:src/memoryAllocator.cpp ****             else MemoryAllocator::free = curr->next;
 229              		.loc 1 70 23 is_stmt 0
 230 0100 83378500 		ld	a5,8(a0)
 231              	.LVL16:
  70:src/memoryAllocator.cpp ****             else MemoryAllocator::free = curr->next;
 232              		.loc 1 70 13
 233 0104 63820704 		beqz	a5,.L15
  70:src/memoryAllocator.cpp ****             else MemoryAllocator::free = curr->next;
 234              		.loc 1 70 29 is_stmt 1 discriminator 1
  70:src/memoryAllocator.cpp ****             else MemoryAllocator::free = curr->next;
 235              		.loc 1 70 54 is_stmt 0 discriminator 1
 236 0108 03370500 		ld	a4,0(a0)
  70:src/memoryAllocator.cpp ****             else MemoryAllocator::free = curr->next;
 237              		.loc 1 70 46 discriminator 1
 238 010c 23B0E700 		sd	a4,0(a5)
 239              	.L16:
  73:src/memoryAllocator.cpp **** 
 240              		.loc 1 73 13 is_stmt 1
  73:src/memoryAllocator.cpp **** 
 241              		.loc 1 73 22 is_stmt 0
 242 0110 83370500 		ld	a5,0(a0)
  73:src/memoryAllocator.cpp **** 
 243              		.loc 1 73 13
 244 0114 63860700 		beqz	a5,.L17
  73:src/memoryAllocator.cpp **** 
 245              		.loc 1 73 28 is_stmt 1 discriminator 1
  73:src/memoryAllocator.cpp **** 
 246              		.loc 1 73 53 is_stmt 0 discriminator 1
 247 0118 03378500 		ld	a4,8(a0)
  73:src/memoryAllocator.cpp **** 
 248              		.loc 1 73 45 discriminator 1
 249 011c 23B4E700 		sd	a4,8(a5)
 250              	.L17:
  76:src/memoryAllocator.cpp ****                 used = curr;
 251              		.loc 1 76 13 is_stmt 1
 252              	.LBB15:
  76:src/memoryAllocator.cpp ****                 used = curr;
 253              		.loc 1 76 21 is_stmt 0
GAS LISTING /tmp/ccEY5aWO.s 			page 8


 254 0120 97070000 		ld	a5,.LANCHOR0+8
 254      83B70700 
  76:src/memoryAllocator.cpp ****                 used = curr;
 255              		.loc 1 76 13
 256 0128 63880702 		beqz	a5,.L25
 257              	.LBE15:
 258              	.LBE14:
 259              	.LBE23:
 260              	.LBE27:
 261              	.LBE30:
  81:src/memoryAllocator.cpp ****                 //treba da ide pre trenutnog used
 262              		.loc 1 81 18 is_stmt 1
 263              	.LBB31:
 264              	.LBB28:
 265              	.LBB24:
 266              	.LBB21:
 267              	.LBB19:
 268              	.LBB16:
 269 012c 6370F504 		bleu	a5,a0,.L19
  83:src/memoryAllocator.cpp ****                 curr->prev = nullptr;
 270              		.loc 1 83 17
  83:src/memoryAllocator.cpp ****                 curr->prev = nullptr;
 271              		.loc 1 83 28 is_stmt 0
 272 0130 23B4A700 		sd	a0,8(a5)
  84:src/memoryAllocator.cpp ****                 curr->next = used;
 273              		.loc 1 84 17 is_stmt 1
  84:src/memoryAllocator.cpp ****                 curr->next = used;
 274              		.loc 1 84 28 is_stmt 0
 275 0134 23340500 		sd	zero,8(a0)
  85:src/memoryAllocator.cpp ****                 used = curr;
 276              		.loc 1 85 17 is_stmt 1
  85:src/memoryAllocator.cpp ****                 used = curr;
 277              		.loc 1 85 28 is_stmt 0
 278 0138 2330F500 		sd	a5,0(a0)
  86:src/memoryAllocator.cpp ****             }
 279              		.loc 1 86 17 is_stmt 1
  86:src/memoryAllocator.cpp ****             }
 280              		.loc 1 86 22 is_stmt 0
 281 013c 97070000 		sd	a0,.LANCHOR0+8,a5
 281      23B0A700 
 282 0144 6FF0DFF5 		j	.L11
 283              	.L15:
 284              	.LBE16:
 285              	.LBE19:
  71:src/memoryAllocator.cpp **** 
 286              		.loc 1 71 18 is_stmt 1
  71:src/memoryAllocator.cpp **** 
 287              		.loc 1 71 48 is_stmt 0
 288 0148 83370500 		ld	a5,0(a0)
  71:src/memoryAllocator.cpp **** 
 289              		.loc 1 71 40
 290 014c 17070000 		sd	a5,.LANCHOR0,a4
 290      2330F700 
 291 0154 6FF0DFFB 		j	.L16
 292              	.L25:
 293              	.LBB20:
  77:src/memoryAllocator.cpp ****                 curr->next = nullptr;
GAS LISTING /tmp/ccEY5aWO.s 			page 9


 294              		.loc 1 77 17 is_stmt 1
  77:src/memoryAllocator.cpp ****                 curr->next = nullptr;
 295              		.loc 1 77 22 is_stmt 0
 296 0158 97070000 		sd	a0,.LANCHOR0+8,a5
 296      23B0A700 
  78:src/memoryAllocator.cpp ****                 curr->prev = nullptr;
 297              		.loc 1 78 17 is_stmt 1
  78:src/memoryAllocator.cpp ****                 curr->prev = nullptr;
 298              		.loc 1 78 28 is_stmt 0
 299 0160 23300500 		sd	zero,0(a0)
  79:src/memoryAllocator.cpp ****             }
 300              		.loc 1 79 17 is_stmt 1
  79:src/memoryAllocator.cpp ****             }
 301              		.loc 1 79 28 is_stmt 0
 302 0164 23340500 		sd	zero,8(a0)
 303 0168 6FF09FF3 		j	.L11
 304              	.L19:
 305              	.LVL17:
 306              	.LBB18:
 307              	.LBB17:
  91:src/memoryAllocator.cpp **** 
 308              		.loc 1 91 17 is_stmt 1 discriminator 3
  91:src/memoryAllocator.cpp **** 
 309              		.loc 1 91 38 discriminator 3
 310 016c 13870700 		mv	a4,a5
  91:src/memoryAllocator.cpp **** 
 311              		.loc 1 91 33 is_stmt 0 discriminator 3
 312 0170 83B70700 		ld	a5,0(a5)
 313              	.LVL18:
  91:src/memoryAllocator.cpp **** 
 314              		.loc 1 91 38 discriminator 3
 315 0174 63840700 		beqz	a5,.L20
  91:src/memoryAllocator.cpp **** 
 316              		.loc 1 91 38 discriminator 1
 317 0178 E3EAA7FE 		bltu	a5,a0,.L19
 318              	.L20:
  93:src/memoryAllocator.cpp ****                 curr->prev = currUsed;
 319              		.loc 1 93 17 is_stmt 1
  93:src/memoryAllocator.cpp ****                 curr->prev = currUsed;
 320              		.loc 1 93 28 is_stmt 0
 321 017c 2330F500 		sd	a5,0(a0)
  94:src/memoryAllocator.cpp ****                 if(curr->next) curr->next->prev = curr;
 322              		.loc 1 94 17 is_stmt 1
  94:src/memoryAllocator.cpp ****                 if(curr->next) curr->next->prev = curr;
 323              		.loc 1 94 28 is_stmt 0
 324 0180 2334E500 		sd	a4,8(a0)
  95:src/memoryAllocator.cpp ****                 currUsed->next = curr;
 325              		.loc 1 95 17 is_stmt 1
 326 0184 63840700 		beqz	a5,.L21
  95:src/memoryAllocator.cpp ****                 currUsed->next = curr;
 327              		.loc 1 95 32 discriminator 1
  95:src/memoryAllocator.cpp ****                 currUsed->next = curr;
 328              		.loc 1 95 49 is_stmt 0 discriminator 1
 329 0188 23B4A700 		sd	a0,8(a5)
 330              	.L21:
  96:src/memoryAllocator.cpp ****             }
 331              		.loc 1 96 17 is_stmt 1
GAS LISTING /tmp/ccEY5aWO.s 			page 10


  96:src/memoryAllocator.cpp ****             }
 332              		.loc 1 96 32 is_stmt 0
 333 018c 2330A700 		sd	a0,0(a4)
 334 0190 6FF01FF1 		j	.L11
 335              	.LBE17:
 336              	.LBE18:
 337              	.LBE20:
 338              	.LBE21:
 339              	.LBE24:
 340              	.LBE28:
 341              	.LBE31:
 342              		.cfi_endproc
 343              	.LFE1:
 345              		.align	2
 346              		.globl	_ZN15MemoryAllocator9tryToJoinEP9DataBlock
 348              	_ZN15MemoryAllocator9tryToJoinEP9DataBlock:
 349              	.LFB3:
 103:src/memoryAllocator.cpp **** 
 104:src/memoryAllocator.cpp **** int MemoryAllocator::mem_free(void* ptr) {
 105:src/memoryAllocator.cpp ****     if(used == nullptr) return -1;
 106:src/memoryAllocator.cpp ****     if(ptr == nullptr || ptr < HEAP_START_ADDR || ptr > HEAP_END_ADDR) return -2;
 107:src/memoryAllocator.cpp **** 
 108:src/memoryAllocator.cpp ****     DataBlock* curr = (DataBlock*)((char*)ptr - sizeof(DataBlock));
 109:src/memoryAllocator.cpp ****     if(curr < used) return -3;
 110:src/memoryAllocator.cpp **** 
 111:src/memoryAllocator.cpp ****     //Delete from USED list
 112:src/memoryAllocator.cpp ****     if(used == curr) {
 113:src/memoryAllocator.cpp ****         used = curr->next;
 114:src/memoryAllocator.cpp ****         if(used) used->prev = nullptr;
 115:src/memoryAllocator.cpp ****         curr->next = nullptr;
 116:src/memoryAllocator.cpp ****         curr->prev = nullptr;
 117:src/memoryAllocator.cpp ****     } else {
 118:src/memoryAllocator.cpp ****         curr->prev->next = curr->next;
 119:src/memoryAllocator.cpp ****         if(curr->next) curr->next->prev = curr->prev;
 120:src/memoryAllocator.cpp ****         curr->next = nullptr;
 121:src/memoryAllocator.cpp ****         curr->prev = nullptr;
 122:src/memoryAllocator.cpp ****     }
 123:src/memoryAllocator.cpp **** 
 124:src/memoryAllocator.cpp ****     //Insert into FREE list
 125:src/memoryAllocator.cpp ****     if (free == nullptr) {
 126:src/memoryAllocator.cpp ****         //Insert as first
 127:src/memoryAllocator.cpp ****         free = curr;
 128:src/memoryAllocator.cpp ****         curr->next = nullptr;
 129:src/memoryAllocator.cpp ****         curr->prev = nullptr;
 130:src/memoryAllocator.cpp ****     }
 131:src/memoryAllocator.cpp ****     else if((char*)curr < (char*)free) {
 132:src/memoryAllocator.cpp ****         free->prev = curr;
 133:src/memoryAllocator.cpp ****         curr->prev = nullptr;
 134:src/memoryAllocator.cpp ****         curr->next = free;
 135:src/memoryAllocator.cpp ****         free = curr;
 136:src/memoryAllocator.cpp ****         tryToJoin(free);
 137:src/memoryAllocator.cpp ****     }
 138:src/memoryAllocator.cpp ****     else {
 139:src/memoryAllocator.cpp ****         //Find place in list
 140:src/memoryAllocator.cpp ****         DataBlock* currFree = free;
 141:src/memoryAllocator.cpp ****         for(currFree = free; currFree->next && (char*)(currFree->next) < (char*) curr; currFree = c
 142:src/memoryAllocator.cpp **** 
GAS LISTING /tmp/ccEY5aWO.s 			page 11


 143:src/memoryAllocator.cpp ****         curr->next = currFree->next;
 144:src/memoryAllocator.cpp ****         curr->prev = currFree;
 145:src/memoryAllocator.cpp ****         if(curr->next) curr->next->prev = curr;
 146:src/memoryAllocator.cpp ****         currFree->next = curr;
 147:src/memoryAllocator.cpp ****         tryToJoin(curr);
 148:src/memoryAllocator.cpp ****         tryToJoin(currFree);
 149:src/memoryAllocator.cpp ****     }
 150:src/memoryAllocator.cpp ****     return 0;
 151:src/memoryAllocator.cpp **** }
 152:src/memoryAllocator.cpp **** 
 153:src/memoryAllocator.cpp **** void MemoryAllocator::tryToJoin(DataBlock *curr) {
 350              		.loc 1 153 50 is_stmt 1
 351              		.cfi_startproc
 352              	.LVL19:
 353 0194 130101FF 		addi	sp,sp,-16
 354              		.cfi_def_cfa_offset 16
 355 0198 23348100 		sd	s0,8(sp)
 356              		.cfi_offset 8, -8
 357 019c 13040101 		addi	s0,sp,16
 358              		.cfi_def_cfa 8, 0
 154:src/memoryAllocator.cpp ****     if(curr->next && (char*)curr + sizeof(DataBlock) + curr->size == (char*)curr->next) {
 359              		.loc 1 154 5
 360              		.loc 1 154 14 is_stmt 0
 361 01a0 83370500 		ld	a5,0(a0)
 362              		.loc 1 154 5
 363 01a4 638A0700 		beqz	a5,.L26
 364              		.loc 1 154 62 discriminator 1
 365 01a8 83360501 		ld	a3,16(a0)
 366              		.loc 1 154 54 discriminator 1
 367 01ac 13878601 		addi	a4,a3,24
 368 01b0 3307E500 		add	a4,a0,a4
 369              		.loc 1 154 19 discriminator 1
 370 01b4 6388E700 		beq	a5,a4,.L29
 371              	.L26:
 155:src/memoryAllocator.cpp ****         curr->size += curr->next->size + sizeof(DataBlock);
 156:src/memoryAllocator.cpp ****         curr->next = curr->next->next;
 157:src/memoryAllocator.cpp ****         if(curr->next) curr->next->prev = curr;
 158:src/memoryAllocator.cpp ****     }
 159:src/memoryAllocator.cpp **** }
 372              		.loc 1 159 1
 373 01b8 03348100 		ld	s0,8(sp)
 374              		.cfi_remember_state
 375              		.cfi_restore 8
 376              		.cfi_def_cfa 2, 16
 377 01bc 13010101 		addi	sp,sp,16
 378              		.cfi_def_cfa_offset 0
 379 01c0 67800000 		jr	ra
 380              	.L29:
 381              		.cfi_restore_state
 155:src/memoryAllocator.cpp ****         curr->size += curr->next->size + sizeof(DataBlock);
 382              		.loc 1 155 9 is_stmt 1
 155:src/memoryAllocator.cpp ****         curr->size += curr->next->size + sizeof(DataBlock);
 383              		.loc 1 155 35 is_stmt 0
 384 01c4 03B70701 		ld	a4,16(a5)
 155:src/memoryAllocator.cpp ****         curr->size += curr->next->size + sizeof(DataBlock);
 385              		.loc 1 155 20
 386 01c8 B386E600 		add	a3,a3,a4
GAS LISTING /tmp/ccEY5aWO.s 			page 12


 387 01cc 93868601 		addi	a3,a3,24
 388 01d0 2338D500 		sd	a3,16(a0)
 156:src/memoryAllocator.cpp ****         if(curr->next) curr->next->prev = curr;
 389              		.loc 1 156 9 is_stmt 1
 156:src/memoryAllocator.cpp ****         if(curr->next) curr->next->prev = curr;
 390              		.loc 1 156 34 is_stmt 0
 391 01d4 83B70700 		ld	a5,0(a5)
 156:src/memoryAllocator.cpp ****         if(curr->next) curr->next->prev = curr;
 392              		.loc 1 156 20
 393 01d8 2330F500 		sd	a5,0(a0)
 157:src/memoryAllocator.cpp ****     }
 394              		.loc 1 157 9 is_stmt 1
 395 01dc E38E07FC 		beqz	a5,.L26
 157:src/memoryAllocator.cpp ****     }
 396              		.loc 1 157 24 discriminator 1
 157:src/memoryAllocator.cpp ****     }
 397              		.loc 1 157 41 is_stmt 0 discriminator 1
 398 01e0 23B4A700 		sd	a0,8(a5)
 399              		.loc 1 159 1 discriminator 1
 400 01e4 6FF05FFD 		j	.L26
 401              		.cfi_endproc
 402              	.LFE3:
 404              		.align	2
 405              		.globl	_ZN15MemoryAllocator8mem_freeEPv
 407              	_ZN15MemoryAllocator8mem_freeEPv:
 408              	.LFB2:
 104:src/memoryAllocator.cpp ****     if(used == nullptr) return -1;
 409              		.loc 1 104 42 is_stmt 1
 410              		.cfi_startproc
 411              	.LVL20:
 105:src/memoryAllocator.cpp ****     if(ptr == nullptr || ptr < HEAP_START_ADDR || ptr > HEAP_END_ADDR) return -2;
 412              		.loc 1 105 5
 105:src/memoryAllocator.cpp ****     if(ptr == nullptr || ptr < HEAP_START_ADDR || ptr > HEAP_END_ADDR) return -2;
 413              		.loc 1 105 13 is_stmt 0
 414 01e8 97070000 		ld	a5,.LANCHOR0+8
 414      83B70700 
 105:src/memoryAllocator.cpp ****     if(ptr == nullptr || ptr < HEAP_START_ADDR || ptr > HEAP_END_ADDR) return -2;
 415              		.loc 1 105 5
 416 01f0 63880712 		beqz	a5,.L40
 417 01f4 13070500 		mv	a4,a0
 106:src/memoryAllocator.cpp **** 
 418              		.loc 1 106 5 is_stmt 1
 419 01f8 63080512 		beqz	a0,.L41
 106:src/memoryAllocator.cpp **** 
 420              		.loc 1 106 30 is_stmt 0 discriminator 2
 421 01fc 97060000 		la	a3,HEAP_START_ADDR
 421      83B60600 
 422 0204 83B60600 		ld	a3,0(a3)
 106:src/memoryAllocator.cpp **** 
 423              		.loc 1 106 23 discriminator 2
 424 0208 6364D512 		bgtu	a3,a0,.L42
 106:src/memoryAllocator.cpp **** 
 425              		.loc 1 106 55 discriminator 4
 426 020c 97060000 		la	a3,HEAP_END_ADDR
 426      83B60600 
 427 0214 83B60600 		ld	a3,0(a3)
 106:src/memoryAllocator.cpp **** 
GAS LISTING /tmp/ccEY5aWO.s 			page 13


 428              		.loc 1 106 48 discriminator 4
 429 0218 63E0A612 		bltu	a3,a0,.L43
 108:src/memoryAllocator.cpp ****     if(curr < used) return -3;
 430              		.loc 1 108 5 is_stmt 1
 108:src/memoryAllocator.cpp ****     if(curr < used) return -3;
 431              		.loc 1 108 16 is_stmt 0
 432 021c 130585FE 		addi	a0,a0,-24
 433              	.LVL21:
 109:src/memoryAllocator.cpp **** 
 434              		.loc 1 109 5 is_stmt 1
 435 0220 6360F512 		bgtu	a5,a0,.L44
 112:src/memoryAllocator.cpp ****         used = curr->next;
 436              		.loc 1 112 5
 437 0224 638CA708 		beq	a5,a0,.L48
 118:src/memoryAllocator.cpp ****         if(curr->next) curr->next->prev = curr->prev;
 438              		.loc 1 118 9
 118:src/memoryAllocator.cpp ****         if(curr->next) curr->next->prev = curr->prev;
 439              		.loc 1 118 15 is_stmt 0
 440 0228 833607FF 		ld	a3,-16(a4)
 118:src/memoryAllocator.cpp ****         if(curr->next) curr->next->prev = curr->prev;
 441              		.loc 1 118 34
 442 022c 833787FE 		ld	a5,-24(a4)
 118:src/memoryAllocator.cpp ****         if(curr->next) curr->next->prev = curr->prev;
 443              		.loc 1 118 26
 444 0230 23B0F600 		sd	a5,0(a3)
 119:src/memoryAllocator.cpp ****         curr->next = nullptr;
 445              		.loc 1 119 9 is_stmt 1
 446 0234 63860700 		beqz	a5,.L35
 119:src/memoryAllocator.cpp ****         curr->next = nullptr;
 447              		.loc 1 119 24 discriminator 1
 119:src/memoryAllocator.cpp ****         curr->next = nullptr;
 448              		.loc 1 119 49 is_stmt 0 discriminator 1
 449 0238 833607FF 		ld	a3,-16(a4)
 119:src/memoryAllocator.cpp ****         curr->next = nullptr;
 450              		.loc 1 119 41 discriminator 1
 451 023c 23B4D700 		sd	a3,8(a5)
 452              	.L35:
 120:src/memoryAllocator.cpp ****         curr->prev = nullptr;
 453              		.loc 1 120 9 is_stmt 1
 120:src/memoryAllocator.cpp ****         curr->prev = nullptr;
 454              		.loc 1 120 20 is_stmt 0
 455 0240 233407FE 		sd	zero,-24(a4)
 121:src/memoryAllocator.cpp ****     }
 456              		.loc 1 121 9 is_stmt 1
 121:src/memoryAllocator.cpp ****     }
 457              		.loc 1 121 20 is_stmt 0
 458 0244 233807FE 		sd	zero,-16(a4)
 459              	.L34:
 125:src/memoryAllocator.cpp ****         //Insert as first
 460              		.loc 1 125 5 is_stmt 1
 461              	.LBB32:
 125:src/memoryAllocator.cpp ****         //Insert as first
 462              		.loc 1 125 14 is_stmt 0
 463 0248 97070000 		ld	a5,.LANCHOR0
 463      83B70700 
 125:src/memoryAllocator.cpp ****         //Insert as first
 464              		.loc 1 125 5
GAS LISTING /tmp/ccEY5aWO.s 			page 14


 465 0250 63860708 		beqz	a5,.L49
 466              	.LBE32:
 104:src/memoryAllocator.cpp ****     if(used == nullptr) return -1;
 467              		.loc 1 104 42
 468 0254 130101FE 		addi	sp,sp,-32
 469              		.cfi_def_cfa_offset 32
 470 0258 233C1100 		sd	ra,24(sp)
 471 025c 23388100 		sd	s0,16(sp)
 472 0260 23349100 		sd	s1,8(sp)
 473              		.cfi_offset 1, -8
 474              		.cfi_offset 8, -16
 475              		.cfi_offset 9, -24
 476 0264 13040102 		addi	s0,sp,32
 477              		.cfi_def_cfa 8, 0
 131:src/memoryAllocator.cpp ****         free->prev = curr;
 478              		.loc 1 131 10 is_stmt 1
 479              	.LBB37:
 480              	.LBB33:
 481 0268 6366F508 		bgtu	a5,a0,.L50
 482              	.L37:
 483              	.LVL22:
 484              	.LBB34:
 141:src/memoryAllocator.cpp **** 
 485              		.loc 1 141 45 discriminator 4
 486 026c 93840700 		mv	s1,a5
 141:src/memoryAllocator.cpp **** 
 487              		.loc 1 141 40 is_stmt 0 discriminator 4
 488 0270 83B70700 		ld	a5,0(a5)
 489              	.LVL23:
 141:src/memoryAllocator.cpp **** 
 490              		.loc 1 141 45 discriminator 4
 491 0274 63840700 		beqz	a5,.L38
 141:src/memoryAllocator.cpp **** 
 492              		.loc 1 141 45 discriminator 2
 493 0278 E3EAA7FE 		bltu	a5,a0,.L37
 494              	.L38:
 143:src/memoryAllocator.cpp ****         curr->prev = currFree;
 495              		.loc 1 143 9 is_stmt 1
 143:src/memoryAllocator.cpp ****         curr->prev = currFree;
 496              		.loc 1 143 20 is_stmt 0
 497 027c 2334F7FE 		sd	a5,-24(a4)
 144:src/memoryAllocator.cpp ****         if(curr->next) curr->next->prev = curr;
 498              		.loc 1 144 9 is_stmt 1
 144:src/memoryAllocator.cpp ****         if(curr->next) curr->next->prev = curr;
 499              		.loc 1 144 20 is_stmt 0
 500 0280 233897FE 		sd	s1,-16(a4)
 145:src/memoryAllocator.cpp ****         currFree->next = curr;
 501              		.loc 1 145 9 is_stmt 1
 502 0284 63840700 		beqz	a5,.L39
 145:src/memoryAllocator.cpp ****         currFree->next = curr;
 503              		.loc 1 145 24 discriminator 1
 145:src/memoryAllocator.cpp ****         currFree->next = curr;
 504              		.loc 1 145 41 is_stmt 0 discriminator 1
 505 0288 23B4A700 		sd	a0,8(a5)
 506              	.L39:
 146:src/memoryAllocator.cpp ****         tryToJoin(curr);
 507              		.loc 1 146 9 is_stmt 1
GAS LISTING /tmp/ccEY5aWO.s 			page 15


 146:src/memoryAllocator.cpp ****         tryToJoin(curr);
 508              		.loc 1 146 24 is_stmt 0
 509 028c 23B0A400 		sd	a0,0(s1)
 147:src/memoryAllocator.cpp ****         tryToJoin(currFree);
 510              		.loc 1 147 9 is_stmt 1
 147:src/memoryAllocator.cpp ****         tryToJoin(currFree);
 511              		.loc 1 147 18 is_stmt 0
 512 0290 97000000 		call	_ZN15MemoryAllocator9tryToJoinEP9DataBlock
 512      E7800000 
 513              	.LVL24:
 148:src/memoryAllocator.cpp ****     }
 514              		.loc 1 148 9 is_stmt 1
 148:src/memoryAllocator.cpp ****     }
 515              		.loc 1 148 18 is_stmt 0
 516 0298 13850400 		mv	a0,s1
 517 029c 97000000 		call	_ZN15MemoryAllocator9tryToJoinEP9DataBlock
 517      E7800000 
 518              	.LVL25:
 519              	.LBE34:
 520              	.LBE33:
 521              	.LBE37:
 150:src/memoryAllocator.cpp **** }
 522              		.loc 1 150 12
 523 02a4 13050000 		li	a0,0
 524              	.LVL26:
 525              	.L31:
 151:src/memoryAllocator.cpp **** 
 526              		.loc 1 151 1
 527 02a8 83308101 		ld	ra,24(sp)
 528              		.cfi_restore 1
 529 02ac 03340101 		ld	s0,16(sp)
 530              		.cfi_restore 8
 531              		.cfi_def_cfa 2, 32
 532 02b0 83348100 		ld	s1,8(sp)
 533              		.cfi_restore 9
 534 02b4 13010102 		addi	sp,sp,32
 535              		.cfi_def_cfa_offset 0
 536 02b8 67800000 		jr	ra
 537              	.LVL27:
 538              	.L48:
 113:src/memoryAllocator.cpp ****         if(used) used->prev = nullptr;
 539              		.loc 1 113 9 is_stmt 1
 113:src/memoryAllocator.cpp ****         if(used) used->prev = nullptr;
 540              		.loc 1 113 22 is_stmt 0
 541 02bc 833787FE 		ld	a5,-24(a4)
 113:src/memoryAllocator.cpp ****         if(used) used->prev = nullptr;
 542              		.loc 1 113 14
 543 02c0 97060000 		sd	a5,.LANCHOR0+8,a3
 543      23B0F600 
 114:src/memoryAllocator.cpp ****         curr->next = nullptr;
 544              		.loc 1 114 9 is_stmt 1
 545 02c8 63840700 		beqz	a5,.L33
 114:src/memoryAllocator.cpp ****         curr->next = nullptr;
 546              		.loc 1 114 18 discriminator 1
 114:src/memoryAllocator.cpp ****         curr->next = nullptr;
 547              		.loc 1 114 29 is_stmt 0 discriminator 1
 548 02cc 23B40700 		sd	zero,8(a5)
GAS LISTING /tmp/ccEY5aWO.s 			page 16


 549              	.L33:
 115:src/memoryAllocator.cpp ****         curr->prev = nullptr;
 550              		.loc 1 115 9 is_stmt 1
 115:src/memoryAllocator.cpp ****         curr->prev = nullptr;
 551              		.loc 1 115 20 is_stmt 0
 552 02d0 233407FE 		sd	zero,-24(a4)
 116:src/memoryAllocator.cpp ****     } else {
 553              		.loc 1 116 9 is_stmt 1
 116:src/memoryAllocator.cpp ****     } else {
 554              		.loc 1 116 20 is_stmt 0
 555 02d4 233807FE 		sd	zero,-16(a4)
 556 02d8 6FF01FF7 		j	.L34
 557              	.L49:
 558              	.LBB38:
 127:src/memoryAllocator.cpp ****         curr->next = nullptr;
 559              		.loc 1 127 9 is_stmt 1
 127:src/memoryAllocator.cpp ****         curr->next = nullptr;
 560              		.loc 1 127 14 is_stmt 0
 561 02dc 97070000 		sd	a0,.LANCHOR0,a5
 561      23B0A700 
 128:src/memoryAllocator.cpp ****         curr->prev = nullptr;
 562              		.loc 1 128 9 is_stmt 1
 128:src/memoryAllocator.cpp ****         curr->prev = nullptr;
 563              		.loc 1 128 20 is_stmt 0
 564 02e4 233407FE 		sd	zero,-24(a4)
 129:src/memoryAllocator.cpp ****     }
 565              		.loc 1 129 9 is_stmt 1
 129:src/memoryAllocator.cpp ****     }
 566              		.loc 1 129 20 is_stmt 0
 567 02e8 233807FE 		sd	zero,-16(a4)
 568              	.LBE38:
 150:src/memoryAllocator.cpp **** }
 569              		.loc 1 150 12
 570 02ec 13050000 		li	a0,0
 571              	.LVL28:
 572              	.LBB39:
 573 02f0 67800000 		ret
 574              	.LVL29:
 575              	.L50:
 576              		.cfi_def_cfa_register 8
 577              		.cfi_offset 1, -8
 578              		.cfi_offset 8, -16
 579              		.cfi_offset 9, -24
 580              	.LBB35:
 132:src/memoryAllocator.cpp ****         curr->prev = nullptr;
 581              		.loc 1 132 9 is_stmt 1
 132:src/memoryAllocator.cpp ****         curr->prev = nullptr;
 582              		.loc 1 132 20 is_stmt 0
 583 02f4 23B4A700 		sd	a0,8(a5)
 133:src/memoryAllocator.cpp ****         curr->next = free;
 584              		.loc 1 133 9 is_stmt 1
 133:src/memoryAllocator.cpp ****         curr->next = free;
 585              		.loc 1 133 20 is_stmt 0
 586 02f8 233807FE 		sd	zero,-16(a4)
 134:src/memoryAllocator.cpp ****         free = curr;
 587              		.loc 1 134 9 is_stmt 1
 134:src/memoryAllocator.cpp ****         free = curr;
GAS LISTING /tmp/ccEY5aWO.s 			page 17


 588              		.loc 1 134 20 is_stmt 0
 589 02fc 97070000 		lla	a5,.LANCHOR0
 589      93870700 
 590 0304 83B60700 		ld	a3,0(a5)
 591 0308 2334D7FE 		sd	a3,-24(a4)
 135:src/memoryAllocator.cpp ****         tryToJoin(free);
 592              		.loc 1 135 9 is_stmt 1
 135:src/memoryAllocator.cpp ****         tryToJoin(free);
 593              		.loc 1 135 14 is_stmt 0
 594 030c 23B0A700 		sd	a0,0(a5)
 136:src/memoryAllocator.cpp ****     }
 595              		.loc 1 136 9 is_stmt 1
 136:src/memoryAllocator.cpp ****     }
 596              		.loc 1 136 18 is_stmt 0
 597 0310 97000000 		call	_ZN15MemoryAllocator9tryToJoinEP9DataBlock
 597      E7800000 
 598              	.LVL30:
 599              	.LBE35:
 600              	.LBE39:
 150:src/memoryAllocator.cpp **** }
 601              		.loc 1 150 12
 602 0318 13050000 		li	a0,0
 603              	.LBB40:
 604              	.LBB36:
 605 031c 6FF0DFF8 		j	.L31
 606              	.LVL31:
 607              	.L40:
 608              		.cfi_def_cfa_register 2
 609              		.cfi_restore 1
 610              		.cfi_restore 8
 611              		.cfi_restore 9
 612              	.LBE36:
 613              	.LBE40:
 105:src/memoryAllocator.cpp ****     if(ptr == nullptr || ptr < HEAP_START_ADDR || ptr > HEAP_END_ADDR) return -2;
 614              		.loc 1 105 33
 615 0320 1305F0FF 		li	a0,-1
 616              	.LVL32:
 617 0324 67800000 		ret
 618              	.LVL33:
 619              	.L41:
 106:src/memoryAllocator.cpp **** 
 620              		.loc 1 106 80
 621 0328 1305E0FF 		li	a0,-2
 622              	.LVL34:
 623 032c 67800000 		ret
 624              	.LVL35:
 625              	.L42:
 626 0330 1305E0FF 		li	a0,-2
 627              	.LVL36:
 628 0334 67800000 		ret
 629              	.LVL37:
 630              	.L43:
 631 0338 1305E0FF 		li	a0,-2
 632              	.LVL38:
 633 033c 67800000 		ret
 634              	.LVL39:
 635              	.L44:
GAS LISTING /tmp/ccEY5aWO.s 			page 18


 109:src/memoryAllocator.cpp **** 
 636              		.loc 1 109 29
 637 0340 1305D0FF 		li	a0,-3
 638              	.LVL40:
 151:src/memoryAllocator.cpp **** 
 639              		.loc 1 151 1
 640 0344 67800000 		ret
 641              		.cfi_endproc
 642              	.LFE2:
 644              		.globl	_ZN15MemoryAllocator17deleteArrayCalledE
 645              		.globl	_ZN15MemoryAllocator12deleteCalledE
 646              		.globl	_ZN15MemoryAllocator14newArrayCalledE
 647              		.globl	_ZN15MemoryAllocator9newCalledE
 648              		.globl	_ZN15MemoryAllocator4usedE
 649              		.globl	_ZN15MemoryAllocator4freeE
 650              		.bss
 651              		.align	3
 652              		.set	.LANCHOR0,. + 0
 655              	_ZN15MemoryAllocator4freeE:
 656 0000 00000000 		.zero	8
 656      00000000 
 659              	_ZN15MemoryAllocator4usedE:
 660 0008 00000000 		.zero	8
 660      00000000 
 663              	_ZN15MemoryAllocator17deleteArrayCalledE:
 664 0010 00000000 		.zero	4
 667              	_ZN15MemoryAllocator12deleteCalledE:
 668 0014 00000000 		.zero	4
 671              	_ZN15MemoryAllocator14newArrayCalledE:
 672 0018 00000000 		.zero	4
 675              	_ZN15MemoryAllocator9newCalledE:
 676 001c 00000000 		.zero	4
 677              		.text
 678              	.Letext0:
 679              		.file 2 "src/../lib/hw.h"
 680              		.file 3 "src/../h/memoryAllocator.hpp"
GAS LISTING /tmp/ccEY5aWO.s 			page 19


DEFINED SYMBOLS
                            *ABS*:0000000000000000 memoryAllocator.cpp
     /tmp/ccEY5aWO.s:9      .text:0000000000000000 _ZN15MemoryAllocator9mem_allocEm
     /tmp/ccEY5aWO.s:13     .text:0000000000000000 .L0 
     /tmp/ccEY5aWO.s:15     .text:0000000000000000 .L0 
     /tmp/ccEY5aWO.s:16     .text:0000000000000004 .L0 
     /tmp/ccEY5aWO.s:18     .text:0000000000000008 .L0 
     /tmp/ccEY5aWO.s:20     .text:000000000000000c .L0 
     /tmp/ccEY5aWO.s:23     .text:0000000000000010 .L0 
     /tmp/ccEY5aWO.s:24     .text:0000000000000010 .L0 
     /tmp/ccEY5aWO.s:25     .text:0000000000000010 .L0 
     /tmp/ccEY5aWO.s:27     .text:0000000000000014 .L0 
     /tmp/ccEY5aWO.s:29     .text:0000000000000018 .L0 
     /tmp/ccEY5aWO.s:30     .text:0000000000000018 .L0 
     /tmp/ccEY5aWO.s:32     .text:000000000000001c .L0 
     /tmp/ccEY5aWO.s:37     .text:0000000000000020 .L0 
     /tmp/ccEY5aWO.s:38     .text:0000000000000020 .L0 
     /tmp/ccEY5aWO.s:42     .text:0000000000000028 .L0 
     /tmp/ccEY5aWO.s:45     .text:000000000000002c .L0 
     /tmp/ccEY5aWO.s:46     .text:000000000000002c .L0 
     /tmp/ccEY5aWO.s:48     .text:0000000000000030 .L0 
     /tmp/ccEY5aWO.s:51     .text:0000000000000034 .L0 
     /tmp/ccEY5aWO.s:54     .text:0000000000000038 .L0 
     /tmp/ccEY5aWO.s:55     .text:0000000000000038 .L0 
     /tmp/ccEY5aWO.s:56     .text:0000000000000038 .L0 
     /tmp/ccEY5aWO.s:58     .text:000000000000003c .L0 
     /tmp/ccEY5aWO.s:61     .text:0000000000000040 .L0 
     /tmp/ccEY5aWO.s:62     .text:0000000000000040 .L0 
     /tmp/ccEY5aWO.s:64     .text:0000000000000044 .L0 
     /tmp/ccEY5aWO.s:66     .text:0000000000000048 .L0 
     /tmp/ccEY5aWO.s:67     .text:0000000000000048 .L0 
     /tmp/ccEY5aWO.s:70     .text:000000000000004c .L0 
     /tmp/ccEY5aWO.s:71     .text:000000000000004c .L0 
     /tmp/ccEY5aWO.s:73     .text:0000000000000050 .L0 
     /tmp/ccEY5aWO.s:75     .text:0000000000000054 .L0 
     /tmp/ccEY5aWO.s:76     .text:0000000000000054 .L0 
     /tmp/ccEY5aWO.s:79     .text:0000000000000058 .L0 
     /tmp/ccEY5aWO.s:80     .text:0000000000000058 .L0 
     /tmp/ccEY5aWO.s:82     .text:000000000000005c .L0 
     /tmp/ccEY5aWO.s:84     .text:0000000000000060 .L0 
     /tmp/ccEY5aWO.s:85     .text:0000000000000060 .L0 
     /tmp/ccEY5aWO.s:87     .text:0000000000000064 .L0 
     /tmp/ccEY5aWO.s:89     .text:0000000000000068 .L0 
     /tmp/ccEY5aWO.s:90     .text:0000000000000068 .L0 
     /tmp/ccEY5aWO.s:92     .text:000000000000006c .L0 
     /tmp/ccEY5aWO.s:94     .text:0000000000000070 .L0 
     /tmp/ccEY5aWO.s:96     .text:0000000000000074 .L0 
     /tmp/ccEY5aWO.s:98     .text:0000000000000078 .L0 
     /tmp/ccEY5aWO.s:99     .text:0000000000000078 .L0 
     /tmp/ccEY5aWO.s:102    .text:000000000000007c .L0 
     /tmp/ccEY5aWO.s:103    .text:000000000000007c .L0 
     /tmp/ccEY5aWO.s:106    .text:0000000000000084 .L0 
     /tmp/ccEY5aWO.s:119    .text:0000000000000088 .L0 
     /tmp/ccEY5aWO.s:121    .text:000000000000008c .L0 
     /tmp/ccEY5aWO.s:122    .text:000000000000008c .L0 
     /tmp/ccEY5aWO.s:125    .text:0000000000000090 .L0 
     /tmp/ccEY5aWO.s:126    .text:0000000000000090 .L0 
GAS LISTING /tmp/ccEY5aWO.s 			page 20


     /tmp/ccEY5aWO.s:128    .text:0000000000000094 .L0 
     /tmp/ccEY5aWO.s:129    .text:0000000000000094 .L0 
     /tmp/ccEY5aWO.s:131    .text:0000000000000098 .L0 
     /tmp/ccEY5aWO.s:132    .text:0000000000000098 .L0 
     /tmp/ccEY5aWO.s:140    .text:00000000000000a0 .L0 
     /tmp/ccEY5aWO.s:141    .text:00000000000000a0 .L0 
     /tmp/ccEY5aWO.s:147    .text:00000000000000a4 .L0 
     /tmp/ccEY5aWO.s:148    .text:00000000000000a8 .L0 
     /tmp/ccEY5aWO.s:149    .text:00000000000000a8 .L0 
     /tmp/ccEY5aWO.s:150    .text:00000000000000a8 .L0 
     /tmp/ccEY5aWO.s:152    .text:00000000000000ac .L0 
     /tmp/ccEY5aWO.s:156    .text:00000000000000b0 .L0 
     /tmp/ccEY5aWO.s:161    .text:00000000000000b0 .L0 
     /tmp/ccEY5aWO.s:162    .text:00000000000000b0 .L0 
     /tmp/ccEY5aWO.s:163    .text:00000000000000b0 .L0 
     /tmp/ccEY5aWO.s:166    .text:00000000000000b4 .L0 
     /tmp/ccEY5aWO.s:173    .text:00000000000000b8 .L0 
     /tmp/ccEY5aWO.s:174    .text:00000000000000b8 .L0 
     /tmp/ccEY5aWO.s:180    .text:00000000000000c4 .L0 
     /tmp/ccEY5aWO.s:181    .text:00000000000000c4 .L0 
     /tmp/ccEY5aWO.s:183    .text:00000000000000cc .L0 
     /tmp/ccEY5aWO.s:184    .text:00000000000000cc .L0 
     /tmp/ccEY5aWO.s:186    .text:00000000000000d0 .L0 
     /tmp/ccEY5aWO.s:187    .text:00000000000000d0 .L0 
     /tmp/ccEY5aWO.s:194    .text:00000000000000d8 .L0 
     /tmp/ccEY5aWO.s:195    .text:00000000000000d8 .L0 
     /tmp/ccEY5aWO.s:197    .text:00000000000000dc .L0 
     /tmp/ccEY5aWO.s:200    .text:00000000000000e0 .L0 
     /tmp/ccEY5aWO.s:202    .text:00000000000000e4 .L0 
     /tmp/ccEY5aWO.s:205    .text:00000000000000e8 .L0 
     /tmp/ccEY5aWO.s:206    .text:00000000000000e8 .L0 
     /tmp/ccEY5aWO.s:208    .text:00000000000000ec .L0 
     /tmp/ccEY5aWO.s:209    .text:00000000000000ec .L0 
     /tmp/ccEY5aWO.s:211    .text:00000000000000f0 .L0 
     /tmp/ccEY5aWO.s:213    .text:00000000000000f4 .L0 
     /tmp/ccEY5aWO.s:214    .text:00000000000000f4 .L0 
     /tmp/ccEY5aWO.s:218    .text:00000000000000f8 .L0 
     /tmp/ccEY5aWO.s:219    .text:00000000000000f8 .L0 
     /tmp/ccEY5aWO.s:229    .text:0000000000000100 .L0 
     /tmp/ccEY5aWO.s:230    .text:0000000000000100 .L0 
     /tmp/ccEY5aWO.s:233    .text:0000000000000104 .L0 
     /tmp/ccEY5aWO.s:235    .text:0000000000000108 .L0 
     /tmp/ccEY5aWO.s:236    .text:0000000000000108 .L0 
     /tmp/ccEY5aWO.s:238    .text:000000000000010c .L0 
     /tmp/ccEY5aWO.s:241    .text:0000000000000110 .L0 
     /tmp/ccEY5aWO.s:242    .text:0000000000000110 .L0 
     /tmp/ccEY5aWO.s:244    .text:0000000000000114 .L0 
     /tmp/ccEY5aWO.s:246    .text:0000000000000118 .L0 
     /tmp/ccEY5aWO.s:247    .text:0000000000000118 .L0 
     /tmp/ccEY5aWO.s:249    .text:000000000000011c .L0 
     /tmp/ccEY5aWO.s:253    .text:0000000000000120 .L0 
     /tmp/ccEY5aWO.s:254    .text:0000000000000120 .L0 
     /tmp/ccEY5aWO.s:256    .text:0000000000000128 .L0 
     /tmp/ccEY5aWO.s:269    .text:000000000000012c .L0 
     /tmp/ccEY5aWO.s:271    .text:0000000000000130 .L0 
     /tmp/ccEY5aWO.s:272    .text:0000000000000130 .L0 
     /tmp/ccEY5aWO.s:274    .text:0000000000000134 .L0 
GAS LISTING /tmp/ccEY5aWO.s 			page 21


     /tmp/ccEY5aWO.s:275    .text:0000000000000134 .L0 
     /tmp/ccEY5aWO.s:277    .text:0000000000000138 .L0 
     /tmp/ccEY5aWO.s:278    .text:0000000000000138 .L0 
     /tmp/ccEY5aWO.s:280    .text:000000000000013c .L0 
     /tmp/ccEY5aWO.s:281    .text:000000000000013c .L0 
     /tmp/ccEY5aWO.s:287    .text:0000000000000148 .L0 
     /tmp/ccEY5aWO.s:288    .text:0000000000000148 .L0 
     /tmp/ccEY5aWO.s:290    .text:000000000000014c .L0 
     /tmp/ccEY5aWO.s:295    .text:0000000000000158 .L0 
     /tmp/ccEY5aWO.s:296    .text:0000000000000158 .L0 
     /tmp/ccEY5aWO.s:298    .text:0000000000000160 .L0 
     /tmp/ccEY5aWO.s:299    .text:0000000000000160 .L0 
     /tmp/ccEY5aWO.s:301    .text:0000000000000164 .L0 
     /tmp/ccEY5aWO.s:302    .text:0000000000000164 .L0 
     /tmp/ccEY5aWO.s:309    .text:000000000000016c .L0 
     /tmp/ccEY5aWO.s:310    .text:000000000000016c .L0 
     /tmp/ccEY5aWO.s:312    .text:0000000000000170 .L0 
     /tmp/ccEY5aWO.s:315    .text:0000000000000174 .L0 
     /tmp/ccEY5aWO.s:317    .text:0000000000000178 .L0 
     /tmp/ccEY5aWO.s:320    .text:000000000000017c .L0 
     /tmp/ccEY5aWO.s:321    .text:000000000000017c .L0 
     /tmp/ccEY5aWO.s:323    .text:0000000000000180 .L0 
     /tmp/ccEY5aWO.s:324    .text:0000000000000180 .L0 
     /tmp/ccEY5aWO.s:326    .text:0000000000000184 .L0 
     /tmp/ccEY5aWO.s:328    .text:0000000000000188 .L0 
     /tmp/ccEY5aWO.s:329    .text:0000000000000188 .L0 
     /tmp/ccEY5aWO.s:332    .text:000000000000018c .L0 
     /tmp/ccEY5aWO.s:333    .text:000000000000018c .L0 
     /tmp/ccEY5aWO.s:342    .text:0000000000000194 .L0 
     /tmp/ccEY5aWO.s:348    .text:0000000000000194 _ZN15MemoryAllocator9tryToJoinEP9DataBlock
     /tmp/ccEY5aWO.s:351    .text:0000000000000194 .L0 
     /tmp/ccEY5aWO.s:353    .text:0000000000000194 .L0 
     /tmp/ccEY5aWO.s:354    .text:0000000000000198 .L0 
     /tmp/ccEY5aWO.s:356    .text:000000000000019c .L0 
     /tmp/ccEY5aWO.s:358    .text:00000000000001a0 .L0 
     /tmp/ccEY5aWO.s:360    .text:00000000000001a0 .L0 
     /tmp/ccEY5aWO.s:361    .text:00000000000001a0 .L0 
     /tmp/ccEY5aWO.s:363    .text:00000000000001a4 .L0 
     /tmp/ccEY5aWO.s:365    .text:00000000000001a8 .L0 
     /tmp/ccEY5aWO.s:367    .text:00000000000001ac .L0 
     /tmp/ccEY5aWO.s:370    .text:00000000000001b4 .L0 
     /tmp/ccEY5aWO.s:373    .text:00000000000001b8 .L0 
     /tmp/ccEY5aWO.s:374    .text:00000000000001bc .L0 
     /tmp/ccEY5aWO.s:375    .text:00000000000001bc .L0 
     /tmp/ccEY5aWO.s:376    .text:00000000000001bc .L0 
     /tmp/ccEY5aWO.s:378    .text:00000000000001c0 .L0 
     /tmp/ccEY5aWO.s:381    .text:00000000000001c4 .L0 
     /tmp/ccEY5aWO.s:383    .text:00000000000001c4 .L0 
     /tmp/ccEY5aWO.s:384    .text:00000000000001c4 .L0 
     /tmp/ccEY5aWO.s:386    .text:00000000000001c8 .L0 
     /tmp/ccEY5aWO.s:390    .text:00000000000001d4 .L0 
     /tmp/ccEY5aWO.s:391    .text:00000000000001d4 .L0 
     /tmp/ccEY5aWO.s:393    .text:00000000000001d8 .L0 
     /tmp/ccEY5aWO.s:395    .text:00000000000001dc .L0 
     /tmp/ccEY5aWO.s:397    .text:00000000000001e0 .L0 
     /tmp/ccEY5aWO.s:398    .text:00000000000001e0 .L0 
     /tmp/ccEY5aWO.s:400    .text:00000000000001e4 .L0 
GAS LISTING /tmp/ccEY5aWO.s 			page 22


     /tmp/ccEY5aWO.s:401    .text:00000000000001e8 .L0 
     /tmp/ccEY5aWO.s:407    .text:00000000000001e8 _ZN15MemoryAllocator8mem_freeEPv
     /tmp/ccEY5aWO.s:410    .text:00000000000001e8 .L0 
     /tmp/ccEY5aWO.s:412    .text:00000000000001e8 .L0 
     /tmp/ccEY5aWO.s:413    .text:00000000000001e8 .L0 
     /tmp/ccEY5aWO.s:414    .text:00000000000001e8 .L0 
     /tmp/ccEY5aWO.s:416    .text:00000000000001f0 .L0 
     /tmp/ccEY5aWO.s:419    .text:00000000000001f8 .L0 
     /tmp/ccEY5aWO.s:421    .text:00000000000001fc .L0 
     /tmp/ccEY5aWO.s:424    .text:0000000000000208 .L0 
     /tmp/ccEY5aWO.s:426    .text:000000000000020c .L0 
     /tmp/ccEY5aWO.s:429    .text:0000000000000218 .L0 
     /tmp/ccEY5aWO.s:431    .text:000000000000021c .L0 
     /tmp/ccEY5aWO.s:432    .text:000000000000021c .L0 
     /tmp/ccEY5aWO.s:435    .text:0000000000000220 .L0 
     /tmp/ccEY5aWO.s:437    .text:0000000000000224 .L0 
     /tmp/ccEY5aWO.s:439    .text:0000000000000228 .L0 
     /tmp/ccEY5aWO.s:440    .text:0000000000000228 .L0 
     /tmp/ccEY5aWO.s:442    .text:000000000000022c .L0 
     /tmp/ccEY5aWO.s:444    .text:0000000000000230 .L0 
     /tmp/ccEY5aWO.s:446    .text:0000000000000234 .L0 
     /tmp/ccEY5aWO.s:448    .text:0000000000000238 .L0 
     /tmp/ccEY5aWO.s:449    .text:0000000000000238 .L0 
     /tmp/ccEY5aWO.s:451    .text:000000000000023c .L0 
     /tmp/ccEY5aWO.s:454    .text:0000000000000240 .L0 
     /tmp/ccEY5aWO.s:455    .text:0000000000000240 .L0 
     /tmp/ccEY5aWO.s:457    .text:0000000000000244 .L0 
     /tmp/ccEY5aWO.s:458    .text:0000000000000244 .L0 
     /tmp/ccEY5aWO.s:462    .text:0000000000000248 .L0 
     /tmp/ccEY5aWO.s:463    .text:0000000000000248 .L0 
     /tmp/ccEY5aWO.s:465    .text:0000000000000250 .L0 
     /tmp/ccEY5aWO.s:468    .text:0000000000000254 .L0 
     /tmp/ccEY5aWO.s:469    .text:0000000000000258 .L0 
     /tmp/ccEY5aWO.s:473    .text:0000000000000264 .L0 
     /tmp/ccEY5aWO.s:474    .text:0000000000000264 .L0 
     /tmp/ccEY5aWO.s:475    .text:0000000000000264 .L0 
     /tmp/ccEY5aWO.s:477    .text:0000000000000268 .L0 
     /tmp/ccEY5aWO.s:481    .text:0000000000000268 .L0 
     /tmp/ccEY5aWO.s:486    .text:000000000000026c .L0 
     /tmp/ccEY5aWO.s:488    .text:0000000000000270 .L0 
     /tmp/ccEY5aWO.s:491    .text:0000000000000274 .L0 
     /tmp/ccEY5aWO.s:493    .text:0000000000000278 .L0 
     /tmp/ccEY5aWO.s:496    .text:000000000000027c .L0 
     /tmp/ccEY5aWO.s:497    .text:000000000000027c .L0 
     /tmp/ccEY5aWO.s:499    .text:0000000000000280 .L0 
     /tmp/ccEY5aWO.s:500    .text:0000000000000280 .L0 
     /tmp/ccEY5aWO.s:502    .text:0000000000000284 .L0 
     /tmp/ccEY5aWO.s:504    .text:0000000000000288 .L0 
     /tmp/ccEY5aWO.s:505    .text:0000000000000288 .L0 
     /tmp/ccEY5aWO.s:508    .text:000000000000028c .L0 
     /tmp/ccEY5aWO.s:509    .text:000000000000028c .L0 
     /tmp/ccEY5aWO.s:511    .text:0000000000000290 .L0 
     /tmp/ccEY5aWO.s:512    .text:0000000000000290 .L0 
     /tmp/ccEY5aWO.s:515    .text:0000000000000298 .L0 
     /tmp/ccEY5aWO.s:516    .text:0000000000000298 .L0 
     /tmp/ccEY5aWO.s:523    .text:00000000000002a4 .L0 
     /tmp/ccEY5aWO.s:527    .text:00000000000002a8 .L0 
GAS LISTING /tmp/ccEY5aWO.s 			page 23


     /tmp/ccEY5aWO.s:528    .text:00000000000002ac .L0 
     /tmp/ccEY5aWO.s:530    .text:00000000000002b0 .L0 
     /tmp/ccEY5aWO.s:531    .text:00000000000002b0 .L0 
     /tmp/ccEY5aWO.s:533    .text:00000000000002b4 .L0 
     /tmp/ccEY5aWO.s:535    .text:00000000000002b8 .L0 
     /tmp/ccEY5aWO.s:540    .text:00000000000002bc .L0 
     /tmp/ccEY5aWO.s:541    .text:00000000000002bc .L0 
     /tmp/ccEY5aWO.s:543    .text:00000000000002c0 .L0 
     /tmp/ccEY5aWO.s:545    .text:00000000000002c8 .L0 
     /tmp/ccEY5aWO.s:547    .text:00000000000002cc .L0 
     /tmp/ccEY5aWO.s:548    .text:00000000000002cc .L0 
     /tmp/ccEY5aWO.s:551    .text:00000000000002d0 .L0 
     /tmp/ccEY5aWO.s:552    .text:00000000000002d0 .L0 
     /tmp/ccEY5aWO.s:554    .text:00000000000002d4 .L0 
     /tmp/ccEY5aWO.s:555    .text:00000000000002d4 .L0 
     /tmp/ccEY5aWO.s:560    .text:00000000000002dc .L0 
     /tmp/ccEY5aWO.s:561    .text:00000000000002dc .L0 
     /tmp/ccEY5aWO.s:563    .text:00000000000002e4 .L0 
     /tmp/ccEY5aWO.s:564    .text:00000000000002e4 .L0 
     /tmp/ccEY5aWO.s:566    .text:00000000000002e8 .L0 
     /tmp/ccEY5aWO.s:567    .text:00000000000002e8 .L0 
     /tmp/ccEY5aWO.s:570    .text:00000000000002ec .L0 
     /tmp/ccEY5aWO.s:576    .text:00000000000002f4 .L0 
     /tmp/ccEY5aWO.s:577    .text:00000000000002f4 .L0 
     /tmp/ccEY5aWO.s:578    .text:00000000000002f4 .L0 
     /tmp/ccEY5aWO.s:579    .text:00000000000002f4 .L0 
     /tmp/ccEY5aWO.s:582    .text:00000000000002f4 .L0 
     /tmp/ccEY5aWO.s:583    .text:00000000000002f4 .L0 
     /tmp/ccEY5aWO.s:585    .text:00000000000002f8 .L0 
     /tmp/ccEY5aWO.s:586    .text:00000000000002f8 .L0 
     /tmp/ccEY5aWO.s:588    .text:00000000000002fc .L0 
     /tmp/ccEY5aWO.s:589    .text:00000000000002fc .L0 
     /tmp/ccEY5aWO.s:593    .text:000000000000030c .L0 
     /tmp/ccEY5aWO.s:594    .text:000000000000030c .L0 
     /tmp/ccEY5aWO.s:596    .text:0000000000000310 .L0 
     /tmp/ccEY5aWO.s:597    .text:0000000000000310 .L0 
     /tmp/ccEY5aWO.s:602    .text:0000000000000318 .L0 
     /tmp/ccEY5aWO.s:608    .text:0000000000000320 .L0 
     /tmp/ccEY5aWO.s:609    .text:0000000000000320 .L0 
     /tmp/ccEY5aWO.s:610    .text:0000000000000320 .L0 
     /tmp/ccEY5aWO.s:611    .text:0000000000000320 .L0 
     /tmp/ccEY5aWO.s:615    .text:0000000000000320 .L0 
     /tmp/ccEY5aWO.s:621    .text:0000000000000328 .L0 
     /tmp/ccEY5aWO.s:637    .text:0000000000000340 .L0 
     /tmp/ccEY5aWO.s:640    .text:0000000000000344 .L0 
     /tmp/ccEY5aWO.s:641    .text:0000000000000348 .L0 
     /tmp/ccEY5aWO.s:663    .bss:0000000000000010 _ZN15MemoryAllocator17deleteArrayCalledE
     /tmp/ccEY5aWO.s:667    .bss:0000000000000014 _ZN15MemoryAllocator12deleteCalledE
     /tmp/ccEY5aWO.s:671    .bss:0000000000000018 _ZN15MemoryAllocator14newArrayCalledE
     /tmp/ccEY5aWO.s:675    .bss:000000000000001c _ZN15MemoryAllocator9newCalledE
     /tmp/ccEY5aWO.s:659    .bss:0000000000000008 _ZN15MemoryAllocator4usedE
     /tmp/ccEY5aWO.s:655    .bss:0000000000000000 _ZN15MemoryAllocator4freeE
     /tmp/ccEY5aWO.s:652    .bss:0000000000000000 .LANCHOR0
     /tmp/ccEY5aWO.s:681    .text:0000000000000348 .L0 
     /tmp/ccEY5aWO.s:38     .text:0000000000000020 .L0 
     /tmp/ccEY5aWO.s:103    .text:000000000000007c .L0 
     /tmp/ccEY5aWO.s:132    .text:0000000000000098 .L0 
GAS LISTING /tmp/ccEY5aWO.s 			page 24


     /tmp/ccEY5aWO.s:174    .text:00000000000000b8 .L0 
     /tmp/ccEY5aWO.s:181    .text:00000000000000c4 .L0 
     /tmp/ccEY5aWO.s:254    .text:0000000000000120 .L0 
     /tmp/ccEY5aWO.s:281    .text:000000000000013c .L0 
     /tmp/ccEY5aWO.s:290    .text:000000000000014c .L0 
     /tmp/ccEY5aWO.s:296    .text:0000000000000158 .L0 
     /tmp/ccEY5aWO.s:414    .text:00000000000001e8 .L0 
     /tmp/ccEY5aWO.s:421    .text:00000000000001fc .L0 
     /tmp/ccEY5aWO.s:426    .text:000000000000020c .L0 
     /tmp/ccEY5aWO.s:463    .text:0000000000000248 .L0 
     /tmp/ccEY5aWO.s:543    .text:00000000000002c0 .L0 
     /tmp/ccEY5aWO.s:561    .text:00000000000002dc .L0 
     /tmp/ccEY5aWO.s:589    .text:00000000000002fc .L0 
     /tmp/ccEY5aWO.s:34     .text:0000000000000020 .L2
     /tmp/ccEY5aWO.s:143    .text:00000000000000a4 .L1
     /tmp/ccEY5aWO.s:155    .text:00000000000000b0 .L23
     /tmp/ccEY5aWO.s:222    .text:0000000000000100 .L6
     /tmp/ccEY5aWO.s:168    .text:00000000000000b8 .L7
     /tmp/ccEY5aWO.s:77     .text:0000000000000058 .L9
     /tmp/ccEY5aWO.s:177    .text:00000000000000c4 .L24
     /tmp/ccEY5aWO.s:190    .text:00000000000000d8 .L12
     /tmp/ccEY5aWO.s:40     .text:0000000000000028 .L5
     /tmp/ccEY5aWO.s:68     .text:000000000000004c .L8
     /tmp/ccEY5aWO.s:134    .text:00000000000000a0 .L11
     /tmp/ccEY5aWO.s:203    .text:00000000000000e8 .L13
     /tmp/ccEY5aWO.s:216    .text:00000000000000f8 .L14
     /tmp/ccEY5aWO.s:283    .text:0000000000000148 .L15
     /tmp/ccEY5aWO.s:250    .text:0000000000000120 .L17
     /tmp/ccEY5aWO.s:292    .text:0000000000000158 .L25
     /tmp/ccEY5aWO.s:304    .text:000000000000016c .L19
     /tmp/ccEY5aWO.s:239    .text:0000000000000110 .L16
     /tmp/ccEY5aWO.s:318    .text:000000000000017c .L20
     /tmp/ccEY5aWO.s:330    .text:000000000000018c .L21
     /tmp/ccEY5aWO.s:371    .text:00000000000001b8 .L26
     /tmp/ccEY5aWO.s:380    .text:00000000000001c4 .L29
     /tmp/ccEY5aWO.s:607    .text:0000000000000320 .L40
     /tmp/ccEY5aWO.s:619    .text:0000000000000328 .L41
     /tmp/ccEY5aWO.s:625    .text:0000000000000330 .L42
     /tmp/ccEY5aWO.s:630    .text:0000000000000338 .L43
     /tmp/ccEY5aWO.s:635    .text:0000000000000340 .L44
     /tmp/ccEY5aWO.s:538    .text:00000000000002bc .L48
     /tmp/ccEY5aWO.s:452    .text:0000000000000240 .L35
     /tmp/ccEY5aWO.s:557    .text:00000000000002dc .L49
     /tmp/ccEY5aWO.s:575    .text:00000000000002f4 .L50
     /tmp/ccEY5aWO.s:494    .text:000000000000027c .L38
     /tmp/ccEY5aWO.s:482    .text:000000000000026c .L37
     /tmp/ccEY5aWO.s:506    .text:000000000000028c .L39
     /tmp/ccEY5aWO.s:549    .text:00000000000002d0 .L33
     /tmp/ccEY5aWO.s:459    .text:0000000000000248 .L34
     /tmp/ccEY5aWO.s:525    .text:00000000000002a8 .L31
     /tmp/ccEY5aWO.s:1150   .debug_abbrev:0000000000000000 .Ldebug_abbrev0
     /tmp/ccEY5aWO.s:1941   .debug_str:0000000000000192 .LASF41
     /tmp/ccEY5aWO.s:1939   .debug_str:000000000000017a .LASF42
     /tmp/ccEY5aWO.s:1977   .debug_str:00000000000003ca .LASF43
     /tmp/ccEY5aWO.s:5      .text:0000000000000000 .Ltext0
     /tmp/ccEY5aWO.s:678    .text:0000000000000348 .Letext0
     /tmp/ccEY5aWO.s:1887   .debug_line:0000000000000000 .Ldebug_line0
GAS LISTING /tmp/ccEY5aWO.s 			page 25


     /tmp/ccEY5aWO.s:1947   .debug_str:000000000000028c .LASF0
     /tmp/ccEY5aWO.s:1931   .debug_str:000000000000014a .LASF1
     /tmp/ccEY5aWO.s:1927   .debug_str:000000000000012a .LASF2
     /tmp/ccEY5aWO.s:1909   .debug_str:0000000000000083 .LASF4
     /tmp/ccEY5aWO.s:1929   .debug_str:0000000000000138 .LASF3
     /tmp/ccEY5aWO.s:1893   .debug_str:0000000000000023 .LASF5
     /tmp/ccEY5aWO.s:1889   .debug_str:0000000000000000 .LASF6
     /tmp/ccEY5aWO.s:1919   .debug_str:00000000000000e2 .LASF7
     /tmp/ccEY5aWO.s:1949   .debug_str:0000000000000299 .LASF8
     /tmp/ccEY5aWO.s:1907   .debug_str:0000000000000075 .LASF9
     /tmp/ccEY5aWO.s:1987   .debug_str:0000000000000433 .LASF10
     /tmp/ccEY5aWO.s:1921   .debug_str:00000000000000f5 .LASF11
     /tmp/ccEY5aWO.s:1973   .debug_str:00000000000003b0 .LASF12
     /tmp/ccEY5aWO.s:1957   .debug_str:00000000000002ec .LASF13
     /tmp/ccEY5aWO.s:1935   .debug_str:0000000000000165 .LASF14
     /tmp/ccEY5aWO.s:1915   .debug_str:00000000000000c2 .LASF15
     /tmp/ccEY5aWO.s:1951   .debug_str:00000000000002a9 .LASF16
     /tmp/ccEY5aWO.s:1917   .debug_str:00000000000000d8 .LASF44
     /tmp/ccEY5aWO.s:1895   .debug_str:000000000000002a .LASF17
     /tmp/ccEY5aWO.s:1983   .debug_str:000000000000041c .LASF18
     /tmp/ccEY5aWO.s:1979   .debug_str:000000000000040e .LASF19
     /tmp/ccEY5aWO.s:1891   .debug_str:0000000000000013 .LASF45
     /tmp/ccEY5aWO.s:1959   .debug_str:00000000000002fc .LASF20
     /tmp/ccEY5aWO.s:1905   .debug_str:0000000000000070 .LASF21
     /tmp/ccEY5aWO.s:1897   .debug_str:000000000000002f .LASF22
     /tmp/ccEY5aWO.s:1911   .debug_str:000000000000008a .LASF23
     /tmp/ccEY5aWO.s:1965   .debug_str:0000000000000352 .LASF24
     /tmp/ccEY5aWO.s:1985   .debug_str:0000000000000421 .LASF25
     /tmp/ccEY5aWO.s:1975   .debug_str:00000000000003c0 .LASF26
     /tmp/ccEY5aWO.s:1967   .debug_str:000000000000035f .LASF28
     /tmp/ccEY5aWO.s:1955   .debug_str:00000000000002e3 .LASF27
     /tmp/ccEY5aWO.s:1925   .debug_str:0000000000000109 .LASF29
     /tmp/ccEY5aWO.s:1971   .debug_str:00000000000003a6 .LASF46
     /tmp/ccEY5aWO.s:1963   .debug_str:0000000000000327 .LASF47
     /tmp/ccEY5aWO.s:1901   .debug_str:0000000000000059 .LASF48
     /tmp/ccEY5aWO.s:1961   .debug_str:0000000000000301 .LASF49
     /tmp/ccEY5aWO.s:1945   .debug_str:0000000000000271 .LASF30
     /tmp/ccEY5aWO.s:1943   .debug_str:0000000000000256 .LASF31
     /tmp/ccEY5aWO.s:1899   .debug_str:0000000000000039 .LASF32
     /tmp/ccEY5aWO.s:1969   .debug_str:0000000000000380 .LASF33
     /tmp/ccEY5aWO.s:1953   .debug_str:00000000000002bf .LASF34
     /tmp/ccEY5aWO.s:1913   .debug_str:0000000000000099 .LASF35
     /tmp/ccEY5aWO.s:349    .text:0000000000000194 .LFB3
     /tmp/ccEY5aWO.s:402    .text:00000000000001e8 .LFE3
     /tmp/ccEY5aWO.s:1923   .debug_str:0000000000000104 .LASF36
     /tmp/ccEY5aWO.s:408    .text:00000000000001e8 .LFB2
     /tmp/ccEY5aWO.s:642    .text:0000000000000348 .LFE2
     /tmp/ccEY5aWO.s:1635   .debug_loc:0000000000000000 .LLST6
     /tmp/ccEY5aWO.s:1699   .debug_loc:0000000000000110 .LLST7
     /tmp/ccEY5aWO.s:484    .text:000000000000026c .LBB34
     /tmp/ccEY5aWO.s:519    .text:00000000000002a4 .LBE34
     /tmp/ccEY5aWO.s:1937   .debug_str:0000000000000171 .LASF37
     /tmp/ccEY5aWO.s:1748   .debug_loc:00000000000001c6 .LLST8
     /tmp/ccEY5aWO.s:513    .text:0000000000000298 .LVL24
     /tmp/ccEY5aWO.s:518    .text:00000000000002a4 .LVL25
     /tmp/ccEY5aWO.s:598    .text:0000000000000318 .LVL30
     /tmp/ccEY5aWO.s:10     .text:0000000000000000 .LFB1
GAS LISTING /tmp/ccEY5aWO.s 			page 26


     /tmp/ccEY5aWO.s:343    .text:0000000000000194 .LFE1
     /tmp/ccEY5aWO.s:1759   .debug_loc:00000000000001fc .LLST0
     /tmp/ccEY5aWO.s:1933   .debug_str:000000000000015d .LASF38
     /tmp/ccEY5aWO.s:1773   .debug_loc:0000000000000235 .LLST1
     /tmp/ccEY5aWO.s:1867   .debug_ranges:0000000000000000 .Ldebug_ranges0
     /tmp/ccEY5aWO.s:1798   .debug_loc:00000000000002a6 .LLST2
     /tmp/ccEY5aWO.s:1903   .debug_str:0000000000000067 .LASF39
     /tmp/ccEY5aWO.s:1809   .debug_loc:00000000000002dc .LLST3
     /tmp/ccEY5aWO.s:192    .text:00000000000000d8 .LBB8
     /tmp/ccEY5aWO.s:223    .text:0000000000000100 .LBE8
     /tmp/ccEY5aWO.s:1981   .debug_str:0000000000000413 .LASF40
     /tmp/ccEY5aWO.s:1832   .debug_loc:000000000000032d .LLST4
     /tmp/ccEY5aWO.s:307    .text:000000000000016c .LBB17
     /tmp/ccEY5aWO.s:335    .text:0000000000000194 .LBE17
     /tmp/ccEY5aWO.s:1843   .debug_loc:0000000000000363 .LLST5
     /tmp/ccEY5aWO.s:411    .text:00000000000001e8 .LVL20
     /tmp/ccEY5aWO.s:433    .text:0000000000000220 .LVL21
     /tmp/ccEY5aWO.s:537    .text:00000000000002bc .LVL27
     /tmp/ccEY5aWO.s:606    .text:0000000000000320 .LVL31
     /tmp/ccEY5aWO.s:616    .text:0000000000000324 .LVL32
     /tmp/ccEY5aWO.s:618    .text:0000000000000328 .LVL33
     /tmp/ccEY5aWO.s:622    .text:000000000000032c .LVL34
     /tmp/ccEY5aWO.s:624    .text:0000000000000330 .LVL35
     /tmp/ccEY5aWO.s:627    .text:0000000000000334 .LVL36
     /tmp/ccEY5aWO.s:629    .text:0000000000000338 .LVL37
     /tmp/ccEY5aWO.s:632    .text:000000000000033c .LVL38
     /tmp/ccEY5aWO.s:571    .text:00000000000002f0 .LVL28
     /tmp/ccEY5aWO.s:574    .text:00000000000002f4 .LVL29
     /tmp/ccEY5aWO.s:634    .text:0000000000000340 .LVL39
     /tmp/ccEY5aWO.s:638    .text:0000000000000344 .LVL40
     /tmp/ccEY5aWO.s:483    .text:000000000000026c .LVL22
     /tmp/ccEY5aWO.s:489    .text:0000000000000274 .LVL23
     /tmp/ccEY5aWO.s:524    .text:00000000000002a8 .LVL26
     /tmp/ccEY5aWO.s:14     .text:0000000000000000 .LVL0
     /tmp/ccEY5aWO.s:39     .text:0000000000000028 .LVL2
     /tmp/ccEY5aWO.s:33     .text:0000000000000020 .LVL1
     /tmp/ccEY5aWO.s:104    .text:0000000000000084 .LVL4
     /tmp/ccEY5aWO.s:123    .text:0000000000000090 .LVL5
     /tmp/ccEY5aWO.s:154    .text:00000000000000b0 .LVL8
     /tmp/ccEY5aWO.s:176    .text:00000000000000c4 .LVL11
     /tmp/ccEY5aWO.s:215    .text:00000000000000f8 .LVL14
     /tmp/ccEY5aWO.s:221    .text:0000000000000100 .LVL15
     /tmp/ccEY5aWO.s:231    .text:0000000000000104 .LVL16
     /tmp/ccEY5aWO.s:142    .text:00000000000000a4 .LVL7
     /tmp/ccEY5aWO.s:59     .text:0000000000000040 .LVL3
     /tmp/ccEY5aWO.s:133    .text:00000000000000a0 .LVL6
     /tmp/ccEY5aWO.s:167    .text:00000000000000b8 .LVL10
     /tmp/ccEY5aWO.s:189    .text:00000000000000d8 .LVL12
     /tmp/ccEY5aWO.s:198    .text:00000000000000e0 .LVL13
     /tmp/ccEY5aWO.s:305    .text:000000000000016c .LVL17
     /tmp/ccEY5aWO.s:313    .text:0000000000000174 .LVL18
     /tmp/ccEY5aWO.s:682    .debug_info:0000000000000000 .Ldebug_info0
     /tmp/ccEY5aWO.s:36     .text:0000000000000020 .LBB2
     /tmp/ccEY5aWO.s:111    .text:0000000000000088 .LBE2
     /tmp/ccEY5aWO.s:113    .text:0000000000000088 .LBB29
     /tmp/ccEY5aWO.s:145    .text:00000000000000a4 .LBE29
     /tmp/ccEY5aWO.s:157    .text:00000000000000b0 .LBB30
GAS LISTING /tmp/ccEY5aWO.s 			page 27


     /tmp/ccEY5aWO.s:261    .text:000000000000012c .LBE30
     /tmp/ccEY5aWO.s:263    .text:000000000000012c .LBB31
     /tmp/ccEY5aWO.s:341    .text:0000000000000194 .LBE31
     /tmp/ccEY5aWO.s:52     .text:0000000000000038 .LBB5
     /tmp/ccEY5aWO.s:108    .text:0000000000000088 .LBE5
     /tmp/ccEY5aWO.s:116    .text:0000000000000088 .LBB12
     /tmp/ccEY5aWO.s:137    .text:00000000000000a0 .LBE12
     /tmp/ccEY5aWO.s:171    .text:00000000000000b8 .LBB13
     /tmp/ccEY5aWO.s:226    .text:0000000000000100 .LBE13

UNDEFINED SYMBOLS
HEAP_START_ADDR
HEAP_END_ADDR
