GAS LISTING /tmp/ccRPu1R5.s 			page 1


   1              		.file	"memoryAllocator.cpp"
   2              		.option pic
   3              		.option norelax
   4              		.text
   5              	.Ltext0:
   6              		.align	2
   7              		.globl	_ZN15MemoryAllocator9mem_allocEm
   9              	_ZN15MemoryAllocator9mem_allocEm:
  10              	.LFB1:
  11              		.file 1 "src/memoryAllocator.cpp"
   1:src/memoryAllocator.cpp **** #include "../lib/hw.h"
   2:src/memoryAllocator.cpp **** #include "../h/memoryAllocator.hpp"
   3:src/memoryAllocator.cpp **** 
   4:src/memoryAllocator.cpp **** 
   5:src/memoryAllocator.cpp **** DataBlock* MemoryAllocator::free = nullptr;
   6:src/memoryAllocator.cpp **** DataBlock* MemoryAllocator::used = nullptr;
   7:src/memoryAllocator.cpp **** 
   8:src/memoryAllocator.cpp **** 
   9:src/memoryAllocator.cpp **** 
  10:src/memoryAllocator.cpp **** void *MemoryAllocator::mem_alloc(size_t size) {
  12              		.loc 1 10 47
  13              		.cfi_startproc
  14              	.LVL0:
  15 0000 130101FF 		addi	sp,sp,-16
  16              		.cfi_def_cfa_offset 16
  17 0004 23348100 		sd	s0,8(sp)
  18              		.cfi_offset 8, -8
  19 0008 13040101 		addi	s0,sp,16
  20              		.cfi_def_cfa 8, 0
  21 000c 93070500 		mv	a5,a0
  11:src/memoryAllocator.cpp ****     size_t newSize;
  22              		.loc 1 11 5
  12:src/memoryAllocator.cpp ****     if(size%MEM_BLOCK_SIZE != 0) {
  23              		.loc 1 12 5
  24              		.loc 1 12 12 is_stmt 0
  25 0010 1377F503 		andi	a4,a0,63
  26              		.loc 1 12 5
  27 0014 63060700 		beqz	a4,.L2
  13:src/memoryAllocator.cpp ****         newSize = ((size + MEM_BLOCK_SIZE - 1) / MEM_BLOCK_SIZE) * MEM_BLOCK_SIZE;
  28              		.loc 1 13 9 is_stmt 1
  29              		.loc 1 13 43 is_stmt 0
  30 0018 9307F503 		addi	a5,a0,63
  31              		.loc 1 13 17
  32 001c 93F707FC 		andi	a5,a5,-64
  33              	.LVL1:
  34              	.L2:
  14:src/memoryAllocator.cpp ****     }
  15:src/memoryAllocator.cpp ****     else {
  16:src/memoryAllocator.cpp ****         newSize = size;
  17:src/memoryAllocator.cpp ****     }
  18:src/memoryAllocator.cpp **** 
  19:src/memoryAllocator.cpp ****     for(DataBlock* curr = MemoryAllocator::free; curr != nullptr; curr=curr->next) {
  35              		.loc 1 19 5 is_stmt 1
  36              	.LBB2:
  37              		.loc 1 19 20 is_stmt 0
  38 0020 17050000 		ld	a0,.LANCHOR0
  38      03350500 
GAS LISTING /tmp/ccRPu1R5.s 			page 2


  39              	.LVL2:
  40              	.L5:
  41              		.loc 1 19 55 is_stmt 1 discriminator 1
  42 0028 630A050C 		beqz	a0,.L1
  43              	.LBB3:
  20:src/memoryAllocator.cpp ****         if(curr->size<newSize) continue;
  44              		.loc 1 20 9
  45              		.loc 1 20 18 is_stmt 0
  46 002c 03370501 		ld	a4,16(a0)
  47              		.loc 1 20 9
  48 0030 6362F706 		bltu	a4,a5,.L27
  21:src/memoryAllocator.cpp ****         if(curr->size > newSize) {
  49              		.loc 1 21 9 is_stmt 1
  50              	.LBB4:
  51 0034 63F4E710 		bleu	a4,a5,.L6
  52              	.LBB5:
  22:src/memoryAllocator.cpp ****             //new fragment needs to be created
  23:src/memoryAllocator.cpp ****             //novi ce biti offsetovan od curr za novi size i plus za sizeof(DataBlock) zato sto se 
  24:src/memoryAllocator.cpp ****             // nalazi taj "header"
  25:src/memoryAllocator.cpp ****             DataBlock *newBlock;
  53              		.loc 1 25 13
  26:src/memoryAllocator.cpp ****             newBlock = (DataBlock*) ((char*)curr + newSize + sizeof(DataBlock));
  54              		.loc 1 26 13
  55              		.loc 1 26 60 is_stmt 0
  56 0038 13878701 		addi	a4,a5,24
  57              		.loc 1 26 22
  58 003c 3307E500 		add	a4,a0,a4
  59              	.LVL3:
  27:src/memoryAllocator.cpp **** 
  28:src/memoryAllocator.cpp ****             //Azuriranje free liste
  29:src/memoryAllocator.cpp ****             if(curr->prev) curr->prev->next = newBlock;
  60              		.loc 1 29 13 is_stmt 1
  61              		.loc 1 29 22 is_stmt 0
  62 0040 83368500 		ld	a3,8(a0)
  63              		.loc 1 29 13
  64 0044 638C0604 		beqz	a3,.L7
  65              		.loc 1 29 28 is_stmt 1 discriminator 1
  66              		.loc 1 29 45 is_stmt 0 discriminator 1
  67 0048 23B0E600 		sd	a4,0(a3)
  68              	.L8:
  30:src/memoryAllocator.cpp ****             else MemoryAllocator::free = newBlock;
  31:src/memoryAllocator.cpp ****             if(curr->next) curr->next->prev = newBlock;
  69              		.loc 1 31 13 is_stmt 1
  70              		.loc 1 31 22 is_stmt 0
  71 004c 83360500 		ld	a3,0(a0)
  72              		.loc 1 31 13
  73 0050 63840600 		beqz	a3,.L9
  74              		.loc 1 31 28 is_stmt 1 discriminator 1
  75              		.loc 1 31 45 is_stmt 0 discriminator 1
  76 0054 23B4E600 		sd	a4,8(a3)
  77              	.L9:
  32:src/memoryAllocator.cpp ****             newBlock->prev = curr->prev;
  78              		.loc 1 32 13 is_stmt 1
  79              		.loc 1 32 36 is_stmt 0
  80 0058 83368500 		ld	a3,8(a0)
  81              		.loc 1 32 28
  82 005c 2334D700 		sd	a3,8(a4)
GAS LISTING /tmp/ccRPu1R5.s 			page 3


  33:src/memoryAllocator.cpp ****             newBlock->next = curr->next;
  83              		.loc 1 33 13 is_stmt 1
  84              		.loc 1 33 36 is_stmt 0
  85 0060 83360500 		ld	a3,0(a0)
  86              		.loc 1 33 28
  87 0064 2330D700 		sd	a3,0(a4)
  34:src/memoryAllocator.cpp ****             //size novi je sada prethodni size - novi size i jos - sizeof(DataBlock) jer se to ne b
  35:src/memoryAllocator.cpp ****             //pa mora i to da se cuva
  36:src/memoryAllocator.cpp ****             newBlock->size = curr->size - newSize - sizeof(DataBlock);
  88              		.loc 1 36 13 is_stmt 1
  89              		.loc 1 36 36 is_stmt 0
  90 0068 83360501 		ld	a3,16(a0)
  91              		.loc 1 36 41
  92 006c B386F640 		sub	a3,a3,a5
  93              		.loc 1 36 51
  94 0070 938686FE 		addi	a3,a3,-24
  95              		.loc 1 36 28
  96 0074 2338D700 		sd	a3,16(a4)
  37:src/memoryAllocator.cpp ****             curr->size = newSize;
  97              		.loc 1 37 13 is_stmt 1
  98              		.loc 1 37 24 is_stmt 0
  99 0078 2338F500 		sd	a5,16(a0)
  38:src/memoryAllocator.cpp **** 
  39:src/memoryAllocator.cpp **** 
  40:src/memoryAllocator.cpp ****             //azuriranje USED liste
  41:src/memoryAllocator.cpp ****             DataBlock* currUsed = used;
 100              		.loc 1 41 13 is_stmt 1
 101              		.loc 1 41 24 is_stmt 0
 102 007c 97050000 		ld	a1,.LANCHOR0+8
 102      83B50500 
 103              	.LVL4:
  42:src/memoryAllocator.cpp ****             DataBlock* prevUsed = nullptr;
 104              		.loc 1 42 13 is_stmt 1
  43:src/memoryAllocator.cpp **** 
  44:src/memoryAllocator.cpp ****             if(used == nullptr) {
 105              		.loc 1 44 13
 106 0084 63820502 		beqz	a1,.L28
  41:src/memoryAllocator.cpp ****             DataBlock* prevUsed = nullptr;
 107              		.loc 1 41 24 is_stmt 0
 108 0088 13870500 		mv	a4,a1
 109              	.LVL5:
  42:src/memoryAllocator.cpp ****             DataBlock* prevUsed = nullptr;
 110              		.loc 1 42 24
 111 008c 13060000 		li	a2,0
 112 0090 6F008003 		j	.L10
 113              	.LVL6:
 114              	.L27:
 115              	.LBE5:
 116              	.LBE4:
  20:src/memoryAllocator.cpp ****         if(curr->size > newSize) {
 117              		.loc 1 20 32 is_stmt 1 discriminator 1
 118              	.LBE3:
  19:src/memoryAllocator.cpp ****         if(curr->size<newSize) continue;
 119              		.loc 1 19 5 discriminator 1
  19:src/memoryAllocator.cpp ****         if(curr->size<newSize) continue;
 120              		.loc 1 19 71 is_stmt 0 discriminator 1
 121 0094 03350500 		ld	a0,0(a0)
GAS LISTING /tmp/ccRPu1R5.s 			page 4


 122              	.LVL7:
  19:src/memoryAllocator.cpp ****         if(curr->size<newSize) continue;
 123              		.loc 1 19 5 discriminator 1
 124 0098 6FF01FF9 		j	.L5
 125              	.LVL8:
 126              	.L7:
 127              	.LBB11:
 128              	.LBB9:
 129              	.LBB6:
  30:src/memoryAllocator.cpp ****             if(curr->next) curr->next->prev = newBlock;
 130              		.loc 1 30 18 is_stmt 1
  30:src/memoryAllocator.cpp ****             if(curr->next) curr->next->prev = newBlock;
 131              		.loc 1 30 40 is_stmt 0
 132 009c 97060000 		sd	a4,.LANCHOR0,a3
 132      23B0E600 
 133 00a4 6FF09FFA 		j	.L8
 134              	.LVL9:
 135              	.L28:
  45:src/memoryAllocator.cpp ****                 used = curr;
 136              		.loc 1 45 17 is_stmt 1
 137              		.loc 1 45 22 is_stmt 0
 138 00a8 97070000 		sd	a0,.LANCHOR0+8,a5
 138      23B0A700 
 139              	.LVL10:
  46:src/memoryAllocator.cpp ****                 curr->next = nullptr;
 140              		.loc 1 46 17 is_stmt 1
 141              		.loc 1 46 28 is_stmt 0
 142 00b0 23300500 		sd	zero,0(a0)
  47:src/memoryAllocator.cpp ****                 curr->prev = nullptr;
 143              		.loc 1 47 17 is_stmt 1
 144              		.loc 1 47 28 is_stmt 0
 145 00b4 23340500 		sd	zero,8(a0)
  48:src/memoryAllocator.cpp ****                 return (char*)curr + sizeof(DataBlock);
 146              		.loc 1 48 17 is_stmt 1
 147              		.loc 1 48 54 is_stmt 0
 148 00b8 13058501 		addi	a0,a0,24
 149              	.LVL11:
 150 00bc 6F000004 		j	.L1
 151              	.LVL12:
 152              	.L24:
  49:src/memoryAllocator.cpp ****             }
  50:src/memoryAllocator.cpp **** 
  51:src/memoryAllocator.cpp ****             for(;currUsed->next && (char*)currUsed + sizeof(DataBlock) + currUsed->size  < (char*) 
  52:src/memoryAllocator.cpp ****                  prevUsed = currUsed, currUsed = currUsed->next);
 153              		.loc 1 52 27
 154 00c0 13060700 		mv	a2,a4
 155              	.LVL13:
 156              		.loc 1 52 48
 157 00c4 13870600 		mv	a4,a3
 158              	.LVL14:
 159              	.L10:
  51:src/memoryAllocator.cpp ****                  prevUsed = currUsed, currUsed = currUsed->next);
 160              		.loc 1 51 13 is_stmt 1
  51:src/memoryAllocator.cpp ****                  prevUsed = currUsed, currUsed = currUsed->next);
 161              		.loc 1 51 33
  51:src/memoryAllocator.cpp ****                  prevUsed = currUsed, currUsed = currUsed->next);
 162              		.loc 1 51 28 is_stmt 0
GAS LISTING /tmp/ccRPu1R5.s 			page 5


 163 00c8 83360700 		ld	a3,0(a4)
  51:src/memoryAllocator.cpp ****                  prevUsed = currUsed, currUsed = currUsed->next);
 164              		.loc 1 51 33
 165 00cc 638A0600 		beqz	a3,.L11
  51:src/memoryAllocator.cpp ****                  prevUsed = currUsed, currUsed = currUsed->next);
 166              		.loc 1 51 84 discriminator 1
 167 00d0 83370701 		ld	a5,16(a4)
  51:src/memoryAllocator.cpp ****                  prevUsed = currUsed, currUsed = currUsed->next);
 168              		.loc 1 51 72 discriminator 1
 169 00d4 93878701 		addi	a5,a5,24
 170 00d8 B307F700 		add	a5,a4,a5
  51:src/memoryAllocator.cpp ****                  prevUsed = currUsed, currUsed = currUsed->next);
 171              		.loc 1 51 33 discriminator 1
 172 00dc E3E2A7FE 		bltu	a5,a0,.L24
 173              	.L11:
  53:src/memoryAllocator.cpp **** 
  54:src/memoryAllocator.cpp **** 
  55:src/memoryAllocator.cpp ****             if(currUsed == used && (char*)currUsed < (char*)used) {
 174              		.loc 1 55 13 is_stmt 1
 175 00e0 6304B702 		beq	a4,a1,.L29
 176              	.L12:
  56:src/memoryAllocator.cpp ****                 //Insert before used
  57:src/memoryAllocator.cpp ****                 curr->next = used;
  58:src/memoryAllocator.cpp ****                 curr->prev = nullptr;
  59:src/memoryAllocator.cpp ****                 used->prev = curr;
  60:src/memoryAllocator.cpp ****                 used = curr;
  61:src/memoryAllocator.cpp ****             }
  62:src/memoryAllocator.cpp ****             else if (currUsed->next == nullptr) {
 177              		.loc 1 62 18
 178 00e4 63840604 		beqz	a3,.L30
  63:src/memoryAllocator.cpp ****                 //Insert at the end
  64:src/memoryAllocator.cpp ****                 currUsed->next = curr;
  65:src/memoryAllocator.cpp ****                 curr->prev = currUsed;
  66:src/memoryAllocator.cpp ****                 curr->next = nullptr;
  67:src/memoryAllocator.cpp ****             }
  68:src/memoryAllocator.cpp ****             else {
  69:src/memoryAllocator.cpp ****                 //Insert into list in the middle (prev, curr, currUsed)
  70:src/memoryAllocator.cpp ****                 prevUsed->next = curr;
 179              		.loc 1 70 17
 180              		.loc 1 70 32 is_stmt 0
 181 00e8 2330A600 		sd	a0,0(a2)
 182              	.LVL15:
  71:src/memoryAllocator.cpp ****                 curr->prev = prevUsed;
 183              		.loc 1 71 17 is_stmt 1
 184              		.loc 1 71 28 is_stmt 0
 185 00ec 2334C500 		sd	a2,8(a0)
  72:src/memoryAllocator.cpp ****                 curr->next = currUsed;
 186              		.loc 1 72 17 is_stmt 1
 187              		.loc 1 72 28 is_stmt 0
 188 00f0 2330E500 		sd	a4,0(a0)
  73:src/memoryAllocator.cpp ****                 currUsed->prev = curr;
 189              		.loc 1 73 17 is_stmt 1
 190              		.loc 1 73 32 is_stmt 0
 191 00f4 2334A700 		sd	a0,8(a4)
 192              	.LVL16:
 193              	.L13:
  74:src/memoryAllocator.cpp ****             }
GAS LISTING /tmp/ccRPu1R5.s 			page 6


  75:src/memoryAllocator.cpp ****             return (char*)curr + sizeof(DataBlock);
 194              		.loc 1 75 13 is_stmt 1
 195              		.loc 1 75 50 is_stmt 0
 196 00f8 13058501 		addi	a0,a0,24
 197              	.LVL17:
 198              	.L1:
 199              	.LBE6:
 200              	.LBE9:
 201              	.LBE11:
 202              	.LBE2:
  76:src/memoryAllocator.cpp ****         }
  77:src/memoryAllocator.cpp ****         else {
  78:src/memoryAllocator.cpp ****             //They are the exact same size
  79:src/memoryAllocator.cpp ****             //Update FREE list
  80:src/memoryAllocator.cpp ****             if (curr->prev) curr->prev->next = curr->next;
  81:src/memoryAllocator.cpp ****             else MemoryAllocator::free = curr->next;
  82:src/memoryAllocator.cpp **** 
  83:src/memoryAllocator.cpp ****             if(curr->next) curr->next->prev = curr->prev;
  84:src/memoryAllocator.cpp **** 
  85:src/memoryAllocator.cpp **** 
  86:src/memoryAllocator.cpp ****             //azuriranje USED liste
  87:src/memoryAllocator.cpp ****             DataBlock* currUsed = used;
  88:src/memoryAllocator.cpp ****             DataBlock* prevUsed = nullptr;
  89:src/memoryAllocator.cpp **** 
  90:src/memoryAllocator.cpp ****             for(;currUsed->next && (char*)currUsed + sizeof(DataBlock) + currUsed->size  < (char*) 
  91:src/memoryAllocator.cpp ****                  prevUsed = currUsed, currUsed = currUsed->next);
  92:src/memoryAllocator.cpp **** 
  93:src/memoryAllocator.cpp ****             if(currUsed == used) {
  94:src/memoryAllocator.cpp ****                 //Insert before used
  95:src/memoryAllocator.cpp ****                 curr->next = used;
  96:src/memoryAllocator.cpp ****                 curr->prev = nullptr;
  97:src/memoryAllocator.cpp ****                 used->prev = curr;
  98:src/memoryAllocator.cpp ****                 used = curr;
  99:src/memoryAllocator.cpp ****             }
 100:src/memoryAllocator.cpp ****             else if (currUsed->next == nullptr) {
 101:src/memoryAllocator.cpp ****                 //Insert at the end
 102:src/memoryAllocator.cpp ****                 currUsed->next = curr;
 103:src/memoryAllocator.cpp ****                 curr->prev = currUsed;
 104:src/memoryAllocator.cpp ****                 curr->next = nullptr;
 105:src/memoryAllocator.cpp ****             }
 106:src/memoryAllocator.cpp ****             else {
 107:src/memoryAllocator.cpp ****                 //Insert into list in the middle (prev, curr, currUsed)
 108:src/memoryAllocator.cpp ****                 //DOES IT NEED TO BE BEFORE CURRUSED?
 109:src/memoryAllocator.cpp **** //                curr->next = currUsed->next;
 110:src/memoryAllocator.cpp **** //                curr->prev = currUsed;
 111:src/memoryAllocator.cpp **** //                if(currUsed->next) {
 112:src/memoryAllocator.cpp **** //                    currUsed->next->prev = curr;
 113:src/memoryAllocator.cpp **** //                }
 114:src/memoryAllocator.cpp **** //                currUsed->next = curr;
 115:src/memoryAllocator.cpp **** 
 116:src/memoryAllocator.cpp ****                 prevUsed->next = curr;
 117:src/memoryAllocator.cpp ****                 curr->prev = prevUsed;
 118:src/memoryAllocator.cpp ****                 curr->next = currUsed;
 119:src/memoryAllocator.cpp ****                 currUsed->prev = curr;
 120:src/memoryAllocator.cpp ****             }
 121:src/memoryAllocator.cpp ****             return (char*)curr + sizeof(DataBlock);
 122:src/memoryAllocator.cpp ****         }
GAS LISTING /tmp/ccRPu1R5.s 			page 7


 123:src/memoryAllocator.cpp ****     }
 124:src/memoryAllocator.cpp ****     return nullptr; //should not enter here
 125:src/memoryAllocator.cpp **** }
 203              		.loc 1 125 1
 204 00fc 03348100 		ld	s0,8(sp)
 205              		.cfi_remember_state
 206              		.cfi_restore 8
 207              		.cfi_def_cfa 2, 16
 208 0100 13010101 		addi	sp,sp,16
 209              		.cfi_def_cfa_offset 0
 210 0104 67800000 		jr	ra
 211              	.LVL18:
 212              	.L29:
 213              		.cfi_restore_state
 214              	.LBB13:
 215              	.LBB12:
 216              	.LBB10:
 217              	.LBB7:
  55:src/memoryAllocator.cpp ****                 //Insert before used
 218              		.loc 1 55 33 discriminator 1
 219 0108 E37EB7FC 		bgeu	a4,a1,.L12
  57:src/memoryAllocator.cpp ****                 curr->prev = nullptr;
 220              		.loc 1 57 17 is_stmt 1
  57:src/memoryAllocator.cpp ****                 curr->prev = nullptr;
 221              		.loc 1 57 28 is_stmt 0
 222 010c 2330B500 		sd	a1,0(a0)
  58:src/memoryAllocator.cpp ****                 used->prev = curr;
 223              		.loc 1 58 17 is_stmt 1
  58:src/memoryAllocator.cpp ****                 used->prev = curr;
 224              		.loc 1 58 28 is_stmt 0
 225 0110 23340500 		sd	zero,8(a0)
  59:src/memoryAllocator.cpp ****                 used = curr;
 226              		.loc 1 59 17 is_stmt 1
  59:src/memoryAllocator.cpp ****                 used = curr;
 227              		.loc 1 59 23 is_stmt 0
 228 0114 97070000 		lla	a5,.LANCHOR0
 228      93870700 
 229 011c 03B78700 		ld	a4,8(a5)
 230              	.LVL19:
  59:src/memoryAllocator.cpp ****                 used = curr;
 231              		.loc 1 59 28
 232 0120 2334A700 		sd	a0,8(a4)
 233              	.LVL20:
  60:src/memoryAllocator.cpp ****             }
 234              		.loc 1 60 17 is_stmt 1
  60:src/memoryAllocator.cpp ****             }
 235              		.loc 1 60 22 is_stmt 0
 236 0124 23B4A700 		sd	a0,8(a5)
 237 0128 6FF01FFD 		j	.L13
 238              	.LVL21:
 239              	.L30:
  64:src/memoryAllocator.cpp ****                 curr->prev = currUsed;
 240              		.loc 1 64 17 is_stmt 1
  64:src/memoryAllocator.cpp ****                 curr->prev = currUsed;
 241              		.loc 1 64 32 is_stmt 0
 242 012c 2330A700 		sd	a0,0(a4)
 243              	.LVL22:
GAS LISTING /tmp/ccRPu1R5.s 			page 8


  65:src/memoryAllocator.cpp ****                 curr->next = nullptr;
 244              		.loc 1 65 17 is_stmt 1
  65:src/memoryAllocator.cpp ****                 curr->next = nullptr;
 245              		.loc 1 65 28 is_stmt 0
 246 0130 2334E500 		sd	a4,8(a0)
  66:src/memoryAllocator.cpp ****             }
 247              		.loc 1 66 17 is_stmt 1
  66:src/memoryAllocator.cpp ****             }
 248              		.loc 1 66 28 is_stmt 0
 249 0134 23300500 		sd	zero,0(a0)
 250 0138 6FF01FFC 		j	.L13
 251              	.LVL23:
 252              	.L6:
 253              	.LBE7:
 254              	.LBB8:
  80:src/memoryAllocator.cpp ****             else MemoryAllocator::free = curr->next;
 255              		.loc 1 80 13 is_stmt 1
  80:src/memoryAllocator.cpp ****             else MemoryAllocator::free = curr->next;
 256              		.loc 1 80 23 is_stmt 0
 257 013c 83378500 		ld	a5,8(a0)
 258              	.LVL24:
  80:src/memoryAllocator.cpp ****             else MemoryAllocator::free = curr->next;
 259              		.loc 1 80 13
 260 0140 63880702 		beqz	a5,.L15
  80:src/memoryAllocator.cpp ****             else MemoryAllocator::free = curr->next;
 261              		.loc 1 80 29 is_stmt 1 discriminator 1
  80:src/memoryAllocator.cpp ****             else MemoryAllocator::free = curr->next;
 262              		.loc 1 80 54 is_stmt 0 discriminator 1
 263 0144 03370500 		ld	a4,0(a0)
  80:src/memoryAllocator.cpp ****             else MemoryAllocator::free = curr->next;
 264              		.loc 1 80 46 discriminator 1
 265 0148 23B0E700 		sd	a4,0(a5)
 266              	.L16:
  83:src/memoryAllocator.cpp **** 
 267              		.loc 1 83 13 is_stmt 1
  83:src/memoryAllocator.cpp **** 
 268              		.loc 1 83 22 is_stmt 0
 269 014c 83370500 		ld	a5,0(a0)
  83:src/memoryAllocator.cpp **** 
 270              		.loc 1 83 13
 271 0150 63860700 		beqz	a5,.L17
  83:src/memoryAllocator.cpp **** 
 272              		.loc 1 83 28 is_stmt 1 discriminator 1
  83:src/memoryAllocator.cpp **** 
 273              		.loc 1 83 53 is_stmt 0 discriminator 1
 274 0154 03378500 		ld	a4,8(a0)
  83:src/memoryAllocator.cpp **** 
 275              		.loc 1 83 45 discriminator 1
 276 0158 23B4E700 		sd	a4,8(a5)
 277              	.L17:
  87:src/memoryAllocator.cpp ****             DataBlock* prevUsed = nullptr;
 278              		.loc 1 87 13 is_stmt 1
  87:src/memoryAllocator.cpp ****             DataBlock* prevUsed = nullptr;
 279              		.loc 1 87 24 is_stmt 0
 280 015c 97050000 		ld	a1,.LANCHOR0+8
 280      83B50500 
 281              	.LVL25:
GAS LISTING /tmp/ccRPu1R5.s 			page 9


  88:src/memoryAllocator.cpp **** 
 282              		.loc 1 88 13 is_stmt 1
  87:src/memoryAllocator.cpp ****             DataBlock* prevUsed = nullptr;
 283              		.loc 1 87 24 is_stmt 0
 284 0164 13870500 		mv	a4,a1
  88:src/memoryAllocator.cpp **** 
 285              		.loc 1 88 24
 286 0168 13060000 		li	a2,0
 287 016c 6F00C001 		j	.L19
 288              	.LVL26:
 289              	.L15:
  81:src/memoryAllocator.cpp **** 
 290              		.loc 1 81 18 is_stmt 1
  81:src/memoryAllocator.cpp **** 
 291              		.loc 1 81 48 is_stmt 0
 292 0170 83370500 		ld	a5,0(a0)
  81:src/memoryAllocator.cpp **** 
 293              		.loc 1 81 40
 294 0174 17070000 		sd	a5,.LANCHOR0,a4
 294      2330F700 
 295 017c 6FF01FFD 		j	.L16
 296              	.LVL27:
 297              	.L25:
  91:src/memoryAllocator.cpp **** 
 298              		.loc 1 91 27
 299 0180 13060700 		mv	a2,a4
 300              	.LVL28:
  91:src/memoryAllocator.cpp **** 
 301              		.loc 1 91 48
 302 0184 13870600 		mv	a4,a3
 303              	.LVL29:
 304              	.L19:
  90:src/memoryAllocator.cpp ****                  prevUsed = currUsed, currUsed = currUsed->next);
 305              		.loc 1 90 13 is_stmt 1
  90:src/memoryAllocator.cpp ****                  prevUsed = currUsed, currUsed = currUsed->next);
 306              		.loc 1 90 33
  90:src/memoryAllocator.cpp ****                  prevUsed = currUsed, currUsed = currUsed->next);
 307              		.loc 1 90 28 is_stmt 0
 308 0188 83360700 		ld	a3,0(a4)
  90:src/memoryAllocator.cpp ****                  prevUsed = currUsed, currUsed = currUsed->next);
 309              		.loc 1 90 33
 310 018c 638A0600 		beqz	a3,.L18
  90:src/memoryAllocator.cpp ****                  prevUsed = currUsed, currUsed = currUsed->next);
 311              		.loc 1 90 84 discriminator 1
 312 0190 83370701 		ld	a5,16(a4)
  90:src/memoryAllocator.cpp ****                  prevUsed = currUsed, currUsed = currUsed->next);
 313              		.loc 1 90 72 discriminator 1
 314 0194 93878701 		addi	a5,a5,24
 315 0198 B307F700 		add	a5,a4,a5
  90:src/memoryAllocator.cpp ****                  prevUsed = currUsed, currUsed = currUsed->next);
 316              		.loc 1 90 33 discriminator 1
 317 019c E3E2A7FE 		bltu	a5,a0,.L25
 318              	.L18:
  93:src/memoryAllocator.cpp ****                 //Insert before used
 319              		.loc 1 93 13 is_stmt 1
 320 01a0 6300B702 		beq	a4,a1,.L31
 100:src/memoryAllocator.cpp ****                 //Insert at the end
GAS LISTING /tmp/ccRPu1R5.s 			page 10


 321              		.loc 1 100 18
 322 01a4 638E0602 		beqz	a3,.L32
 116:src/memoryAllocator.cpp ****                 curr->prev = prevUsed;
 323              		.loc 1 116 17
 116:src/memoryAllocator.cpp ****                 curr->prev = prevUsed;
 324              		.loc 1 116 32 is_stmt 0
 325 01a8 2330A600 		sd	a0,0(a2)
 117:src/memoryAllocator.cpp ****                 curr->next = currUsed;
 326              		.loc 1 117 17 is_stmt 1
 117:src/memoryAllocator.cpp ****                 curr->next = currUsed;
 327              		.loc 1 117 28 is_stmt 0
 328 01ac 2334C500 		sd	a2,8(a0)
 118:src/memoryAllocator.cpp ****                 currUsed->prev = curr;
 329              		.loc 1 118 17 is_stmt 1
 118:src/memoryAllocator.cpp ****                 currUsed->prev = curr;
 330              		.loc 1 118 28 is_stmt 0
 331 01b0 2330E500 		sd	a4,0(a0)
 119:src/memoryAllocator.cpp ****             }
 332              		.loc 1 119 17 is_stmt 1
 119:src/memoryAllocator.cpp ****             }
 333              		.loc 1 119 32 is_stmt 0
 334 01b4 2334A700 		sd	a0,8(a4)
 335              	.LVL30:
 336              	.L21:
 121:src/memoryAllocator.cpp ****         }
 337              		.loc 1 121 13 is_stmt 1
 121:src/memoryAllocator.cpp ****         }
 338              		.loc 1 121 50 is_stmt 0
 339 01b8 13058501 		addi	a0,a0,24
 340              	.LVL31:
 341 01bc 6FF01FF4 		j	.L1
 342              	.LVL32:
 343              	.L31:
  95:src/memoryAllocator.cpp ****                 curr->prev = nullptr;
 344              		.loc 1 95 17 is_stmt 1
  95:src/memoryAllocator.cpp ****                 curr->prev = nullptr;
 345              		.loc 1 95 28 is_stmt 0
 346 01c0 2330B500 		sd	a1,0(a0)
  96:src/memoryAllocator.cpp ****                 used->prev = curr;
 347              		.loc 1 96 17 is_stmt 1
  96:src/memoryAllocator.cpp ****                 used->prev = curr;
 348              		.loc 1 96 28 is_stmt 0
 349 01c4 23340500 		sd	zero,8(a0)
  97:src/memoryAllocator.cpp ****                 used = curr;
 350              		.loc 1 97 17 is_stmt 1
  97:src/memoryAllocator.cpp ****                 used = curr;
 351              		.loc 1 97 23 is_stmt 0
 352 01c8 97070000 		lla	a5,.LANCHOR0
 352      93870700 
 353 01d0 03B78700 		ld	a4,8(a5)
 354              	.LVL33:
  97:src/memoryAllocator.cpp ****                 used = curr;
 355              		.loc 1 97 28
 356 01d4 2334A700 		sd	a0,8(a4)
  98:src/memoryAllocator.cpp ****             }
 357              		.loc 1 98 17 is_stmt 1
  98:src/memoryAllocator.cpp ****             }
GAS LISTING /tmp/ccRPu1R5.s 			page 11


 358              		.loc 1 98 22 is_stmt 0
 359 01d8 23B4A700 		sd	a0,8(a5)
 360 01dc 6FF0DFFD 		j	.L21
 361              	.LVL34:
 362              	.L32:
 102:src/memoryAllocator.cpp ****                 curr->prev = currUsed;
 363              		.loc 1 102 17 is_stmt 1
 102:src/memoryAllocator.cpp ****                 curr->prev = currUsed;
 364              		.loc 1 102 32 is_stmt 0
 365 01e0 2330A700 		sd	a0,0(a4)
 103:src/memoryAllocator.cpp ****                 curr->next = nullptr;
 366              		.loc 1 103 17 is_stmt 1
 103:src/memoryAllocator.cpp ****                 curr->next = nullptr;
 367              		.loc 1 103 28 is_stmt 0
 368 01e4 2334E500 		sd	a4,8(a0)
 104:src/memoryAllocator.cpp ****             }
 369              		.loc 1 104 17 is_stmt 1
 104:src/memoryAllocator.cpp ****             }
 370              		.loc 1 104 28 is_stmt 0
 371 01e8 23300500 		sd	zero,0(a0)
 372 01ec 6FF0DFFC 		j	.L21
 373              	.LBE8:
 374              	.LBE10:
 375              	.LBE12:
 376              	.LBE13:
 377              		.cfi_endproc
 378              	.LFE1:
 380              		.align	2
 381              		.globl	_ZN15MemoryAllocator9tryToJoinEP9DataBlock
 383              	_ZN15MemoryAllocator9tryToJoinEP9DataBlock:
 384              	.LFB3:
 126:src/memoryAllocator.cpp **** 
 127:src/memoryAllocator.cpp **** int MemoryAllocator::mem_free(void* ptr) {
 128:src/memoryAllocator.cpp ****     if(used == nullptr) return -1;
 129:src/memoryAllocator.cpp ****     if(ptr == nullptr || ptr < HEAP_START_ADDR || ptr > HEAP_END_ADDR) return -2;
 130:src/memoryAllocator.cpp **** 
 131:src/memoryAllocator.cpp ****     DataBlock* curr = (DataBlock*)((char*)ptr - sizeof(DataBlock));
 132:src/memoryAllocator.cpp ****     if(curr < used) return -3;
 133:src/memoryAllocator.cpp **** 
 134:src/memoryAllocator.cpp ****     //Delete from USED list
 135:src/memoryAllocator.cpp ****     if(used == curr) {
 136:src/memoryAllocator.cpp ****         used = curr->next;
 137:src/memoryAllocator.cpp ****         if(used) used->prev = nullptr;
 138:src/memoryAllocator.cpp ****         curr->next = nullptr;
 139:src/memoryAllocator.cpp ****         curr->prev = nullptr;
 140:src/memoryAllocator.cpp ****     } else {
 141:src/memoryAllocator.cpp ****         curr->prev->next = curr->next;
 142:src/memoryAllocator.cpp ****         curr->next->prev = curr->prev;
 143:src/memoryAllocator.cpp ****         curr->next = nullptr;
 144:src/memoryAllocator.cpp ****         curr->prev = nullptr;
 145:src/memoryAllocator.cpp ****     }
 146:src/memoryAllocator.cpp **** 
 147:src/memoryAllocator.cpp ****     //Insert into FREE list
 148:src/memoryAllocator.cpp ****     if (free == nullptr) {
 149:src/memoryAllocator.cpp ****         //Insert as first
 150:src/memoryAllocator.cpp ****         free = curr;
 151:src/memoryAllocator.cpp ****     }
GAS LISTING /tmp/ccRPu1R5.s 			page 12


 152:src/memoryAllocator.cpp ****     else if(curr < free) {
 153:src/memoryAllocator.cpp ****         free->prev = curr;
 154:src/memoryAllocator.cpp ****         curr->prev = nullptr;
 155:src/memoryAllocator.cpp ****         curr->next = free;
 156:src/memoryAllocator.cpp ****         free = curr;
 157:src/memoryAllocator.cpp ****         tryToJoin(free);
 158:src/memoryAllocator.cpp ****     }
 159:src/memoryAllocator.cpp ****     else {
 160:src/memoryAllocator.cpp ****         //Find place in list
 161:src/memoryAllocator.cpp ****         DataBlock* currFree = free;
 162:src/memoryAllocator.cpp ****         for(currFree = free; currFree->next && (char*)(currFree->next) < (char*) curr; currFree = c
 163:src/memoryAllocator.cpp **** 
 164:src/memoryAllocator.cpp ****         curr->next = currFree->next;
 165:src/memoryAllocator.cpp ****         curr->prev = currFree;
 166:src/memoryAllocator.cpp ****         if(curr->next) curr->next->prev = curr;
 167:src/memoryAllocator.cpp ****         curr->next = curr;
 168:src/memoryAllocator.cpp ****         tryToJoin(curr);
 169:src/memoryAllocator.cpp ****         tryToJoin(currFree);
 170:src/memoryAllocator.cpp ****     }
 171:src/memoryAllocator.cpp ****     return 0;
 172:src/memoryAllocator.cpp **** }
 173:src/memoryAllocator.cpp **** 
 174:src/memoryAllocator.cpp **** void MemoryAllocator::tryToJoin(DataBlock *curr) {
 385              		.loc 1 174 50 is_stmt 1
 386              		.cfi_startproc
 387              	.LVL35:
 388 01f0 130101FF 		addi	sp,sp,-16
 389              		.cfi_def_cfa_offset 16
 390 01f4 23348100 		sd	s0,8(sp)
 391              		.cfi_offset 8, -8
 392 01f8 13040101 		addi	s0,sp,16
 393              		.cfi_def_cfa 8, 0
 175:src/memoryAllocator.cpp ****     if(curr->next && (char*)curr + sizeof(DataBlock) + curr->size == (char*)curr->next) {
 394              		.loc 1 175 5
 395              		.loc 1 175 14 is_stmt 0
 396 01fc 83370500 		ld	a5,0(a0)
 397              		.loc 1 175 5
 398 0200 638A0700 		beqz	a5,.L33
 399              		.loc 1 175 62 discriminator 1
 400 0204 83360501 		ld	a3,16(a0)
 401              		.loc 1 175 54 discriminator 1
 402 0208 13878601 		addi	a4,a3,24
 403 020c 3307E500 		add	a4,a0,a4
 404              		.loc 1 175 19 discriminator 1
 405 0210 6388E700 		beq	a5,a4,.L36
 406              	.L33:
 176:src/memoryAllocator.cpp ****         curr->size += curr->next->size + sizeof(DataBlock);
 177:src/memoryAllocator.cpp ****         curr->next = curr->next->next;
 178:src/memoryAllocator.cpp ****         if(curr->next) curr->next->prev = curr;
 179:src/memoryAllocator.cpp ****     }
 180:src/memoryAllocator.cpp **** }
 407              		.loc 1 180 1
 408 0214 03348100 		ld	s0,8(sp)
 409              		.cfi_remember_state
 410              		.cfi_restore 8
 411              		.cfi_def_cfa 2, 16
 412 0218 13010101 		addi	sp,sp,16
GAS LISTING /tmp/ccRPu1R5.s 			page 13


 413              		.cfi_def_cfa_offset 0
 414 021c 67800000 		jr	ra
 415              	.L36:
 416              		.cfi_restore_state
 176:src/memoryAllocator.cpp ****         curr->size += curr->next->size + sizeof(DataBlock);
 417              		.loc 1 176 9 is_stmt 1
 176:src/memoryAllocator.cpp ****         curr->size += curr->next->size + sizeof(DataBlock);
 418              		.loc 1 176 35 is_stmt 0
 419 0220 03B70701 		ld	a4,16(a5)
 176:src/memoryAllocator.cpp ****         curr->size += curr->next->size + sizeof(DataBlock);
 420              		.loc 1 176 20
 421 0224 B386E600 		add	a3,a3,a4
 422 0228 93868601 		addi	a3,a3,24
 423 022c 2338D500 		sd	a3,16(a0)
 177:src/memoryAllocator.cpp ****         if(curr->next) curr->next->prev = curr;
 424              		.loc 1 177 9 is_stmt 1
 177:src/memoryAllocator.cpp ****         if(curr->next) curr->next->prev = curr;
 425              		.loc 1 177 34 is_stmt 0
 426 0230 83B70700 		ld	a5,0(a5)
 177:src/memoryAllocator.cpp ****         if(curr->next) curr->next->prev = curr;
 427              		.loc 1 177 20
 428 0234 2330F500 		sd	a5,0(a0)
 178:src/memoryAllocator.cpp ****     }
 429              		.loc 1 178 9 is_stmt 1
 430 0238 E38E07FC 		beqz	a5,.L33
 178:src/memoryAllocator.cpp ****     }
 431              		.loc 1 178 24 discriminator 1
 178:src/memoryAllocator.cpp ****     }
 432              		.loc 1 178 41 is_stmt 0 discriminator 1
 433 023c 23B4A700 		sd	a0,8(a5)
 434              		.loc 1 180 1 discriminator 1
 435 0240 6FF05FFD 		j	.L33
 436              		.cfi_endproc
 437              	.LFE3:
 439              		.align	2
 440              		.globl	_ZN15MemoryAllocator8mem_freeEPv
 442              	_ZN15MemoryAllocator8mem_freeEPv:
 443              	.LFB2:
 127:src/memoryAllocator.cpp ****     if(used == nullptr) return -1;
 444              		.loc 1 127 42 is_stmt 1
 445              		.cfi_startproc
 446              	.LVL36:
 128:src/memoryAllocator.cpp ****     if(ptr == nullptr || ptr < HEAP_START_ADDR || ptr > HEAP_END_ADDR) return -2;
 447              		.loc 1 128 5
 128:src/memoryAllocator.cpp ****     if(ptr == nullptr || ptr < HEAP_START_ADDR || ptr > HEAP_END_ADDR) return -2;
 448              		.loc 1 128 13 is_stmt 0
 449 0244 97070000 		ld	a5,.LANCHOR0+8
 449      83B70700 
 128:src/memoryAllocator.cpp ****     if(ptr == nullptr || ptr < HEAP_START_ADDR || ptr > HEAP_END_ADDR) return -2;
 450              		.loc 1 128 5
 451 024c 63800712 		beqz	a5,.L46
 452 0250 13070500 		mv	a4,a0
 129:src/memoryAllocator.cpp **** 
 453              		.loc 1 129 5 is_stmt 1
 454 0254 63000512 		beqz	a0,.L47
 129:src/memoryAllocator.cpp **** 
 455              		.loc 1 129 30 is_stmt 0 discriminator 2
GAS LISTING /tmp/ccRPu1R5.s 			page 14


 456 0258 97060000 		la	a3,HEAP_START_ADDR
 456      83B60600 
 457 0260 83B60600 		ld	a3,0(a3)
 129:src/memoryAllocator.cpp **** 
 458              		.loc 1 129 23 discriminator 2
 459 0264 636CD510 		bgtu	a3,a0,.L48
 129:src/memoryAllocator.cpp **** 
 460              		.loc 1 129 55 discriminator 4
 461 0268 97060000 		la	a3,HEAP_END_ADDR
 461      83B60600 
 462 0270 83B60600 		ld	a3,0(a3)
 129:src/memoryAllocator.cpp **** 
 463              		.loc 1 129 48 discriminator 4
 464 0274 63E8A610 		bltu	a3,a0,.L49
 131:src/memoryAllocator.cpp ****     if(curr < used) return -3;
 465              		.loc 1 131 5 is_stmt 1
 131:src/memoryAllocator.cpp ****     if(curr < used) return -3;
 466              		.loc 1 131 16 is_stmt 0
 467 0278 130585FE 		addi	a0,a0,-24
 468              	.LVL37:
 132:src/memoryAllocator.cpp **** 
 469              		.loc 1 132 5 is_stmt 1
 470 027c 6368F510 		bgtu	a5,a0,.L50
 135:src/memoryAllocator.cpp ****         used = curr->next;
 471              		.loc 1 135 5
 472 0280 6388A708 		beq	a5,a0,.L54
 141:src/memoryAllocator.cpp ****         curr->next->prev = curr->prev;
 473              		.loc 1 141 9
 141:src/memoryAllocator.cpp ****         curr->next->prev = curr->prev;
 474              		.loc 1 141 15 is_stmt 0
 475 0284 833607FF 		ld	a3,-16(a4)
 141:src/memoryAllocator.cpp ****         curr->next->prev = curr->prev;
 476              		.loc 1 141 34
 477 0288 833787FE 		ld	a5,-24(a4)
 141:src/memoryAllocator.cpp ****         curr->next->prev = curr->prev;
 478              		.loc 1 141 26
 479 028c 23B0F600 		sd	a5,0(a3)
 142:src/memoryAllocator.cpp ****         curr->next = nullptr;
 480              		.loc 1 142 9 is_stmt 1
 142:src/memoryAllocator.cpp ****         curr->next = nullptr;
 481              		.loc 1 142 34 is_stmt 0
 482 0290 833607FF 		ld	a3,-16(a4)
 142:src/memoryAllocator.cpp ****         curr->next = nullptr;
 483              		.loc 1 142 26
 484 0294 23B4D700 		sd	a3,8(a5)
 143:src/memoryAllocator.cpp ****         curr->prev = nullptr;
 485              		.loc 1 143 9 is_stmt 1
 143:src/memoryAllocator.cpp ****         curr->prev = nullptr;
 486              		.loc 1 143 20 is_stmt 0
 487 0298 233407FE 		sd	zero,-24(a4)
 144:src/memoryAllocator.cpp ****     }
 488              		.loc 1 144 9 is_stmt 1
 144:src/memoryAllocator.cpp ****     }
 489              		.loc 1 144 20 is_stmt 0
 490 029c 233807FE 		sd	zero,-16(a4)
 491              	.L41:
 148:src/memoryAllocator.cpp ****         //Insert as first
GAS LISTING /tmp/ccRPu1R5.s 			page 15


 492              		.loc 1 148 5 is_stmt 1
 493              	.LBB14:
 148:src/memoryAllocator.cpp ****         //Insert as first
 494              		.loc 1 148 14 is_stmt 0
 495 02a0 97070000 		ld	a5,.LANCHOR0
 495      83B70700 
 148:src/memoryAllocator.cpp ****         //Insert as first
 496              		.loc 1 148 5
 497 02a8 63840708 		beqz	a5,.L55
 498              	.LBE14:
 127:src/memoryAllocator.cpp ****     if(used == nullptr) return -1;
 499              		.loc 1 127 42
 500 02ac 130101FE 		addi	sp,sp,-32
 501              		.cfi_def_cfa_offset 32
 502 02b0 233C1100 		sd	ra,24(sp)
 503 02b4 23388100 		sd	s0,16(sp)
 504 02b8 23349100 		sd	s1,8(sp)
 505              		.cfi_offset 1, -8
 506              		.cfi_offset 8, -16
 507              		.cfi_offset 9, -24
 508 02bc 13040102 		addi	s0,sp,32
 509              		.cfi_def_cfa 8, 0
 152:src/memoryAllocator.cpp ****         free->prev = curr;
 510              		.loc 1 152 10 is_stmt 1
 511              	.LBB19:
 512              	.LBB15:
 513 02c0 6360F508 		bgtu	a5,a0,.L56
 514              	.L43:
 515              	.LVL38:
 516              	.LBB16:
 162:src/memoryAllocator.cpp **** 
 517              		.loc 1 162 45 discriminator 4
 518 02c4 93840700 		mv	s1,a5
 162:src/memoryAllocator.cpp **** 
 519              		.loc 1 162 40 is_stmt 0 discriminator 4
 520 02c8 83B70700 		ld	a5,0(a5)
 521              	.LVL39:
 162:src/memoryAllocator.cpp **** 
 522              		.loc 1 162 45 discriminator 4
 523 02cc 63840700 		beqz	a5,.L44
 162:src/memoryAllocator.cpp **** 
 524              		.loc 1 162 45 discriminator 2
 525 02d0 E3EAA7FE 		bltu	a5,a0,.L43
 526              	.L44:
 164:src/memoryAllocator.cpp ****         curr->prev = currFree;
 527              		.loc 1 164 9 is_stmt 1
 165:src/memoryAllocator.cpp ****         if(curr->next) curr->next->prev = curr;
 528              		.loc 1 165 9
 165:src/memoryAllocator.cpp ****         if(curr->next) curr->next->prev = curr;
 529              		.loc 1 165 20 is_stmt 0
 530 02d4 233897FE 		sd	s1,-16(a4)
 166:src/memoryAllocator.cpp ****         curr->next = curr;
 531              		.loc 1 166 9 is_stmt 1
 532 02d8 63840700 		beqz	a5,.L45
 166:src/memoryAllocator.cpp ****         curr->next = curr;
 533              		.loc 1 166 24 discriminator 1
 166:src/memoryAllocator.cpp ****         curr->next = curr;
GAS LISTING /tmp/ccRPu1R5.s 			page 16


 534              		.loc 1 166 41 is_stmt 0 discriminator 1
 535 02dc 23B4A700 		sd	a0,8(a5)
 536              	.L45:
 167:src/memoryAllocator.cpp ****         tryToJoin(curr);
 537              		.loc 1 167 9 is_stmt 1
 167:src/memoryAllocator.cpp ****         tryToJoin(curr);
 538              		.loc 1 167 20 is_stmt 0
 539 02e0 2334A7FE 		sd	a0,-24(a4)
 168:src/memoryAllocator.cpp ****         tryToJoin(currFree);
 540              		.loc 1 168 9 is_stmt 1
 168:src/memoryAllocator.cpp ****         tryToJoin(currFree);
 541              		.loc 1 168 18 is_stmt 0
 542 02e4 97000000 		call	_ZN15MemoryAllocator9tryToJoinEP9DataBlock
 542      E7800000 
 543              	.LVL40:
 169:src/memoryAllocator.cpp ****     }
 544              		.loc 1 169 9 is_stmt 1
 169:src/memoryAllocator.cpp ****     }
 545              		.loc 1 169 18 is_stmt 0
 546 02ec 13850400 		mv	a0,s1
 547 02f0 97000000 		call	_ZN15MemoryAllocator9tryToJoinEP9DataBlock
 547      E7800000 
 548              	.LVL41:
 549              	.LBE16:
 550              	.LBE15:
 551              	.LBE19:
 171:src/memoryAllocator.cpp **** }
 552              		.loc 1 171 12
 553 02f8 13050000 		li	a0,0
 554              	.LVL42:
 555              	.L38:
 172:src/memoryAllocator.cpp **** 
 556              		.loc 1 172 1
 557 02fc 83308101 		ld	ra,24(sp)
 558              		.cfi_restore 1
 559 0300 03340101 		ld	s0,16(sp)
 560              		.cfi_restore 8
 561              		.cfi_def_cfa 2, 32
 562 0304 83348100 		ld	s1,8(sp)
 563              		.cfi_restore 9
 564 0308 13010102 		addi	sp,sp,32
 565              		.cfi_def_cfa_offset 0
 566 030c 67800000 		jr	ra
 567              	.LVL43:
 568              	.L54:
 136:src/memoryAllocator.cpp ****         if(used) used->prev = nullptr;
 569              		.loc 1 136 9 is_stmt 1
 136:src/memoryAllocator.cpp ****         if(used) used->prev = nullptr;
 570              		.loc 1 136 22 is_stmt 0
 571 0310 833787FE 		ld	a5,-24(a4)
 136:src/memoryAllocator.cpp ****         if(used) used->prev = nullptr;
 572              		.loc 1 136 14
 573 0314 97060000 		sd	a5,.LANCHOR0+8,a3
 573      23B0F600 
 137:src/memoryAllocator.cpp ****         curr->next = nullptr;
 574              		.loc 1 137 9 is_stmt 1
 575 031c 63840700 		beqz	a5,.L40
GAS LISTING /tmp/ccRPu1R5.s 			page 17


 137:src/memoryAllocator.cpp ****         curr->next = nullptr;
 576              		.loc 1 137 18 discriminator 1
 137:src/memoryAllocator.cpp ****         curr->next = nullptr;
 577              		.loc 1 137 29 is_stmt 0 discriminator 1
 578 0320 23B40700 		sd	zero,8(a5)
 579              	.L40:
 138:src/memoryAllocator.cpp ****         curr->prev = nullptr;
 580              		.loc 1 138 9 is_stmt 1
 138:src/memoryAllocator.cpp ****         curr->prev = nullptr;
 581              		.loc 1 138 20 is_stmt 0
 582 0324 233407FE 		sd	zero,-24(a4)
 139:src/memoryAllocator.cpp ****     } else {
 583              		.loc 1 139 9 is_stmt 1
 139:src/memoryAllocator.cpp ****     } else {
 584              		.loc 1 139 20 is_stmt 0
 585 0328 233807FE 		sd	zero,-16(a4)
 586 032c 6FF05FF7 		j	.L41
 587              	.L55:
 588              	.LBB20:
 150:src/memoryAllocator.cpp ****     }
 589              		.loc 1 150 9 is_stmt 1
 150:src/memoryAllocator.cpp ****     }
 590              		.loc 1 150 14 is_stmt 0
 591 0330 97070000 		sd	a0,.LANCHOR0,a5
 591      23B0A700 
 592              	.LBE20:
 171:src/memoryAllocator.cpp **** }
 593              		.loc 1 171 12
 594 0338 13050000 		li	a0,0
 595              	.LVL44:
 596              	.LBB21:
 597 033c 67800000 		ret
 598              	.LVL45:
 599              	.L56:
 600              		.cfi_def_cfa_register 8
 601              		.cfi_offset 1, -8
 602              		.cfi_offset 8, -16
 603              		.cfi_offset 9, -24
 604              	.LBB17:
 153:src/memoryAllocator.cpp ****         curr->prev = nullptr;
 605              		.loc 1 153 9 is_stmt 1
 153:src/memoryAllocator.cpp ****         curr->prev = nullptr;
 606              		.loc 1 153 20 is_stmt 0
 607 0340 23B4A700 		sd	a0,8(a5)
 154:src/memoryAllocator.cpp ****         curr->next = free;
 608              		.loc 1 154 9 is_stmt 1
 154:src/memoryAllocator.cpp ****         curr->next = free;
 609              		.loc 1 154 20 is_stmt 0
 610 0344 233807FE 		sd	zero,-16(a4)
 155:src/memoryAllocator.cpp ****         free = curr;
 611              		.loc 1 155 9 is_stmt 1
 155:src/memoryAllocator.cpp ****         free = curr;
 612              		.loc 1 155 20 is_stmt 0
 613 0348 97070000 		lla	a5,.LANCHOR0
 613      93870700 
 614 0350 83B60700 		ld	a3,0(a5)
 615 0354 2334D7FE 		sd	a3,-24(a4)
GAS LISTING /tmp/ccRPu1R5.s 			page 18


 156:src/memoryAllocator.cpp ****         tryToJoin(free);
 616              		.loc 1 156 9 is_stmt 1
 156:src/memoryAllocator.cpp ****         tryToJoin(free);
 617              		.loc 1 156 14 is_stmt 0
 618 0358 23B0A700 		sd	a0,0(a5)
 157:src/memoryAllocator.cpp ****     }
 619              		.loc 1 157 9 is_stmt 1
 157:src/memoryAllocator.cpp ****     }
 620              		.loc 1 157 18 is_stmt 0
 621 035c 97000000 		call	_ZN15MemoryAllocator9tryToJoinEP9DataBlock
 621      E7800000 
 622              	.LVL46:
 623              	.LBE17:
 624              	.LBE21:
 171:src/memoryAllocator.cpp **** }
 625              		.loc 1 171 12
 626 0364 13050000 		li	a0,0
 627              	.LBB22:
 628              	.LBB18:
 629 0368 6FF05FF9 		j	.L38
 630              	.LVL47:
 631              	.L46:
 632              		.cfi_def_cfa_register 2
 633              		.cfi_restore 1
 634              		.cfi_restore 8
 635              		.cfi_restore 9
 636              	.LBE18:
 637              	.LBE22:
 128:src/memoryAllocator.cpp ****     if(ptr == nullptr || ptr < HEAP_START_ADDR || ptr > HEAP_END_ADDR) return -2;
 638              		.loc 1 128 33
 639 036c 1305F0FF 		li	a0,-1
 640              	.LVL48:
 641 0370 67800000 		ret
 642              	.LVL49:
 643              	.L47:
 129:src/memoryAllocator.cpp **** 
 644              		.loc 1 129 80
 645 0374 1305E0FF 		li	a0,-2
 646              	.LVL50:
 647 0378 67800000 		ret
 648              	.LVL51:
 649              	.L48:
 650 037c 1305E0FF 		li	a0,-2
 651              	.LVL52:
 652 0380 67800000 		ret
 653              	.LVL53:
 654              	.L49:
 655 0384 1305E0FF 		li	a0,-2
 656              	.LVL54:
 657 0388 67800000 		ret
 658              	.LVL55:
 659              	.L50:
 132:src/memoryAllocator.cpp **** 
 660              		.loc 1 132 29
 661 038c 1305D0FF 		li	a0,-3
 662              	.LVL56:
 172:src/memoryAllocator.cpp **** 
GAS LISTING /tmp/ccRPu1R5.s 			page 19


 663              		.loc 1 172 1
 664 0390 67800000 		ret
 665              		.cfi_endproc
 666              	.LFE2:
 668              		.globl	_ZN15MemoryAllocator4usedE
 669              		.globl	_ZN15MemoryAllocator4freeE
 670              		.bss
 671              		.align	3
 672              		.set	.LANCHOR0,. + 0
 675              	_ZN15MemoryAllocator4freeE:
 676 0000 00000000 		.zero	8
 676      00000000 
 679              	_ZN15MemoryAllocator4usedE:
 680 0008 00000000 		.zero	8
 680      00000000 
 681              		.text
 682              	.Letext0:
 683              		.file 2 "src/../lib/hw.h"
 684              		.file 3 "src/../h/memoryAllocator.hpp"
GAS LISTING /tmp/ccRPu1R5.s 			page 20

