GAS LISTING /tmp/ccyNpyk1.s 			page 1


   1              		.file	"memoryAllocator.cpp"
   2              		.option pic
   3              		.option norelax
   4              		.text
   5              	.Ltext0:
   6              		.align	2
   7              		.globl	_ZN15MemoryAllocator9mem_allocEm
   9              	_ZN15MemoryAllocator9mem_allocEm:
  10              	.LFB1:
  11              		.file 1 "src/memoryAllocator.cpp"
   1:src/memoryAllocator.cpp **** #include "../lib/hw.h"
   2:src/memoryAllocator.cpp **** #include "../h/memoryAllocator.hpp"
   3:src/memoryAllocator.cpp **** 
   4:src/memoryAllocator.cpp **** 
   5:src/memoryAllocator.cpp **** DataBlock* MemoryAllocator::free = nullptr;
   6:src/memoryAllocator.cpp **** DataBlock* MemoryAllocator::used = nullptr;
   7:src/memoryAllocator.cpp **** 
   8:src/memoryAllocator.cpp **** 
   9:src/memoryAllocator.cpp **** 
  10:src/memoryAllocator.cpp **** void *MemoryAllocator::mem_alloc(size_t size) {
  12              		.loc 1 10 47
  13              		.cfi_startproc
  14              	.LVL0:
  15 0000 130101FF 		addi	sp,sp,-16
  16              		.cfi_def_cfa_offset 16
  17 0004 23348100 		sd	s0,8(sp)
  18              		.cfi_offset 8, -8
  19 0008 13040101 		addi	s0,sp,16
  20              		.cfi_def_cfa 8, 0
  21 000c 93070500 		mv	a5,a0
  11:src/memoryAllocator.cpp ****     size_t newSize;
  22              		.loc 1 11 5
  12:src/memoryAllocator.cpp ****     if(size%MEM_BLOCK_SIZE != 0) {
  23              		.loc 1 12 5
  24              		.loc 1 12 12 is_stmt 0
  25 0010 1377F503 		andi	a4,a0,63
  26              		.loc 1 12 5
  27 0014 630C0706 		beqz	a4,.L23
  13:src/memoryAllocator.cpp ****         newSize = ((size + MEM_BLOCK_SIZE - 1) / MEM_BLOCK_SIZE) * MEM_BLOCK_SIZE;
  28              		.loc 1 13 9 is_stmt 1
  29              		.loc 1 13 43 is_stmt 0
  30 0018 1307F503 		addi	a4,a0,63
  31              		.loc 1 13 17
  32 001c 137707FC 		andi	a4,a4,-64
  33              	.LVL1:
  34              	.L2:
  14:src/memoryAllocator.cpp ****     }
  15:src/memoryAllocator.cpp ****     else {
  16:src/memoryAllocator.cpp ****         newSize = size;
  17:src/memoryAllocator.cpp ****     }
  18:src/memoryAllocator.cpp **** 
  19:src/memoryAllocator.cpp ****     for(DataBlock* curr = MemoryAllocator::free; curr != nullptr; curr=curr->next) {
  35              		.loc 1 19 5 is_stmt 1
  36              	.LBB2:
  37              		.loc 1 19 20 is_stmt 0
  38 0020 17050000 		ld	a0,.LANCHOR0
  38      03350500 
GAS LISTING /tmp/ccyNpyk1.s 			page 2


  39              	.LVL2:
  40              	.L5:
  41              		.loc 1 19 55 is_stmt 1 discriminator 1
  42 0028 630E050A 		beqz	a0,.L1
  43              	.LBB3:
  20:src/memoryAllocator.cpp ****         if(curr->size<size) continue;
  44              		.loc 1 20 9
  45              		.loc 1 20 18 is_stmt 0
  46 002c 83360501 		ld	a3,16(a0)
  47              		.loc 1 20 9
  48 0030 63E2F606 		bltu	a3,a5,.L27
  21:src/memoryAllocator.cpp ****         if(curr->size > newSize) {
  49              		.loc 1 21 9 is_stmt 1
  50              	.LBB4:
  51 0034 6376D70E 		bleu	a3,a4,.L6
  52              	.LBB5:
  22:src/memoryAllocator.cpp ****             //new fragment needs to be created
  23:src/memoryAllocator.cpp ****             //novi ce biti offsetovan od curr za novi size i plus za sizeof(DataBlock) zato sto se 
  24:src/memoryAllocator.cpp ****             // nalazi taj "header"
  25:src/memoryAllocator.cpp ****             DataBlock *newBlock;
  53              		.loc 1 25 13
  26:src/memoryAllocator.cpp ****             newBlock = (DataBlock*) ((char*)curr + newSize + sizeof(DataBlock));
  54              		.loc 1 26 13
  55              		.loc 1 26 60 is_stmt 0
  56 0038 93078701 		addi	a5,a4,24
  57              	.LVL3:
  58              		.loc 1 26 22
  59 003c B307F500 		add	a5,a0,a5
  60              	.LVL4:
  27:src/memoryAllocator.cpp **** 
  28:src/memoryAllocator.cpp ****             //Azuriranje free liste
  29:src/memoryAllocator.cpp ****             if(curr->prev) curr->prev->next = newBlock;
  61              		.loc 1 29 13 is_stmt 1
  62              		.loc 1 29 22 is_stmt 0
  63 0040 83368500 		ld	a3,8(a0)
  64              		.loc 1 29 13
  65 0044 638C0604 		beqz	a3,.L7
  66              		.loc 1 29 28 is_stmt 1 discriminator 1
  67              		.loc 1 29 45 is_stmt 0 discriminator 1
  68 0048 23B0F600 		sd	a5,0(a3)
  69              	.L8:
  30:src/memoryAllocator.cpp ****             else MemoryAllocator::free = newBlock;
  31:src/memoryAllocator.cpp ****             if(curr->next) curr->next->prev = newBlock;
  70              		.loc 1 31 13 is_stmt 1
  71              		.loc 1 31 22 is_stmt 0
  72 004c 83360500 		ld	a3,0(a0)
  73              		.loc 1 31 13
  74 0050 63840600 		beqz	a3,.L9
  75              		.loc 1 31 28 is_stmt 1 discriminator 1
  76              		.loc 1 31 45 is_stmt 0 discriminator 1
  77 0054 23B4F600 		sd	a5,8(a3)
  78              	.L9:
  32:src/memoryAllocator.cpp ****             newBlock->prev = curr->prev;
  79              		.loc 1 32 13 is_stmt 1
  80              		.loc 1 32 36 is_stmt 0
  81 0058 83368500 		ld	a3,8(a0)
  82              		.loc 1 32 28
GAS LISTING /tmp/ccyNpyk1.s 			page 3


  83 005c 23B4D700 		sd	a3,8(a5)
  33:src/memoryAllocator.cpp ****             newBlock->next = curr->next;
  84              		.loc 1 33 13 is_stmt 1
  85              		.loc 1 33 36 is_stmt 0
  86 0060 83360500 		ld	a3,0(a0)
  87              		.loc 1 33 28
  88 0064 23B0D700 		sd	a3,0(a5)
  34:src/memoryAllocator.cpp ****             //size novi je sada prethodni size - novi size i jos - sizeof(DataBlock) jer se to ne b
  35:src/memoryAllocator.cpp ****             //pa mora i to da se cuva
  36:src/memoryAllocator.cpp ****             newBlock->size = curr->size - newSize - sizeof(DataBlock);
  89              		.loc 1 36 13 is_stmt 1
  90              		.loc 1 36 36 is_stmt 0
  91 0068 83360501 		ld	a3,16(a0)
  92              		.loc 1 36 41
  93 006c 3387E640 		sub	a4,a3,a4
  94              	.LVL5:
  95              		.loc 1 36 51
  96 0070 130787FE 		addi	a4,a4,-24
  97              		.loc 1 36 28
  98 0074 23B8E700 		sd	a4,16(a5)
  37:src/memoryAllocator.cpp **** 
  38:src/memoryAllocator.cpp ****             //azuriranje USED liste
  39:src/memoryAllocator.cpp ****             DataBlock* currUsed = used;
  99              		.loc 1 39 13 is_stmt 1
 100              		.loc 1 39 24 is_stmt 0
 101 0078 97050000 		ld	a1,.LANCHOR0+8
 101      83B50500 
 102              	.LVL6:
  40:src/memoryAllocator.cpp ****             DataBlock* prevUsed = nullptr;
 103              		.loc 1 40 13 is_stmt 1
  39:src/memoryAllocator.cpp ****             DataBlock* prevUsed = nullptr;
 104              		.loc 1 39 24 is_stmt 0
 105 0080 13870500 		mv	a4,a1
 106              		.loc 1 40 24
 107 0084 13060000 		li	a2,0
 108 0088 6F008002 		j	.L11
 109              	.LVL7:
 110              	.L23:
 111              	.LBE5:
 112              	.LBE4:
 113              	.LBE3:
 114              	.LBE2:
  16:src/memoryAllocator.cpp ****     }
 115              		.loc 1 16 17
 116 008c 13070500 		mv	a4,a0
 117 0090 6FF01FF9 		j	.L2
 118              	.LVL8:
 119              	.L27:
 120              	.LBB14:
 121              	.LBB11:
  20:src/memoryAllocator.cpp ****         if(curr->size > newSize) {
 122              		.loc 1 20 29 is_stmt 1 discriminator 1
 123              	.LBE11:
  19:src/memoryAllocator.cpp ****         if(curr->size<size) continue;
 124              		.loc 1 19 5 discriminator 1
  19:src/memoryAllocator.cpp ****         if(curr->size<size) continue;
 125              		.loc 1 19 71 is_stmt 0 discriminator 1
GAS LISTING /tmp/ccyNpyk1.s 			page 4


 126 0094 03350500 		ld	a0,0(a0)
 127              	.LVL9:
  19:src/memoryAllocator.cpp ****         if(curr->size<size) continue;
 128              		.loc 1 19 5 discriminator 1
 129 0098 6FF01FF9 		j	.L5
 130              	.LVL10:
 131              	.L7:
 132              	.LBB12:
 133              	.LBB9:
 134              	.LBB6:
  30:src/memoryAllocator.cpp ****             if(curr->next) curr->next->prev = newBlock;
 135              		.loc 1 30 18 is_stmt 1
  30:src/memoryAllocator.cpp ****             if(curr->next) curr->next->prev = newBlock;
 136              		.loc 1 30 40 is_stmt 0
 137 009c 97060000 		sd	a5,.LANCHOR0,a3
 137      23B0F600 
 138 00a4 6FF09FFA 		j	.L8
 139              	.LVL11:
 140              	.L24:
  41:src/memoryAllocator.cpp **** 
  42:src/memoryAllocator.cpp ****             for(;currUsed->next && (char*)currUsed + sizeof(DataBlock) + currUsed->size  < (char*) 
  43:src/memoryAllocator.cpp ****                  prevUsed = currUsed, currUsed = currUsed->next);
 141              		.loc 1 43 27
 142 00a8 13060700 		mv	a2,a4
 143              	.LVL12:
 144              		.loc 1 43 48
 145 00ac 13870600 		mv	a4,a3
 146              	.LVL13:
 147              	.L11:
  42:src/memoryAllocator.cpp ****                  prevUsed = currUsed, currUsed = currUsed->next);
 148              		.loc 1 42 13 is_stmt 1
  42:src/memoryAllocator.cpp ****                  prevUsed = currUsed, currUsed = currUsed->next);
 149              		.loc 1 42 33
  42:src/memoryAllocator.cpp ****                  prevUsed = currUsed, currUsed = currUsed->next);
 150              		.loc 1 42 28 is_stmt 0
 151 00b0 83360700 		ld	a3,0(a4)
  42:src/memoryAllocator.cpp ****                  prevUsed = currUsed, currUsed = currUsed->next);
 152              		.loc 1 42 33
 153 00b4 638A0600 		beqz	a3,.L10
  42:src/memoryAllocator.cpp ****                  prevUsed = currUsed, currUsed = currUsed->next);
 154              		.loc 1 42 84 discriminator 1
 155 00b8 83370701 		ld	a5,16(a4)
  42:src/memoryAllocator.cpp ****                  prevUsed = currUsed, currUsed = currUsed->next);
 156              		.loc 1 42 72 discriminator 1
 157 00bc 93878701 		addi	a5,a5,24
 158 00c0 B307F700 		add	a5,a4,a5
  42:src/memoryAllocator.cpp ****                  prevUsed = currUsed, currUsed = currUsed->next);
 159              		.loc 1 42 33 discriminator 1
 160 00c4 E3E2A7FE 		bltu	a5,a0,.L24
 161              	.L10:
  44:src/memoryAllocator.cpp **** 
  45:src/memoryAllocator.cpp ****             if(currUsed == used) {
 162              		.loc 1 45 13 is_stmt 1
 163 00c8 6304B702 		beq	a4,a1,.L28
  46:src/memoryAllocator.cpp ****                 //Insert before used
  47:src/memoryAllocator.cpp ****                 curr->next = used;
  48:src/memoryAllocator.cpp ****                 curr->prev = nullptr;
GAS LISTING /tmp/ccyNpyk1.s 			page 5


  49:src/memoryAllocator.cpp ****                 used->prev = curr;
  50:src/memoryAllocator.cpp ****                 used = curr;
  51:src/memoryAllocator.cpp ****             }
  52:src/memoryAllocator.cpp ****             else if (currUsed->next == nullptr) {
 164              		.loc 1 52 18
 165 00cc 63820604 		beqz	a3,.L29
  53:src/memoryAllocator.cpp ****                 //Insert at the end
  54:src/memoryAllocator.cpp ****                 currUsed->next = curr;
  55:src/memoryAllocator.cpp ****                 curr->prev = currUsed;
  56:src/memoryAllocator.cpp ****                 curr->next = nullptr;
  57:src/memoryAllocator.cpp ****             }
  58:src/memoryAllocator.cpp ****             else {
  59:src/memoryAllocator.cpp ****                 //Insert into list in the middle (prev, curr, currUsed)
  60:src/memoryAllocator.cpp ****                 prevUsed->next = curr;
 166              		.loc 1 60 17
 167              		.loc 1 60 32 is_stmt 0
 168 00d0 2330A600 		sd	a0,0(a2)
  61:src/memoryAllocator.cpp ****                 curr->prev = prevUsed;
 169              		.loc 1 61 17 is_stmt 1
 170              		.loc 1 61 28 is_stmt 0
 171 00d4 2334C500 		sd	a2,8(a0)
  62:src/memoryAllocator.cpp ****                 curr->next = currUsed;
 172              		.loc 1 62 17 is_stmt 1
 173              		.loc 1 62 28 is_stmt 0
 174 00d8 2330E500 		sd	a4,0(a0)
  63:src/memoryAllocator.cpp ****                 currUsed->prev = curr;
 175              		.loc 1 63 17 is_stmt 1
 176              		.loc 1 63 32 is_stmt 0
 177 00dc 2334A700 		sd	a0,8(a4)
 178              	.LVL14:
 179              	.L13:
  64:src/memoryAllocator.cpp ****             }
  65:src/memoryAllocator.cpp ****             return (char*)curr + sizeof(DataBlock);
 180              		.loc 1 65 13 is_stmt 1
 181              		.loc 1 65 50 is_stmt 0
 182 00e0 13058501 		addi	a0,a0,24
 183              	.LVL15:
 184              	.L1:
 185              	.LBE6:
 186              	.LBE9:
 187              	.LBE12:
 188              	.LBE14:
  66:src/memoryAllocator.cpp ****         }
  67:src/memoryAllocator.cpp ****         else {
  68:src/memoryAllocator.cpp ****             //They are the exact same size
  69:src/memoryAllocator.cpp ****             //Update FREE list
  70:src/memoryAllocator.cpp ****             if (curr->prev) curr->prev->next = curr->next;
  71:src/memoryAllocator.cpp ****             else MemoryAllocator::free = curr->next;
  72:src/memoryAllocator.cpp **** 
  73:src/memoryAllocator.cpp ****             if(curr->next) curr->next->prev = curr->prev;
  74:src/memoryAllocator.cpp **** 
  75:src/memoryAllocator.cpp **** 
  76:src/memoryAllocator.cpp ****             //azuriranje USED liste
  77:src/memoryAllocator.cpp ****             DataBlock* currUsed = used;
  78:src/memoryAllocator.cpp ****             DataBlock* prevUsed = nullptr;
  79:src/memoryAllocator.cpp **** 
  80:src/memoryAllocator.cpp ****             for(;currUsed->next && (char*)currUsed + sizeof(DataBlock) + currUsed->size  < (char*) 
GAS LISTING /tmp/ccyNpyk1.s 			page 6


  81:src/memoryAllocator.cpp ****                  prevUsed = currUsed, currUsed = currUsed->next);
  82:src/memoryAllocator.cpp **** 
  83:src/memoryAllocator.cpp ****             if(currUsed == used) {
  84:src/memoryAllocator.cpp ****                 //Insert before used
  85:src/memoryAllocator.cpp ****                 curr->next = used;
  86:src/memoryAllocator.cpp ****                 curr->prev = nullptr;
  87:src/memoryAllocator.cpp ****                 used->prev = curr;
  88:src/memoryAllocator.cpp ****                 used = curr;
  89:src/memoryAllocator.cpp ****             }
  90:src/memoryAllocator.cpp ****             else if (currUsed->next == nullptr) {
  91:src/memoryAllocator.cpp ****                 //Insert at the end
  92:src/memoryAllocator.cpp ****                 currUsed->next = curr;
  93:src/memoryAllocator.cpp ****                 curr->prev = currUsed;
  94:src/memoryAllocator.cpp ****                 curr->next = nullptr;
  95:src/memoryAllocator.cpp ****             }
  96:src/memoryAllocator.cpp ****             else {
  97:src/memoryAllocator.cpp ****                 //Insert into list in the middle (prev, curr, currUsed)
  98:src/memoryAllocator.cpp ****                 //DOES IT NEED TO BE BEFORE CURRUSED?
  99:src/memoryAllocator.cpp **** //                curr->next = currUsed->next;
 100:src/memoryAllocator.cpp **** //                curr->prev = currUsed;
 101:src/memoryAllocator.cpp **** //                if(currUsed->next) {
 102:src/memoryAllocator.cpp **** //                    currUsed->next->prev = curr;
 103:src/memoryAllocator.cpp **** //                }
 104:src/memoryAllocator.cpp **** //                currUsed->next = curr;
 105:src/memoryAllocator.cpp **** 
 106:src/memoryAllocator.cpp ****                 prevUsed->next = curr;
 107:src/memoryAllocator.cpp ****                 curr->prev = prevUsed;
 108:src/memoryAllocator.cpp ****                 curr->next = currUsed;
 109:src/memoryAllocator.cpp ****                 currUsed->prev = curr;
 110:src/memoryAllocator.cpp ****             }
 111:src/memoryAllocator.cpp ****             return (char*)curr + sizeof(DataBlock);
 112:src/memoryAllocator.cpp ****         }
 113:src/memoryAllocator.cpp ****     }
 114:src/memoryAllocator.cpp ****     return nullptr; //should not enter here
 115:src/memoryAllocator.cpp **** }
 189              		.loc 1 115 1
 190 00e4 03348100 		ld	s0,8(sp)
 191              		.cfi_remember_state
 192              		.cfi_restore 8
 193              		.cfi_def_cfa 2, 16
 194 00e8 13010101 		addi	sp,sp,16
 195              		.cfi_def_cfa_offset 0
 196 00ec 67800000 		jr	ra
 197              	.LVL16:
 198              	.L28:
 199              		.cfi_restore_state
 200              	.LBB15:
 201              	.LBB13:
 202              	.LBB10:
 203              	.LBB7:
  47:src/memoryAllocator.cpp ****                 curr->prev = nullptr;
 204              		.loc 1 47 17 is_stmt 1
  47:src/memoryAllocator.cpp ****                 curr->prev = nullptr;
 205              		.loc 1 47 28 is_stmt 0
 206 00f0 2330B500 		sd	a1,0(a0)
  48:src/memoryAllocator.cpp ****                 used->prev = curr;
 207              		.loc 1 48 17 is_stmt 1
GAS LISTING /tmp/ccyNpyk1.s 			page 7


  48:src/memoryAllocator.cpp ****                 used->prev = curr;
 208              		.loc 1 48 28 is_stmt 0
 209 00f4 23340500 		sd	zero,8(a0)
  49:src/memoryAllocator.cpp ****                 used = curr;
 210              		.loc 1 49 17 is_stmt 1
  49:src/memoryAllocator.cpp ****                 used = curr;
 211              		.loc 1 49 23 is_stmt 0
 212 00f8 97070000 		lla	a5,.LANCHOR0
 212      93870700 
 213 0100 03B78700 		ld	a4,8(a5)
 214              	.LVL17:
  49:src/memoryAllocator.cpp ****                 used = curr;
 215              		.loc 1 49 28
 216 0104 2334A700 		sd	a0,8(a4)
  50:src/memoryAllocator.cpp ****             }
 217              		.loc 1 50 17 is_stmt 1
  50:src/memoryAllocator.cpp ****             }
 218              		.loc 1 50 22 is_stmt 0
 219 0108 23B4A700 		sd	a0,8(a5)
 220 010c 6FF05FFD 		j	.L13
 221              	.LVL18:
 222              	.L29:
  54:src/memoryAllocator.cpp ****                 curr->prev = currUsed;
 223              		.loc 1 54 17 is_stmt 1
  54:src/memoryAllocator.cpp ****                 curr->prev = currUsed;
 224              		.loc 1 54 32 is_stmt 0
 225 0110 2330A700 		sd	a0,0(a4)
  55:src/memoryAllocator.cpp ****                 curr->next = nullptr;
 226              		.loc 1 55 17 is_stmt 1
  55:src/memoryAllocator.cpp ****                 curr->next = nullptr;
 227              		.loc 1 55 28 is_stmt 0
 228 0114 2334E500 		sd	a4,8(a0)
  56:src/memoryAllocator.cpp ****             }
 229              		.loc 1 56 17 is_stmt 1
  56:src/memoryAllocator.cpp ****             }
 230              		.loc 1 56 28 is_stmt 0
 231 0118 23300500 		sd	zero,0(a0)
 232 011c 6FF05FFC 		j	.L13
 233              	.LVL19:
 234              	.L6:
 235              	.LBE7:
 236              	.LBB8:
  70:src/memoryAllocator.cpp ****             else MemoryAllocator::free = curr->next;
 237              		.loc 1 70 13 is_stmt 1
  70:src/memoryAllocator.cpp ****             else MemoryAllocator::free = curr->next;
 238              		.loc 1 70 23 is_stmt 0
 239 0120 83378500 		ld	a5,8(a0)
 240              	.LVL20:
  70:src/memoryAllocator.cpp ****             else MemoryAllocator::free = curr->next;
 241              		.loc 1 70 13
 242 0124 63880702 		beqz	a5,.L15
  70:src/memoryAllocator.cpp ****             else MemoryAllocator::free = curr->next;
 243              		.loc 1 70 29 is_stmt 1 discriminator 1
  70:src/memoryAllocator.cpp ****             else MemoryAllocator::free = curr->next;
 244              		.loc 1 70 54 is_stmt 0 discriminator 1
 245 0128 03370500 		ld	a4,0(a0)
 246              	.LVL21:
GAS LISTING /tmp/ccyNpyk1.s 			page 8


  70:src/memoryAllocator.cpp ****             else MemoryAllocator::free = curr->next;
 247              		.loc 1 70 46 discriminator 1
 248 012c 23B0E700 		sd	a4,0(a5)
 249              	.L16:
  73:src/memoryAllocator.cpp **** 
 250              		.loc 1 73 13 is_stmt 1
  73:src/memoryAllocator.cpp **** 
 251              		.loc 1 73 22 is_stmt 0
 252 0130 83370500 		ld	a5,0(a0)
  73:src/memoryAllocator.cpp **** 
 253              		.loc 1 73 13
 254 0134 63860700 		beqz	a5,.L17
  73:src/memoryAllocator.cpp **** 
 255              		.loc 1 73 28 is_stmt 1 discriminator 1
  73:src/memoryAllocator.cpp **** 
 256              		.loc 1 73 53 is_stmt 0 discriminator 1
 257 0138 03378500 		ld	a4,8(a0)
  73:src/memoryAllocator.cpp **** 
 258              		.loc 1 73 45 discriminator 1
 259 013c 23B4E700 		sd	a4,8(a5)
 260              	.L17:
  77:src/memoryAllocator.cpp ****             DataBlock* prevUsed = nullptr;
 261              		.loc 1 77 13 is_stmt 1
  77:src/memoryAllocator.cpp ****             DataBlock* prevUsed = nullptr;
 262              		.loc 1 77 24 is_stmt 0
 263 0140 97050000 		ld	a1,.LANCHOR0+8
 263      83B50500 
 264              	.LVL22:
  78:src/memoryAllocator.cpp **** 
 265              		.loc 1 78 13 is_stmt 1
  77:src/memoryAllocator.cpp ****             DataBlock* prevUsed = nullptr;
 266              		.loc 1 77 24 is_stmt 0
 267 0148 13870500 		mv	a4,a1
  78:src/memoryAllocator.cpp **** 
 268              		.loc 1 78 24
 269 014c 13060000 		li	a2,0
 270 0150 6F00C001 		j	.L19
 271              	.LVL23:
 272              	.L15:
  71:src/memoryAllocator.cpp **** 
 273              		.loc 1 71 18 is_stmt 1
  71:src/memoryAllocator.cpp **** 
 274              		.loc 1 71 48 is_stmt 0
 275 0154 83370500 		ld	a5,0(a0)
  71:src/memoryAllocator.cpp **** 
 276              		.loc 1 71 40
 277 0158 17070000 		sd	a5,.LANCHOR0,a4
 277      2330F700 
 278              	.LVL24:
 279 0160 6FF01FFD 		j	.L16
 280              	.LVL25:
 281              	.L25:
  81:src/memoryAllocator.cpp **** 
 282              		.loc 1 81 27
 283 0164 13060700 		mv	a2,a4
 284              	.LVL26:
  81:src/memoryAllocator.cpp **** 
GAS LISTING /tmp/ccyNpyk1.s 			page 9


 285              		.loc 1 81 48
 286 0168 13870600 		mv	a4,a3
 287              	.LVL27:
 288              	.L19:
  80:src/memoryAllocator.cpp ****                  prevUsed = currUsed, currUsed = currUsed->next);
 289              		.loc 1 80 13 is_stmt 1
  80:src/memoryAllocator.cpp ****                  prevUsed = currUsed, currUsed = currUsed->next);
 290              		.loc 1 80 33
  80:src/memoryAllocator.cpp ****                  prevUsed = currUsed, currUsed = currUsed->next);
 291              		.loc 1 80 28 is_stmt 0
 292 016c 83360700 		ld	a3,0(a4)
  80:src/memoryAllocator.cpp ****                  prevUsed = currUsed, currUsed = currUsed->next);
 293              		.loc 1 80 33
 294 0170 638A0600 		beqz	a3,.L18
  80:src/memoryAllocator.cpp ****                  prevUsed = currUsed, currUsed = currUsed->next);
 295              		.loc 1 80 84 discriminator 1
 296 0174 83370701 		ld	a5,16(a4)
  80:src/memoryAllocator.cpp ****                  prevUsed = currUsed, currUsed = currUsed->next);
 297              		.loc 1 80 72 discriminator 1
 298 0178 93878701 		addi	a5,a5,24
 299 017c B307F700 		add	a5,a4,a5
  80:src/memoryAllocator.cpp ****                  prevUsed = currUsed, currUsed = currUsed->next);
 300              		.loc 1 80 33 discriminator 1
 301 0180 E3E2A7FE 		bltu	a5,a0,.L25
 302              	.L18:
  83:src/memoryAllocator.cpp ****                 //Insert before used
 303              		.loc 1 83 13 is_stmt 1
 304 0184 6300B702 		beq	a4,a1,.L30
  90:src/memoryAllocator.cpp ****                 //Insert at the end
 305              		.loc 1 90 18
 306 0188 638E0602 		beqz	a3,.L31
 106:src/memoryAllocator.cpp ****                 curr->prev = prevUsed;
 307              		.loc 1 106 17
 106:src/memoryAllocator.cpp ****                 curr->prev = prevUsed;
 308              		.loc 1 106 32 is_stmt 0
 309 018c 2330A600 		sd	a0,0(a2)
 107:src/memoryAllocator.cpp ****                 curr->next = currUsed;
 310              		.loc 1 107 17 is_stmt 1
 107:src/memoryAllocator.cpp ****                 curr->next = currUsed;
 311              		.loc 1 107 28 is_stmt 0
 312 0190 2334C500 		sd	a2,8(a0)
 108:src/memoryAllocator.cpp ****                 currUsed->prev = curr;
 313              		.loc 1 108 17 is_stmt 1
 108:src/memoryAllocator.cpp ****                 currUsed->prev = curr;
 314              		.loc 1 108 28 is_stmt 0
 315 0194 2330E500 		sd	a4,0(a0)
 109:src/memoryAllocator.cpp ****             }
 316              		.loc 1 109 17 is_stmt 1
 109:src/memoryAllocator.cpp ****             }
 317              		.loc 1 109 32 is_stmt 0
 318 0198 2334A700 		sd	a0,8(a4)
 319              	.LVL28:
 320              	.L21:
 111:src/memoryAllocator.cpp ****         }
 321              		.loc 1 111 13 is_stmt 1
 111:src/memoryAllocator.cpp ****         }
 322              		.loc 1 111 50 is_stmt 0
GAS LISTING /tmp/ccyNpyk1.s 			page 10


 323 019c 13058501 		addi	a0,a0,24
 324              	.LVL29:
 325 01a0 6FF05FF4 		j	.L1
 326              	.LVL30:
 327              	.L30:
  85:src/memoryAllocator.cpp ****                 curr->prev = nullptr;
 328              		.loc 1 85 17 is_stmt 1
  85:src/memoryAllocator.cpp ****                 curr->prev = nullptr;
 329              		.loc 1 85 28 is_stmt 0
 330 01a4 2330B500 		sd	a1,0(a0)
  86:src/memoryAllocator.cpp ****                 used->prev = curr;
 331              		.loc 1 86 17 is_stmt 1
  86:src/memoryAllocator.cpp ****                 used->prev = curr;
 332              		.loc 1 86 28 is_stmt 0
 333 01a8 23340500 		sd	zero,8(a0)
  87:src/memoryAllocator.cpp ****                 used = curr;
 334              		.loc 1 87 17 is_stmt 1
  87:src/memoryAllocator.cpp ****                 used = curr;
 335              		.loc 1 87 23 is_stmt 0
 336 01ac 97070000 		lla	a5,.LANCHOR0
 336      93870700 
 337 01b4 03B78700 		ld	a4,8(a5)
 338              	.LVL31:
  87:src/memoryAllocator.cpp ****                 used = curr;
 339              		.loc 1 87 28
 340 01b8 2334A700 		sd	a0,8(a4)
  88:src/memoryAllocator.cpp ****             }
 341              		.loc 1 88 17 is_stmt 1
  88:src/memoryAllocator.cpp ****             }
 342              		.loc 1 88 22 is_stmt 0
 343 01bc 23B4A700 		sd	a0,8(a5)
 344 01c0 6FF0DFFD 		j	.L21
 345              	.LVL32:
 346              	.L31:
  92:src/memoryAllocator.cpp ****                 curr->prev = currUsed;
 347              		.loc 1 92 17 is_stmt 1
  92:src/memoryAllocator.cpp ****                 curr->prev = currUsed;
 348              		.loc 1 92 32 is_stmt 0
 349 01c4 2330A700 		sd	a0,0(a4)
  93:src/memoryAllocator.cpp ****                 curr->next = nullptr;
 350              		.loc 1 93 17 is_stmt 1
  93:src/memoryAllocator.cpp ****                 curr->next = nullptr;
 351              		.loc 1 93 28 is_stmt 0
 352 01c8 2334E500 		sd	a4,8(a0)
  94:src/memoryAllocator.cpp ****             }
 353              		.loc 1 94 17 is_stmt 1
  94:src/memoryAllocator.cpp ****             }
 354              		.loc 1 94 28 is_stmt 0
 355 01cc 23300500 		sd	zero,0(a0)
 356 01d0 6FF0DFFC 		j	.L21
 357              	.LBE8:
 358              	.LBE10:
 359              	.LBE13:
 360              	.LBE15:
 361              		.cfi_endproc
 362              	.LFE1:
 364              		.align	2
GAS LISTING /tmp/ccyNpyk1.s 			page 11


 365              		.globl	_ZN15MemoryAllocator9tryToJoinEP9DataBlock
 367              	_ZN15MemoryAllocator9tryToJoinEP9DataBlock:
 368              	.LFB3:
 116:src/memoryAllocator.cpp **** 
 117:src/memoryAllocator.cpp **** int MemoryAllocator::mem_free(void* ptr) {
 118:src/memoryAllocator.cpp ****     if(used == nullptr) return -1;
 119:src/memoryAllocator.cpp ****     if(ptr == nullptr || ptr < HEAP_START_ADDR || ptr > HEAP_END_ADDR) return -2;
 120:src/memoryAllocator.cpp **** 
 121:src/memoryAllocator.cpp ****     DataBlock* curr = (DataBlock*)(char*)ptr - sizeof(DataBlock);
 122:src/memoryAllocator.cpp ****     if(curr < used) return -3;
 123:src/memoryAllocator.cpp **** 
 124:src/memoryAllocator.cpp ****     //Delete from USED list
 125:src/memoryAllocator.cpp ****     if(used == curr) {
 126:src/memoryAllocator.cpp ****         used = curr->next;
 127:src/memoryAllocator.cpp ****         if(used) used->prev = nullptr;
 128:src/memoryAllocator.cpp ****         curr->next = nullptr;
 129:src/memoryAllocator.cpp ****         curr->prev = nullptr;
 130:src/memoryAllocator.cpp ****     } else {
 131:src/memoryAllocator.cpp ****         curr->prev->next = curr->next;
 132:src/memoryAllocator.cpp ****         curr->next->prev = curr->prev;
 133:src/memoryAllocator.cpp ****         curr->next = nullptr;
 134:src/memoryAllocator.cpp ****         curr->prev = nullptr;
 135:src/memoryAllocator.cpp ****     }
 136:src/memoryAllocator.cpp **** 
 137:src/memoryAllocator.cpp ****     //Insert into FREE list
 138:src/memoryAllocator.cpp ****     if (free == nullptr) {
 139:src/memoryAllocator.cpp ****         //Insert as first
 140:src/memoryAllocator.cpp ****         free = curr;
 141:src/memoryAllocator.cpp ****     }
 142:src/memoryAllocator.cpp ****     else if(curr < free) {
 143:src/memoryAllocator.cpp ****         free->prev = curr;
 144:src/memoryAllocator.cpp ****         curr->prev = nullptr;
 145:src/memoryAllocator.cpp ****         curr->next = free;
 146:src/memoryAllocator.cpp ****         free = curr;
 147:src/memoryAllocator.cpp ****         tryToJoin(free);
 148:src/memoryAllocator.cpp ****     }
 149:src/memoryAllocator.cpp ****     else {
 150:src/memoryAllocator.cpp ****         //Find place in list
 151:src/memoryAllocator.cpp ****         DataBlock* currFree = free;
 152:src/memoryAllocator.cpp ****         for(currFree = free; currFree->next && (char*)(currFree->next) < (char*) curr; currFree = c
 153:src/memoryAllocator.cpp **** 
 154:src/memoryAllocator.cpp ****         curr->next = currFree->next;
 155:src/memoryAllocator.cpp ****         curr->prev = currFree;
 156:src/memoryAllocator.cpp ****         if(curr->next) curr->next->prev = curr;
 157:src/memoryAllocator.cpp ****         curr->next = curr;
 158:src/memoryAllocator.cpp ****         tryToJoin(curr);
 159:src/memoryAllocator.cpp ****         tryToJoin(currFree);
 160:src/memoryAllocator.cpp ****     }
 161:src/memoryAllocator.cpp ****     return 0;
 162:src/memoryAllocator.cpp **** }
 163:src/memoryAllocator.cpp **** 
 164:src/memoryAllocator.cpp **** void MemoryAllocator::tryToJoin(DataBlock *curr) {
 369              		.loc 1 164 50 is_stmt 1
 370              		.cfi_startproc
 371              	.LVL33:
 372 01d4 130101FF 		addi	sp,sp,-16
 373              		.cfi_def_cfa_offset 16
GAS LISTING /tmp/ccyNpyk1.s 			page 12


 374 01d8 23348100 		sd	s0,8(sp)
 375              		.cfi_offset 8, -8
 376 01dc 13040101 		addi	s0,sp,16
 377              		.cfi_def_cfa 8, 0
 165:src/memoryAllocator.cpp ****     if(curr->next && (char*)curr + sizeof(DataBlock) + curr->size == (char*)curr->next) {
 378              		.loc 1 165 5
 379              		.loc 1 165 14 is_stmt 0
 380 01e0 83370500 		ld	a5,0(a0)
 381              		.loc 1 165 5
 382 01e4 638A0700 		beqz	a5,.L32
 383              		.loc 1 165 62 discriminator 1
 384 01e8 83360501 		ld	a3,16(a0)
 385              		.loc 1 165 54 discriminator 1
 386 01ec 13878601 		addi	a4,a3,24
 387 01f0 3307E500 		add	a4,a0,a4
 388              		.loc 1 165 19 discriminator 1
 389 01f4 6388E700 		beq	a5,a4,.L35
 390              	.L32:
 166:src/memoryAllocator.cpp ****         curr->size += curr->next->size + sizeof(DataBlock);
 167:src/memoryAllocator.cpp ****         curr->next = curr->next->next;
 168:src/memoryAllocator.cpp ****         if(curr->next) curr->next->prev = curr;
 169:src/memoryAllocator.cpp ****     }
 170:src/memoryAllocator.cpp **** }
 391              		.loc 1 170 1
 392 01f8 03348100 		ld	s0,8(sp)
 393              		.cfi_remember_state
 394              		.cfi_restore 8
 395              		.cfi_def_cfa 2, 16
 396 01fc 13010101 		addi	sp,sp,16
 397              		.cfi_def_cfa_offset 0
 398 0200 67800000 		jr	ra
 399              	.L35:
 400              		.cfi_restore_state
 166:src/memoryAllocator.cpp ****         curr->size += curr->next->size + sizeof(DataBlock);
 401              		.loc 1 166 9 is_stmt 1
 166:src/memoryAllocator.cpp ****         curr->size += curr->next->size + sizeof(DataBlock);
 402              		.loc 1 166 35 is_stmt 0
 403 0204 03B70701 		ld	a4,16(a5)
 166:src/memoryAllocator.cpp ****         curr->size += curr->next->size + sizeof(DataBlock);
 404              		.loc 1 166 20
 405 0208 B386E600 		add	a3,a3,a4
 406 020c 93868601 		addi	a3,a3,24
 407 0210 2338D500 		sd	a3,16(a0)
 167:src/memoryAllocator.cpp ****         if(curr->next) curr->next->prev = curr;
 408              		.loc 1 167 9 is_stmt 1
 167:src/memoryAllocator.cpp ****         if(curr->next) curr->next->prev = curr;
 409              		.loc 1 167 34 is_stmt 0
 410 0214 83B70700 		ld	a5,0(a5)
 167:src/memoryAllocator.cpp ****         if(curr->next) curr->next->prev = curr;
 411              		.loc 1 167 20
 412 0218 2330F500 		sd	a5,0(a0)
 168:src/memoryAllocator.cpp ****     }
 413              		.loc 1 168 9 is_stmt 1
 414 021c E38E07FC 		beqz	a5,.L32
 168:src/memoryAllocator.cpp ****     }
 415              		.loc 1 168 24 discriminator 1
 168:src/memoryAllocator.cpp ****     }
GAS LISTING /tmp/ccyNpyk1.s 			page 13


 416              		.loc 1 168 41 is_stmt 0 discriminator 1
 417 0220 23B4A700 		sd	a0,8(a5)
 418              		.loc 1 170 1 discriminator 1
 419 0224 6FF05FFD 		j	.L32
 420              		.cfi_endproc
 421              	.LFE3:
 423              		.align	2
 424              		.globl	_ZN15MemoryAllocator8mem_freeEPv
 426              	_ZN15MemoryAllocator8mem_freeEPv:
 427              	.LFB2:
 117:src/memoryAllocator.cpp ****     if(used == nullptr) return -1;
 428              		.loc 1 117 42 is_stmt 1
 429              		.cfi_startproc
 430              	.LVL34:
 118:src/memoryAllocator.cpp ****     if(ptr == nullptr || ptr < HEAP_START_ADDR || ptr > HEAP_END_ADDR) return -2;
 431              		.loc 1 118 5
 118:src/memoryAllocator.cpp ****     if(ptr == nullptr || ptr < HEAP_START_ADDR || ptr > HEAP_END_ADDR) return -2;
 432              		.loc 1 118 13 is_stmt 0
 433 0228 97070000 		ld	a5,.LANCHOR0+8
 433      83B70700 
 118:src/memoryAllocator.cpp ****     if(ptr == nullptr || ptr < HEAP_START_ADDR || ptr > HEAP_END_ADDR) return -2;
 434              		.loc 1 118 5
 435 0230 63800712 		beqz	a5,.L45
 436 0234 13070500 		mv	a4,a0
 119:src/memoryAllocator.cpp **** 
 437              		.loc 1 119 5 is_stmt 1
 438 0238 63000512 		beqz	a0,.L46
 119:src/memoryAllocator.cpp **** 
 439              		.loc 1 119 30 is_stmt 0 discriminator 2
 440 023c 97060000 		la	a3,HEAP_START_ADDR
 440      83B60600 
 441 0244 83B60600 		ld	a3,0(a3)
 119:src/memoryAllocator.cpp **** 
 442              		.loc 1 119 23 discriminator 2
 443 0248 636CD510 		bgtu	a3,a0,.L47
 119:src/memoryAllocator.cpp **** 
 444              		.loc 1 119 55 discriminator 4
 445 024c 97060000 		la	a3,HEAP_END_ADDR
 445      83B60600 
 446 0254 83B60600 		ld	a3,0(a3)
 119:src/memoryAllocator.cpp **** 
 447              		.loc 1 119 48 discriminator 4
 448 0258 63E8A610 		bltu	a3,a0,.L48
 121:src/memoryAllocator.cpp ****     if(curr < used) return -3;
 449              		.loc 1 121 5 is_stmt 1
 121:src/memoryAllocator.cpp ****     if(curr < used) return -3;
 450              		.loc 1 121 16 is_stmt 0
 451 025c 130505DC 		addi	a0,a0,-576
 452              	.LVL35:
 122:src/memoryAllocator.cpp **** 
 453              		.loc 1 122 5 is_stmt 1
 454 0260 6368F510 		bgtu	a5,a0,.L49
 125:src/memoryAllocator.cpp ****         used = curr->next;
 455              		.loc 1 125 5
 456 0264 6388A708 		beq	a5,a0,.L53
 131:src/memoryAllocator.cpp ****         curr->next->prev = curr->prev;
 457              		.loc 1 131 9
GAS LISTING /tmp/ccyNpyk1.s 			page 14


 131:src/memoryAllocator.cpp ****         curr->next->prev = curr->prev;
 458              		.loc 1 131 15 is_stmt 0
 459 0268 833687DC 		ld	a3,-568(a4)
 131:src/memoryAllocator.cpp ****         curr->next->prev = curr->prev;
 460              		.loc 1 131 34
 461 026c 833707DC 		ld	a5,-576(a4)
 131:src/memoryAllocator.cpp ****         curr->next->prev = curr->prev;
 462              		.loc 1 131 26
 463 0270 23B0F600 		sd	a5,0(a3)
 132:src/memoryAllocator.cpp ****         curr->next = nullptr;
 464              		.loc 1 132 9 is_stmt 1
 132:src/memoryAllocator.cpp ****         curr->next = nullptr;
 465              		.loc 1 132 34 is_stmt 0
 466 0274 833687DC 		ld	a3,-568(a4)
 132:src/memoryAllocator.cpp ****         curr->next = nullptr;
 467              		.loc 1 132 26
 468 0278 23B4D700 		sd	a3,8(a5)
 133:src/memoryAllocator.cpp ****         curr->prev = nullptr;
 469              		.loc 1 133 9 is_stmt 1
 133:src/memoryAllocator.cpp ****         curr->prev = nullptr;
 470              		.loc 1 133 20 is_stmt 0
 471 027c 233007DC 		sd	zero,-576(a4)
 134:src/memoryAllocator.cpp ****     }
 472              		.loc 1 134 9 is_stmt 1
 134:src/memoryAllocator.cpp ****     }
 473              		.loc 1 134 20 is_stmt 0
 474 0280 233407DC 		sd	zero,-568(a4)
 475              	.L40:
 138:src/memoryAllocator.cpp ****         //Insert as first
 476              		.loc 1 138 5 is_stmt 1
 477              	.LBB16:
 138:src/memoryAllocator.cpp ****         //Insert as first
 478              		.loc 1 138 14 is_stmt 0
 479 0284 97070000 		ld	a5,.LANCHOR0
 479      83B70700 
 138:src/memoryAllocator.cpp ****         //Insert as first
 480              		.loc 1 138 5
 481 028c 63840708 		beqz	a5,.L54
 482              	.LBE16:
 117:src/memoryAllocator.cpp ****     if(used == nullptr) return -1;
 483              		.loc 1 117 42
 484 0290 130101FE 		addi	sp,sp,-32
 485              		.cfi_def_cfa_offset 32
 486 0294 233C1100 		sd	ra,24(sp)
 487 0298 23388100 		sd	s0,16(sp)
 488 029c 23349100 		sd	s1,8(sp)
 489              		.cfi_offset 1, -8
 490              		.cfi_offset 8, -16
 491              		.cfi_offset 9, -24
 492 02a0 13040102 		addi	s0,sp,32
 493              		.cfi_def_cfa 8, 0
 142:src/memoryAllocator.cpp ****         free->prev = curr;
 494              		.loc 1 142 10 is_stmt 1
 495              	.LBB21:
 496              	.LBB17:
 497 02a4 6360F508 		bgtu	a5,a0,.L55
 498              	.L42:
GAS LISTING /tmp/ccyNpyk1.s 			page 15


 499              	.LVL36:
 500              	.LBB18:
 152:src/memoryAllocator.cpp **** 
 501              		.loc 1 152 45 discriminator 4
 502 02a8 93840700 		mv	s1,a5
 152:src/memoryAllocator.cpp **** 
 503              		.loc 1 152 40 is_stmt 0 discriminator 4
 504 02ac 83B70700 		ld	a5,0(a5)
 505              	.LVL37:
 152:src/memoryAllocator.cpp **** 
 506              		.loc 1 152 45 discriminator 4
 507 02b0 63840700 		beqz	a5,.L43
 152:src/memoryAllocator.cpp **** 
 508              		.loc 1 152 45 discriminator 2
 509 02b4 E3EAA7FE 		bltu	a5,a0,.L42
 510              	.L43:
 154:src/memoryAllocator.cpp ****         curr->prev = currFree;
 511              		.loc 1 154 9 is_stmt 1
 155:src/memoryAllocator.cpp ****         if(curr->next) curr->next->prev = curr;
 512              		.loc 1 155 9
 155:src/memoryAllocator.cpp ****         if(curr->next) curr->next->prev = curr;
 513              		.loc 1 155 20 is_stmt 0
 514 02b8 233497DC 		sd	s1,-568(a4)
 156:src/memoryAllocator.cpp ****         curr->next = curr;
 515              		.loc 1 156 9 is_stmt 1
 516 02bc 63840700 		beqz	a5,.L44
 156:src/memoryAllocator.cpp ****         curr->next = curr;
 517              		.loc 1 156 24 discriminator 1
 156:src/memoryAllocator.cpp ****         curr->next = curr;
 518              		.loc 1 156 41 is_stmt 0 discriminator 1
 519 02c0 23B4A700 		sd	a0,8(a5)
 520              	.L44:
 157:src/memoryAllocator.cpp ****         tryToJoin(curr);
 521              		.loc 1 157 9 is_stmt 1
 157:src/memoryAllocator.cpp ****         tryToJoin(curr);
 522              		.loc 1 157 20 is_stmt 0
 523 02c4 2330A7DC 		sd	a0,-576(a4)
 158:src/memoryAllocator.cpp ****         tryToJoin(currFree);
 524              		.loc 1 158 9 is_stmt 1
 158:src/memoryAllocator.cpp ****         tryToJoin(currFree);
 525              		.loc 1 158 18 is_stmt 0
 526 02c8 97000000 		call	_ZN15MemoryAllocator9tryToJoinEP9DataBlock
 526      E7800000 
 527              	.LVL38:
 159:src/memoryAllocator.cpp ****     }
 528              		.loc 1 159 9 is_stmt 1
 159:src/memoryAllocator.cpp ****     }
 529              		.loc 1 159 18 is_stmt 0
 530 02d0 13850400 		mv	a0,s1
 531 02d4 97000000 		call	_ZN15MemoryAllocator9tryToJoinEP9DataBlock
 531      E7800000 
 532              	.LVL39:
 533              	.LBE18:
 534              	.LBE17:
 535              	.LBE21:
 161:src/memoryAllocator.cpp **** }
 536              		.loc 1 161 12
GAS LISTING /tmp/ccyNpyk1.s 			page 16


 537 02dc 13050000 		li	a0,0
 538              	.LVL40:
 539              	.L37:
 162:src/memoryAllocator.cpp **** 
 540              		.loc 1 162 1
 541 02e0 83308101 		ld	ra,24(sp)
 542              		.cfi_restore 1
 543 02e4 03340101 		ld	s0,16(sp)
 544              		.cfi_restore 8
 545              		.cfi_def_cfa 2, 32
 546 02e8 83348100 		ld	s1,8(sp)
 547              		.cfi_restore 9
 548 02ec 13010102 		addi	sp,sp,32
 549              		.cfi_def_cfa_offset 0
 550 02f0 67800000 		jr	ra
 551              	.LVL41:
 552              	.L53:
 126:src/memoryAllocator.cpp ****         if(used) used->prev = nullptr;
 553              		.loc 1 126 9 is_stmt 1
 126:src/memoryAllocator.cpp ****         if(used) used->prev = nullptr;
 554              		.loc 1 126 22 is_stmt 0
 555 02f4 833707DC 		ld	a5,-576(a4)
 126:src/memoryAllocator.cpp ****         if(used) used->prev = nullptr;
 556              		.loc 1 126 14
 557 02f8 97060000 		sd	a5,.LANCHOR0+8,a3
 557      23B0F600 
 127:src/memoryAllocator.cpp ****         curr->next = nullptr;
 558              		.loc 1 127 9 is_stmt 1
 559 0300 63840700 		beqz	a5,.L39
 127:src/memoryAllocator.cpp ****         curr->next = nullptr;
 560              		.loc 1 127 18 discriminator 1
 127:src/memoryAllocator.cpp ****         curr->next = nullptr;
 561              		.loc 1 127 29 is_stmt 0 discriminator 1
 562 0304 23B40700 		sd	zero,8(a5)
 563              	.L39:
 128:src/memoryAllocator.cpp ****         curr->prev = nullptr;
 564              		.loc 1 128 9 is_stmt 1
 128:src/memoryAllocator.cpp ****         curr->prev = nullptr;
 565              		.loc 1 128 20 is_stmt 0
 566 0308 233007DC 		sd	zero,-576(a4)
 129:src/memoryAllocator.cpp ****     } else {
 567              		.loc 1 129 9 is_stmt 1
 129:src/memoryAllocator.cpp ****     } else {
 568              		.loc 1 129 20 is_stmt 0
 569 030c 233407DC 		sd	zero,-568(a4)
 570 0310 6FF05FF7 		j	.L40
 571              	.L54:
 572              	.LBB22:
 140:src/memoryAllocator.cpp ****     }
 573              		.loc 1 140 9 is_stmt 1
 140:src/memoryAllocator.cpp ****     }
 574              		.loc 1 140 14 is_stmt 0
 575 0314 97070000 		sd	a0,.LANCHOR0,a5
 575      23B0A700 
 576              	.LBE22:
 161:src/memoryAllocator.cpp **** }
 577              		.loc 1 161 12
GAS LISTING /tmp/ccyNpyk1.s 			page 17


 578 031c 13050000 		li	a0,0
 579              	.LVL42:
 580              	.LBB23:
 581 0320 67800000 		ret
 582              	.LVL43:
 583              	.L55:
 584              		.cfi_def_cfa_register 8
 585              		.cfi_offset 1, -8
 586              		.cfi_offset 8, -16
 587              		.cfi_offset 9, -24
 588              	.LBB19:
 143:src/memoryAllocator.cpp ****         curr->prev = nullptr;
 589              		.loc 1 143 9 is_stmt 1
 143:src/memoryAllocator.cpp ****         curr->prev = nullptr;
 590              		.loc 1 143 20 is_stmt 0
 591 0324 23B4A700 		sd	a0,8(a5)
 144:src/memoryAllocator.cpp ****         curr->next = free;
 592              		.loc 1 144 9 is_stmt 1
 144:src/memoryAllocator.cpp ****         curr->next = free;
 593              		.loc 1 144 20 is_stmt 0
 594 0328 233407DC 		sd	zero,-568(a4)
 145:src/memoryAllocator.cpp ****         free = curr;
 595              		.loc 1 145 9 is_stmt 1
 145:src/memoryAllocator.cpp ****         free = curr;
 596              		.loc 1 145 20 is_stmt 0
 597 032c 97070000 		lla	a5,.LANCHOR0
 597      93870700 
 598 0334 83B60700 		ld	a3,0(a5)
 599 0338 2330D7DC 		sd	a3,-576(a4)
 146:src/memoryAllocator.cpp ****         tryToJoin(free);
 600              		.loc 1 146 9 is_stmt 1
 146:src/memoryAllocator.cpp ****         tryToJoin(free);
 601              		.loc 1 146 14 is_stmt 0
 602 033c 23B0A700 		sd	a0,0(a5)
 147:src/memoryAllocator.cpp ****     }
 603              		.loc 1 147 9 is_stmt 1
 147:src/memoryAllocator.cpp ****     }
 604              		.loc 1 147 18 is_stmt 0
 605 0340 97000000 		call	_ZN15MemoryAllocator9tryToJoinEP9DataBlock
 605      E7800000 
 606              	.LVL44:
 607              	.LBE19:
 608              	.LBE23:
 161:src/memoryAllocator.cpp **** }
 609              		.loc 1 161 12
 610 0348 13050000 		li	a0,0
 611              	.LBB24:
 612              	.LBB20:
 613 034c 6FF05FF9 		j	.L37
 614              	.LVL45:
 615              	.L45:
 616              		.cfi_def_cfa_register 2
 617              		.cfi_restore 1
 618              		.cfi_restore 8
 619              		.cfi_restore 9
 620              	.LBE20:
 621              	.LBE24:
GAS LISTING /tmp/ccyNpyk1.s 			page 18


 118:src/memoryAllocator.cpp ****     if(ptr == nullptr || ptr < HEAP_START_ADDR || ptr > HEAP_END_ADDR) return -2;
 622              		.loc 1 118 33
 623 0350 1305F0FF 		li	a0,-1
 624              	.LVL46:
 625 0354 67800000 		ret
 626              	.LVL47:
 627              	.L46:
 119:src/memoryAllocator.cpp **** 
 628              		.loc 1 119 80
 629 0358 1305E0FF 		li	a0,-2
 630              	.LVL48:
 631 035c 67800000 		ret
 632              	.LVL49:
 633              	.L47:
 634 0360 1305E0FF 		li	a0,-2
 635              	.LVL50:
 636 0364 67800000 		ret
 637              	.LVL51:
 638              	.L48:
 639 0368 1305E0FF 		li	a0,-2
 640              	.LVL52:
 641 036c 67800000 		ret
 642              	.LVL53:
 643              	.L49:
 122:src/memoryAllocator.cpp **** 
 644              		.loc 1 122 29
 645 0370 1305D0FF 		li	a0,-3
 646              	.LVL54:
 162:src/memoryAllocator.cpp **** 
 647              		.loc 1 162 1
 648 0374 67800000 		ret
 649              		.cfi_endproc
 650              	.LFE2:
 652              		.globl	_ZN15MemoryAllocator4usedE
 653              		.globl	_ZN15MemoryAllocator4freeE
 654              		.bss
 655              		.align	3
 656              		.set	.LANCHOR0,. + 0
 659              	_ZN15MemoryAllocator4freeE:
 660 0000 00000000 		.zero	8
 660      00000000 
 663              	_ZN15MemoryAllocator4usedE:
 664 0008 00000000 		.zero	8
 664      00000000 
 665              		.text
 666              	.Letext0:
 667              		.file 2 "src/../lib/hw.h"
 668              		.file 3 "src/../h/memoryAllocator.hpp"
GAS LISTING /tmp/ccyNpyk1.s 			page 19


DEFINED SYMBOLS
                            *ABS*:0000000000000000 memoryAllocator.cpp
     /tmp/ccyNpyk1.s:9      .text:0000000000000000 _ZN15MemoryAllocator9mem_allocEm
     /tmp/ccyNpyk1.s:13     .text:0000000000000000 .L0 
     /tmp/ccyNpyk1.s:15     .text:0000000000000000 .L0 
     /tmp/ccyNpyk1.s:16     .text:0000000000000004 .L0 
     /tmp/ccyNpyk1.s:18     .text:0000000000000008 .L0 
     /tmp/ccyNpyk1.s:20     .text:000000000000000c .L0 
     /tmp/ccyNpyk1.s:23     .text:0000000000000010 .L0 
     /tmp/ccyNpyk1.s:24     .text:0000000000000010 .L0 
     /tmp/ccyNpyk1.s:25     .text:0000000000000010 .L0 
     /tmp/ccyNpyk1.s:27     .text:0000000000000014 .L0 
     /tmp/ccyNpyk1.s:29     .text:0000000000000018 .L0 
     /tmp/ccyNpyk1.s:30     .text:0000000000000018 .L0 
     /tmp/ccyNpyk1.s:32     .text:000000000000001c .L0 
     /tmp/ccyNpyk1.s:37     .text:0000000000000020 .L0 
     /tmp/ccyNpyk1.s:38     .text:0000000000000020 .L0 
     /tmp/ccyNpyk1.s:42     .text:0000000000000028 .L0 
     /tmp/ccyNpyk1.s:45     .text:000000000000002c .L0 
     /tmp/ccyNpyk1.s:46     .text:000000000000002c .L0 
     /tmp/ccyNpyk1.s:48     .text:0000000000000030 .L0 
     /tmp/ccyNpyk1.s:51     .text:0000000000000034 .L0 
     /tmp/ccyNpyk1.s:54     .text:0000000000000038 .L0 
     /tmp/ccyNpyk1.s:55     .text:0000000000000038 .L0 
     /tmp/ccyNpyk1.s:56     .text:0000000000000038 .L0 
     /tmp/ccyNpyk1.s:59     .text:000000000000003c .L0 
     /tmp/ccyNpyk1.s:62     .text:0000000000000040 .L0 
     /tmp/ccyNpyk1.s:63     .text:0000000000000040 .L0 
     /tmp/ccyNpyk1.s:65     .text:0000000000000044 .L0 
     /tmp/ccyNpyk1.s:67     .text:0000000000000048 .L0 
     /tmp/ccyNpyk1.s:68     .text:0000000000000048 .L0 
     /tmp/ccyNpyk1.s:71     .text:000000000000004c .L0 
     /tmp/ccyNpyk1.s:72     .text:000000000000004c .L0 
     /tmp/ccyNpyk1.s:74     .text:0000000000000050 .L0 
     /tmp/ccyNpyk1.s:76     .text:0000000000000054 .L0 
     /tmp/ccyNpyk1.s:77     .text:0000000000000054 .L0 
     /tmp/ccyNpyk1.s:80     .text:0000000000000058 .L0 
     /tmp/ccyNpyk1.s:81     .text:0000000000000058 .L0 
     /tmp/ccyNpyk1.s:83     .text:000000000000005c .L0 
     /tmp/ccyNpyk1.s:85     .text:0000000000000060 .L0 
     /tmp/ccyNpyk1.s:86     .text:0000000000000060 .L0 
     /tmp/ccyNpyk1.s:88     .text:0000000000000064 .L0 
     /tmp/ccyNpyk1.s:90     .text:0000000000000068 .L0 
     /tmp/ccyNpyk1.s:91     .text:0000000000000068 .L0 
     /tmp/ccyNpyk1.s:93     .text:000000000000006c .L0 
     /tmp/ccyNpyk1.s:96     .text:0000000000000070 .L0 
     /tmp/ccyNpyk1.s:98     .text:0000000000000074 .L0 
     /tmp/ccyNpyk1.s:100    .text:0000000000000078 .L0 
     /tmp/ccyNpyk1.s:101    .text:0000000000000078 .L0 
     /tmp/ccyNpyk1.s:104    .text:0000000000000080 .L0 
     /tmp/ccyNpyk1.s:105    .text:0000000000000080 .L0 
     /tmp/ccyNpyk1.s:107    .text:0000000000000084 .L0 
     /tmp/ccyNpyk1.s:116    .text:000000000000008c .L0 
     /tmp/ccyNpyk1.s:124    .text:0000000000000094 .L0 
     /tmp/ccyNpyk1.s:125    .text:0000000000000094 .L0 
     /tmp/ccyNpyk1.s:126    .text:0000000000000094 .L0 
     /tmp/ccyNpyk1.s:129    .text:0000000000000098 .L0 
GAS LISTING /tmp/ccyNpyk1.s 			page 20


     /tmp/ccyNpyk1.s:136    .text:000000000000009c .L0 
     /tmp/ccyNpyk1.s:137    .text:000000000000009c .L0 
     /tmp/ccyNpyk1.s:142    .text:00000000000000a8 .L0 
     /tmp/ccyNpyk1.s:145    .text:00000000000000ac .L0 
     /tmp/ccyNpyk1.s:149    .text:00000000000000b0 .L0 
     /tmp/ccyNpyk1.s:150    .text:00000000000000b0 .L0 
     /tmp/ccyNpyk1.s:151    .text:00000000000000b0 .L0 
     /tmp/ccyNpyk1.s:153    .text:00000000000000b4 .L0 
     /tmp/ccyNpyk1.s:155    .text:00000000000000b8 .L0 
     /tmp/ccyNpyk1.s:157    .text:00000000000000bc .L0 
     /tmp/ccyNpyk1.s:160    .text:00000000000000c4 .L0 
     /tmp/ccyNpyk1.s:163    .text:00000000000000c8 .L0 
     /tmp/ccyNpyk1.s:165    .text:00000000000000cc .L0 
     /tmp/ccyNpyk1.s:167    .text:00000000000000d0 .L0 
     /tmp/ccyNpyk1.s:168    .text:00000000000000d0 .L0 
     /tmp/ccyNpyk1.s:170    .text:00000000000000d4 .L0 
     /tmp/ccyNpyk1.s:171    .text:00000000000000d4 .L0 
     /tmp/ccyNpyk1.s:173    .text:00000000000000d8 .L0 
     /tmp/ccyNpyk1.s:174    .text:00000000000000d8 .L0 
     /tmp/ccyNpyk1.s:176    .text:00000000000000dc .L0 
     /tmp/ccyNpyk1.s:177    .text:00000000000000dc .L0 
     /tmp/ccyNpyk1.s:181    .text:00000000000000e0 .L0 
     /tmp/ccyNpyk1.s:182    .text:00000000000000e0 .L0 
     /tmp/ccyNpyk1.s:190    .text:00000000000000e4 .L0 
     /tmp/ccyNpyk1.s:191    .text:00000000000000e8 .L0 
     /tmp/ccyNpyk1.s:192    .text:00000000000000e8 .L0 
     /tmp/ccyNpyk1.s:193    .text:00000000000000e8 .L0 
     /tmp/ccyNpyk1.s:195    .text:00000000000000ec .L0 
     /tmp/ccyNpyk1.s:199    .text:00000000000000f0 .L0 
     /tmp/ccyNpyk1.s:205    .text:00000000000000f0 .L0 
     /tmp/ccyNpyk1.s:206    .text:00000000000000f0 .L0 
     /tmp/ccyNpyk1.s:208    .text:00000000000000f4 .L0 
     /tmp/ccyNpyk1.s:209    .text:00000000000000f4 .L0 
     /tmp/ccyNpyk1.s:211    .text:00000000000000f8 .L0 
     /tmp/ccyNpyk1.s:212    .text:00000000000000f8 .L0 
     /tmp/ccyNpyk1.s:216    .text:0000000000000104 .L0 
     /tmp/ccyNpyk1.s:218    .text:0000000000000108 .L0 
     /tmp/ccyNpyk1.s:219    .text:0000000000000108 .L0 
     /tmp/ccyNpyk1.s:224    .text:0000000000000110 .L0 
     /tmp/ccyNpyk1.s:225    .text:0000000000000110 .L0 
     /tmp/ccyNpyk1.s:227    .text:0000000000000114 .L0 
     /tmp/ccyNpyk1.s:228    .text:0000000000000114 .L0 
     /tmp/ccyNpyk1.s:230    .text:0000000000000118 .L0 
     /tmp/ccyNpyk1.s:231    .text:0000000000000118 .L0 
     /tmp/ccyNpyk1.s:238    .text:0000000000000120 .L0 
     /tmp/ccyNpyk1.s:239    .text:0000000000000120 .L0 
     /tmp/ccyNpyk1.s:242    .text:0000000000000124 .L0 
     /tmp/ccyNpyk1.s:244    .text:0000000000000128 .L0 
     /tmp/ccyNpyk1.s:245    .text:0000000000000128 .L0 
     /tmp/ccyNpyk1.s:248    .text:000000000000012c .L0 
     /tmp/ccyNpyk1.s:251    .text:0000000000000130 .L0 
     /tmp/ccyNpyk1.s:252    .text:0000000000000130 .L0 
     /tmp/ccyNpyk1.s:254    .text:0000000000000134 .L0 
     /tmp/ccyNpyk1.s:256    .text:0000000000000138 .L0 
     /tmp/ccyNpyk1.s:257    .text:0000000000000138 .L0 
     /tmp/ccyNpyk1.s:259    .text:000000000000013c .L0 
     /tmp/ccyNpyk1.s:262    .text:0000000000000140 .L0 
GAS LISTING /tmp/ccyNpyk1.s 			page 21


     /tmp/ccyNpyk1.s:263    .text:0000000000000140 .L0 
     /tmp/ccyNpyk1.s:266    .text:0000000000000148 .L0 
     /tmp/ccyNpyk1.s:267    .text:0000000000000148 .L0 
     /tmp/ccyNpyk1.s:269    .text:000000000000014c .L0 
     /tmp/ccyNpyk1.s:274    .text:0000000000000154 .L0 
     /tmp/ccyNpyk1.s:275    .text:0000000000000154 .L0 
     /tmp/ccyNpyk1.s:277    .text:0000000000000158 .L0 
     /tmp/ccyNpyk1.s:283    .text:0000000000000164 .L0 
     /tmp/ccyNpyk1.s:286    .text:0000000000000168 .L0 
     /tmp/ccyNpyk1.s:290    .text:000000000000016c .L0 
     /tmp/ccyNpyk1.s:291    .text:000000000000016c .L0 
     /tmp/ccyNpyk1.s:292    .text:000000000000016c .L0 
     /tmp/ccyNpyk1.s:294    .text:0000000000000170 .L0 
     /tmp/ccyNpyk1.s:296    .text:0000000000000174 .L0 
     /tmp/ccyNpyk1.s:298    .text:0000000000000178 .L0 
     /tmp/ccyNpyk1.s:301    .text:0000000000000180 .L0 
     /tmp/ccyNpyk1.s:304    .text:0000000000000184 .L0 
     /tmp/ccyNpyk1.s:306    .text:0000000000000188 .L0 
     /tmp/ccyNpyk1.s:308    .text:000000000000018c .L0 
     /tmp/ccyNpyk1.s:309    .text:000000000000018c .L0 
     /tmp/ccyNpyk1.s:311    .text:0000000000000190 .L0 
     /tmp/ccyNpyk1.s:312    .text:0000000000000190 .L0 
     /tmp/ccyNpyk1.s:314    .text:0000000000000194 .L0 
     /tmp/ccyNpyk1.s:315    .text:0000000000000194 .L0 
     /tmp/ccyNpyk1.s:317    .text:0000000000000198 .L0 
     /tmp/ccyNpyk1.s:318    .text:0000000000000198 .L0 
     /tmp/ccyNpyk1.s:322    .text:000000000000019c .L0 
     /tmp/ccyNpyk1.s:323    .text:000000000000019c .L0 
     /tmp/ccyNpyk1.s:329    .text:00000000000001a4 .L0 
     /tmp/ccyNpyk1.s:330    .text:00000000000001a4 .L0 
     /tmp/ccyNpyk1.s:332    .text:00000000000001a8 .L0 
     /tmp/ccyNpyk1.s:333    .text:00000000000001a8 .L0 
     /tmp/ccyNpyk1.s:335    .text:00000000000001ac .L0 
     /tmp/ccyNpyk1.s:336    .text:00000000000001ac .L0 
     /tmp/ccyNpyk1.s:340    .text:00000000000001b8 .L0 
     /tmp/ccyNpyk1.s:342    .text:00000000000001bc .L0 
     /tmp/ccyNpyk1.s:343    .text:00000000000001bc .L0 
     /tmp/ccyNpyk1.s:348    .text:00000000000001c4 .L0 
     /tmp/ccyNpyk1.s:349    .text:00000000000001c4 .L0 
     /tmp/ccyNpyk1.s:351    .text:00000000000001c8 .L0 
     /tmp/ccyNpyk1.s:352    .text:00000000000001c8 .L0 
     /tmp/ccyNpyk1.s:354    .text:00000000000001cc .L0 
     /tmp/ccyNpyk1.s:355    .text:00000000000001cc .L0 
     /tmp/ccyNpyk1.s:361    .text:00000000000001d4 .L0 
     /tmp/ccyNpyk1.s:367    .text:00000000000001d4 _ZN15MemoryAllocator9tryToJoinEP9DataBlock
     /tmp/ccyNpyk1.s:370    .text:00000000000001d4 .L0 
     /tmp/ccyNpyk1.s:372    .text:00000000000001d4 .L0 
     /tmp/ccyNpyk1.s:373    .text:00000000000001d8 .L0 
     /tmp/ccyNpyk1.s:375    .text:00000000000001dc .L0 
     /tmp/ccyNpyk1.s:377    .text:00000000000001e0 .L0 
     /tmp/ccyNpyk1.s:379    .text:00000000000001e0 .L0 
     /tmp/ccyNpyk1.s:380    .text:00000000000001e0 .L0 
     /tmp/ccyNpyk1.s:382    .text:00000000000001e4 .L0 
     /tmp/ccyNpyk1.s:384    .text:00000000000001e8 .L0 
     /tmp/ccyNpyk1.s:386    .text:00000000000001ec .L0 
     /tmp/ccyNpyk1.s:389    .text:00000000000001f4 .L0 
     /tmp/ccyNpyk1.s:392    .text:00000000000001f8 .L0 
GAS LISTING /tmp/ccyNpyk1.s 			page 22


     /tmp/ccyNpyk1.s:393    .text:00000000000001fc .L0 
     /tmp/ccyNpyk1.s:394    .text:00000000000001fc .L0 
     /tmp/ccyNpyk1.s:395    .text:00000000000001fc .L0 
     /tmp/ccyNpyk1.s:397    .text:0000000000000200 .L0 
     /tmp/ccyNpyk1.s:400    .text:0000000000000204 .L0 
     /tmp/ccyNpyk1.s:402    .text:0000000000000204 .L0 
     /tmp/ccyNpyk1.s:403    .text:0000000000000204 .L0 
     /tmp/ccyNpyk1.s:405    .text:0000000000000208 .L0 
     /tmp/ccyNpyk1.s:409    .text:0000000000000214 .L0 
     /tmp/ccyNpyk1.s:410    .text:0000000000000214 .L0 
     /tmp/ccyNpyk1.s:412    .text:0000000000000218 .L0 
     /tmp/ccyNpyk1.s:414    .text:000000000000021c .L0 
     /tmp/ccyNpyk1.s:416    .text:0000000000000220 .L0 
     /tmp/ccyNpyk1.s:417    .text:0000000000000220 .L0 
     /tmp/ccyNpyk1.s:419    .text:0000000000000224 .L0 
     /tmp/ccyNpyk1.s:420    .text:0000000000000228 .L0 
     /tmp/ccyNpyk1.s:426    .text:0000000000000228 _ZN15MemoryAllocator8mem_freeEPv
     /tmp/ccyNpyk1.s:429    .text:0000000000000228 .L0 
     /tmp/ccyNpyk1.s:431    .text:0000000000000228 .L0 
     /tmp/ccyNpyk1.s:432    .text:0000000000000228 .L0 
     /tmp/ccyNpyk1.s:433    .text:0000000000000228 .L0 
     /tmp/ccyNpyk1.s:435    .text:0000000000000230 .L0 
     /tmp/ccyNpyk1.s:438    .text:0000000000000238 .L0 
     /tmp/ccyNpyk1.s:440    .text:000000000000023c .L0 
     /tmp/ccyNpyk1.s:443    .text:0000000000000248 .L0 
     /tmp/ccyNpyk1.s:445    .text:000000000000024c .L0 
     /tmp/ccyNpyk1.s:448    .text:0000000000000258 .L0 
     /tmp/ccyNpyk1.s:450    .text:000000000000025c .L0 
     /tmp/ccyNpyk1.s:451    .text:000000000000025c .L0 
     /tmp/ccyNpyk1.s:454    .text:0000000000000260 .L0 
     /tmp/ccyNpyk1.s:456    .text:0000000000000264 .L0 
     /tmp/ccyNpyk1.s:458    .text:0000000000000268 .L0 
     /tmp/ccyNpyk1.s:459    .text:0000000000000268 .L0 
     /tmp/ccyNpyk1.s:461    .text:000000000000026c .L0 
     /tmp/ccyNpyk1.s:463    .text:0000000000000270 .L0 
     /tmp/ccyNpyk1.s:465    .text:0000000000000274 .L0 
     /tmp/ccyNpyk1.s:466    .text:0000000000000274 .L0 
     /tmp/ccyNpyk1.s:468    .text:0000000000000278 .L0 
     /tmp/ccyNpyk1.s:470    .text:000000000000027c .L0 
     /tmp/ccyNpyk1.s:471    .text:000000000000027c .L0 
     /tmp/ccyNpyk1.s:473    .text:0000000000000280 .L0 
     /tmp/ccyNpyk1.s:474    .text:0000000000000280 .L0 
     /tmp/ccyNpyk1.s:478    .text:0000000000000284 .L0 
     /tmp/ccyNpyk1.s:479    .text:0000000000000284 .L0 
     /tmp/ccyNpyk1.s:481    .text:000000000000028c .L0 
     /tmp/ccyNpyk1.s:484    .text:0000000000000290 .L0 
     /tmp/ccyNpyk1.s:485    .text:0000000000000294 .L0 
     /tmp/ccyNpyk1.s:489    .text:00000000000002a0 .L0 
     /tmp/ccyNpyk1.s:490    .text:00000000000002a0 .L0 
     /tmp/ccyNpyk1.s:491    .text:00000000000002a0 .L0 
     /tmp/ccyNpyk1.s:493    .text:00000000000002a4 .L0 
     /tmp/ccyNpyk1.s:497    .text:00000000000002a4 .L0 
     /tmp/ccyNpyk1.s:502    .text:00000000000002a8 .L0 
     /tmp/ccyNpyk1.s:504    .text:00000000000002ac .L0 
     /tmp/ccyNpyk1.s:507    .text:00000000000002b0 .L0 
     /tmp/ccyNpyk1.s:509    .text:00000000000002b4 .L0 
     /tmp/ccyNpyk1.s:512    .text:00000000000002b8 .L0 
GAS LISTING /tmp/ccyNpyk1.s 			page 23


     /tmp/ccyNpyk1.s:513    .text:00000000000002b8 .L0 
     /tmp/ccyNpyk1.s:514    .text:00000000000002b8 .L0 
     /tmp/ccyNpyk1.s:516    .text:00000000000002bc .L0 
     /tmp/ccyNpyk1.s:518    .text:00000000000002c0 .L0 
     /tmp/ccyNpyk1.s:519    .text:00000000000002c0 .L0 
     /tmp/ccyNpyk1.s:522    .text:00000000000002c4 .L0 
     /tmp/ccyNpyk1.s:523    .text:00000000000002c4 .L0 
     /tmp/ccyNpyk1.s:525    .text:00000000000002c8 .L0 
     /tmp/ccyNpyk1.s:526    .text:00000000000002c8 .L0 
     /tmp/ccyNpyk1.s:529    .text:00000000000002d0 .L0 
     /tmp/ccyNpyk1.s:530    .text:00000000000002d0 .L0 
     /tmp/ccyNpyk1.s:537    .text:00000000000002dc .L0 
     /tmp/ccyNpyk1.s:541    .text:00000000000002e0 .L0 
     /tmp/ccyNpyk1.s:542    .text:00000000000002e4 .L0 
     /tmp/ccyNpyk1.s:544    .text:00000000000002e8 .L0 
     /tmp/ccyNpyk1.s:545    .text:00000000000002e8 .L0 
     /tmp/ccyNpyk1.s:547    .text:00000000000002ec .L0 
     /tmp/ccyNpyk1.s:549    .text:00000000000002f0 .L0 
     /tmp/ccyNpyk1.s:554    .text:00000000000002f4 .L0 
     /tmp/ccyNpyk1.s:555    .text:00000000000002f4 .L0 
     /tmp/ccyNpyk1.s:557    .text:00000000000002f8 .L0 
     /tmp/ccyNpyk1.s:559    .text:0000000000000300 .L0 
     /tmp/ccyNpyk1.s:561    .text:0000000000000304 .L0 
     /tmp/ccyNpyk1.s:562    .text:0000000000000304 .L0 
     /tmp/ccyNpyk1.s:565    .text:0000000000000308 .L0 
     /tmp/ccyNpyk1.s:566    .text:0000000000000308 .L0 
     /tmp/ccyNpyk1.s:568    .text:000000000000030c .L0 
     /tmp/ccyNpyk1.s:569    .text:000000000000030c .L0 
     /tmp/ccyNpyk1.s:574    .text:0000000000000314 .L0 
     /tmp/ccyNpyk1.s:575    .text:0000000000000314 .L0 
     /tmp/ccyNpyk1.s:578    .text:000000000000031c .L0 
     /tmp/ccyNpyk1.s:584    .text:0000000000000324 .L0 
     /tmp/ccyNpyk1.s:585    .text:0000000000000324 .L0 
     /tmp/ccyNpyk1.s:586    .text:0000000000000324 .L0 
     /tmp/ccyNpyk1.s:587    .text:0000000000000324 .L0 
     /tmp/ccyNpyk1.s:590    .text:0000000000000324 .L0 
     /tmp/ccyNpyk1.s:591    .text:0000000000000324 .L0 
     /tmp/ccyNpyk1.s:593    .text:0000000000000328 .L0 
     /tmp/ccyNpyk1.s:594    .text:0000000000000328 .L0 
     /tmp/ccyNpyk1.s:596    .text:000000000000032c .L0 
     /tmp/ccyNpyk1.s:597    .text:000000000000032c .L0 
     /tmp/ccyNpyk1.s:601    .text:000000000000033c .L0 
     /tmp/ccyNpyk1.s:602    .text:000000000000033c .L0 
     /tmp/ccyNpyk1.s:604    .text:0000000000000340 .L0 
     /tmp/ccyNpyk1.s:605    .text:0000000000000340 .L0 
     /tmp/ccyNpyk1.s:610    .text:0000000000000348 .L0 
     /tmp/ccyNpyk1.s:616    .text:0000000000000350 .L0 
     /tmp/ccyNpyk1.s:617    .text:0000000000000350 .L0 
     /tmp/ccyNpyk1.s:618    .text:0000000000000350 .L0 
     /tmp/ccyNpyk1.s:619    .text:0000000000000350 .L0 
     /tmp/ccyNpyk1.s:623    .text:0000000000000350 .L0 
     /tmp/ccyNpyk1.s:629    .text:0000000000000358 .L0 
     /tmp/ccyNpyk1.s:645    .text:0000000000000370 .L0 
     /tmp/ccyNpyk1.s:648    .text:0000000000000374 .L0 
     /tmp/ccyNpyk1.s:649    .text:0000000000000378 .L0 
     /tmp/ccyNpyk1.s:663    .bss:0000000000000008 _ZN15MemoryAllocator4usedE
     /tmp/ccyNpyk1.s:659    .bss:0000000000000000 _ZN15MemoryAllocator4freeE
GAS LISTING /tmp/ccyNpyk1.s 			page 24


     /tmp/ccyNpyk1.s:656    .bss:0000000000000000 .LANCHOR0
     /tmp/ccyNpyk1.s:669    .text:0000000000000378 .L0 
     /tmp/ccyNpyk1.s:38     .text:0000000000000020 .L0 
     /tmp/ccyNpyk1.s:101    .text:0000000000000078 .L0 
     /tmp/ccyNpyk1.s:137    .text:000000000000009c .L0 
     /tmp/ccyNpyk1.s:212    .text:00000000000000f8 .L0 
     /tmp/ccyNpyk1.s:263    .text:0000000000000140 .L0 
     /tmp/ccyNpyk1.s:277    .text:0000000000000158 .L0 
     /tmp/ccyNpyk1.s:336    .text:00000000000001ac .L0 
     /tmp/ccyNpyk1.s:433    .text:0000000000000228 .L0 
     /tmp/ccyNpyk1.s:440    .text:000000000000023c .L0 
     /tmp/ccyNpyk1.s:445    .text:000000000000024c .L0 
     /tmp/ccyNpyk1.s:479    .text:0000000000000284 .L0 
     /tmp/ccyNpyk1.s:557    .text:00000000000002f8 .L0 
     /tmp/ccyNpyk1.s:575    .text:0000000000000314 .L0 
     /tmp/ccyNpyk1.s:597    .text:000000000000032c .L0 
     /tmp/ccyNpyk1.s:110    .text:000000000000008c .L23
     /tmp/ccyNpyk1.s:184    .text:00000000000000e4 .L1
     /tmp/ccyNpyk1.s:119    .text:0000000000000094 .L27
     /tmp/ccyNpyk1.s:234    .text:0000000000000120 .L6
     /tmp/ccyNpyk1.s:131    .text:000000000000009c .L7
     /tmp/ccyNpyk1.s:78     .text:0000000000000058 .L9
     /tmp/ccyNpyk1.s:147    .text:00000000000000b0 .L11
     /tmp/ccyNpyk1.s:34     .text:0000000000000020 .L2
     /tmp/ccyNpyk1.s:40     .text:0000000000000028 .L5
     /tmp/ccyNpyk1.s:69     .text:000000000000004c .L8
     /tmp/ccyNpyk1.s:161    .text:00000000000000c8 .L10
     /tmp/ccyNpyk1.s:140    .text:00000000000000a8 .L24
     /tmp/ccyNpyk1.s:198    .text:00000000000000f0 .L28
     /tmp/ccyNpyk1.s:222    .text:0000000000000110 .L29
     /tmp/ccyNpyk1.s:179    .text:00000000000000e0 .L13
     /tmp/ccyNpyk1.s:272    .text:0000000000000154 .L15
     /tmp/ccyNpyk1.s:260    .text:0000000000000140 .L17
     /tmp/ccyNpyk1.s:288    .text:000000000000016c .L19
     /tmp/ccyNpyk1.s:249    .text:0000000000000130 .L16
     /tmp/ccyNpyk1.s:302    .text:0000000000000184 .L18
     /tmp/ccyNpyk1.s:281    .text:0000000000000164 .L25
     /tmp/ccyNpyk1.s:327    .text:00000000000001a4 .L30
     /tmp/ccyNpyk1.s:346    .text:00000000000001c4 .L31
     /tmp/ccyNpyk1.s:320    .text:000000000000019c .L21
     /tmp/ccyNpyk1.s:390    .text:00000000000001f8 .L32
     /tmp/ccyNpyk1.s:399    .text:0000000000000204 .L35
     /tmp/ccyNpyk1.s:615    .text:0000000000000350 .L45
     /tmp/ccyNpyk1.s:627    .text:0000000000000358 .L46
     /tmp/ccyNpyk1.s:633    .text:0000000000000360 .L47
     /tmp/ccyNpyk1.s:638    .text:0000000000000368 .L48
     /tmp/ccyNpyk1.s:643    .text:0000000000000370 .L49
     /tmp/ccyNpyk1.s:552    .text:00000000000002f4 .L53
     /tmp/ccyNpyk1.s:571    .text:0000000000000314 .L54
     /tmp/ccyNpyk1.s:583    .text:0000000000000324 .L55
     /tmp/ccyNpyk1.s:510    .text:00000000000002b8 .L43
     /tmp/ccyNpyk1.s:498    .text:00000000000002a8 .L42
     /tmp/ccyNpyk1.s:520    .text:00000000000002c4 .L44
     /tmp/ccyNpyk1.s:563    .text:0000000000000308 .L39
     /tmp/ccyNpyk1.s:475    .text:0000000000000284 .L40
     /tmp/ccyNpyk1.s:539    .text:00000000000002e0 .L37
     /tmp/ccyNpyk1.s:1086   .debug_abbrev:0000000000000000 .Ldebug_abbrev0
GAS LISTING /tmp/ccyNpyk1.s 			page 25


     /tmp/ccyNpyk1.s:1946   .debug_str:0000000000000130 .LASF34
     /tmp/ccyNpyk1.s:1944   .debug_str:0000000000000118 .LASF35
     /tmp/ccyNpyk1.s:1978   .debug_str:000000000000031a .LASF36
     /tmp/ccyNpyk1.s:5      .text:0000000000000000 .Ltext0
     /tmp/ccyNpyk1.s:666    .text:0000000000000378 .Letext0
     /tmp/ccyNpyk1.s:1900   .debug_line:0000000000000000 .Ldebug_line0
     /tmp/ccyNpyk1.s:1950   .debug_str:000000000000020f .LASF0
     /tmp/ccyNpyk1.s:1936   .debug_str:00000000000000e8 .LASF1
     /tmp/ccyNpyk1.s:1932   .debug_str:00000000000000c8 .LASF2
     /tmp/ccyNpyk1.s:1920   .debug_str:000000000000005e .LASF4
     /tmp/ccyNpyk1.s:1934   .debug_str:00000000000000d6 .LASF3
     /tmp/ccyNpyk1.s:1906   .debug_str:0000000000000023 .LASF5
     /tmp/ccyNpyk1.s:1902   .debug_str:0000000000000000 .LASF6
     /tmp/ccyNpyk1.s:1926   .debug_str:0000000000000085 .LASF7
     /tmp/ccyNpyk1.s:1952   .debug_str:000000000000021c .LASF8
     /tmp/ccyNpyk1.s:1918   .debug_str:0000000000000050 .LASF9
     /tmp/ccyNpyk1.s:1986   .debug_str:0000000000000371 .LASF10
     /tmp/ccyNpyk1.s:1928   .debug_str:0000000000000098 .LASF11
     /tmp/ccyNpyk1.s:1974   .debug_str:0000000000000300 .LASF12
     /tmp/ccyNpyk1.s:1958   .debug_str:000000000000024b .LASF13
     /tmp/ccyNpyk1.s:1940   .debug_str:0000000000000103 .LASF14
     /tmp/ccyNpyk1.s:1922   .debug_str:0000000000000065 .LASF15
     /tmp/ccyNpyk1.s:1954   .debug_str:000000000000022c .LASF16
     /tmp/ccyNpyk1.s:1924   .debug_str:000000000000007b .LASF37
     /tmp/ccyNpyk1.s:1908   .debug_str:000000000000002a .LASF17
     /tmp/ccyNpyk1.s:1984   .debug_str:000000000000036c .LASF18
     /tmp/ccyNpyk1.s:1980   .debug_str:000000000000035e .LASF19
     /tmp/ccyNpyk1.s:1904   .debug_str:0000000000000013 .LASF38
     /tmp/ccyNpyk1.s:1960   .debug_str:000000000000025b .LASF20
     /tmp/ccyNpyk1.s:1916   .debug_str:000000000000004b .LASF21
     /tmp/ccyNpyk1.s:1976   .debug_str:0000000000000310 .LASF22
     /tmp/ccyNpyk1.s:1970   .debug_str:00000000000002d5 .LASF24
     /tmp/ccyNpyk1.s:1956   .debug_str:0000000000000242 .LASF23
     /tmp/ccyNpyk1.s:1930   .debug_str:00000000000000a7 .LASF25
     /tmp/ccyNpyk1.s:1972   .debug_str:00000000000002f6 .LASF39
     /tmp/ccyNpyk1.s:1964   .debug_str:0000000000000286 .LASF40
     /tmp/ccyNpyk1.s:1912   .debug_str:0000000000000034 .LASF41
     /tmp/ccyNpyk1.s:1962   .debug_str:0000000000000260 .LASF42
     /tmp/ccyNpyk1.s:1968   .debug_str:00000000000002ba .LASF26
     /tmp/ccyNpyk1.s:1948   .debug_str:00000000000001f4 .LASF27
     /tmp/ccyNpyk1.s:368    .text:00000000000001d4 .LFB3
     /tmp/ccyNpyk1.s:421    .text:0000000000000228 .LFE3
     /tmp/ccyNpyk1.s:1910   .debug_str:000000000000002f .LASF28
     /tmp/ccyNpyk1.s:427    .text:0000000000000228 .LFB2
     /tmp/ccyNpyk1.s:650    .text:0000000000000378 .LFE2
     /tmp/ccyNpyk1.s:1571   .debug_loc:0000000000000000 .LLST8
     /tmp/ccyNpyk1.s:1635   .debug_loc:0000000000000110 .LLST9
     /tmp/ccyNpyk1.s:500    .text:00000000000002a8 .LBB18
     /tmp/ccyNpyk1.s:533    .text:00000000000002dc .LBE18
     /tmp/ccyNpyk1.s:1942   .debug_str:000000000000010f .LASF29
     /tmp/ccyNpyk1.s:1685   .debug_loc:00000000000001d1 .LLST10
     /tmp/ccyNpyk1.s:527    .text:00000000000002d0 .LVL38
     /tmp/ccyNpyk1.s:532    .text:00000000000002dc .LVL39
     /tmp/ccyNpyk1.s:606    .text:0000000000000348 .LVL44
     /tmp/ccyNpyk1.s:10     .text:0000000000000000 .LFB1
     /tmp/ccyNpyk1.s:362    .text:00000000000001d4 .LFE1
     /tmp/ccyNpyk1.s:1696   .debug_loc:0000000000000207 .LLST0
GAS LISTING /tmp/ccyNpyk1.s 			page 26


     /tmp/ccyNpyk1.s:1938   .debug_str:00000000000000fb .LASF30
     /tmp/ccyNpyk1.s:1740   .debug_loc:00000000000002b8 .LLST1
     /tmp/ccyNpyk1.s:1882   .debug_ranges:0000000000000000 .Ldebug_ranges0
     /tmp/ccyNpyk1.s:1759   .debug_loc:0000000000000314 .LLST2
     /tmp/ccyNpyk1.s:1914   .debug_str:0000000000000042 .LASF31
     /tmp/ccyNpyk1.s:1784   .debug_loc:0000000000000385 .LLST3
     /tmp/ccyNpyk1.s:1982   .debug_str:0000000000000363 .LASF32
     /tmp/ccyNpyk1.s:1795   .debug_loc:00000000000003bb .LLST4
     /tmp/ccyNpyk1.s:1966   .debug_str:00000000000002b1 .LASF33
     /tmp/ccyNpyk1.s:1814   .debug_loc:0000000000000417 .LLST5
     /tmp/ccyNpyk1.s:236    .text:0000000000000120 .LBB8
     /tmp/ccyNpyk1.s:357    .text:00000000000001d4 .LBE8
     /tmp/ccyNpyk1.s:1834   .debug_loc:0000000000000474 .LLST6
     /tmp/ccyNpyk1.s:1853   .debug_loc:00000000000004d0 .LLST7
     /tmp/ccyNpyk1.s:430    .text:0000000000000228 .LVL34
     /tmp/ccyNpyk1.s:452    .text:0000000000000260 .LVL35
     /tmp/ccyNpyk1.s:551    .text:00000000000002f4 .LVL41
     /tmp/ccyNpyk1.s:614    .text:0000000000000350 .LVL45
     /tmp/ccyNpyk1.s:624    .text:0000000000000354 .LVL46
     /tmp/ccyNpyk1.s:626    .text:0000000000000358 .LVL47
     /tmp/ccyNpyk1.s:630    .text:000000000000035c .LVL48
     /tmp/ccyNpyk1.s:632    .text:0000000000000360 .LVL49
     /tmp/ccyNpyk1.s:635    .text:0000000000000364 .LVL50
     /tmp/ccyNpyk1.s:637    .text:0000000000000368 .LVL51
     /tmp/ccyNpyk1.s:640    .text:000000000000036c .LVL52
     /tmp/ccyNpyk1.s:579    .text:0000000000000320 .LVL42
     /tmp/ccyNpyk1.s:582    .text:0000000000000324 .LVL43
     /tmp/ccyNpyk1.s:642    .text:0000000000000370 .LVL53
     /tmp/ccyNpyk1.s:646    .text:0000000000000374 .LVL54
     /tmp/ccyNpyk1.s:499    .text:00000000000002a8 .LVL36
     /tmp/ccyNpyk1.s:505    .text:00000000000002b0 .LVL37
     /tmp/ccyNpyk1.s:538    .text:00000000000002e0 .LVL40
     /tmp/ccyNpyk1.s:14     .text:0000000000000000 .LVL0
     /tmp/ccyNpyk1.s:39     .text:0000000000000028 .LVL2
     /tmp/ccyNpyk1.s:57     .text:000000000000003c .LVL3
     /tmp/ccyNpyk1.s:109    .text:000000000000008c .LVL7
     /tmp/ccyNpyk1.s:118    .text:0000000000000094 .LVL8
     /tmp/ccyNpyk1.s:130    .text:000000000000009c .LVL10
     /tmp/ccyNpyk1.s:233    .text:0000000000000120 .LVL19
     /tmp/ccyNpyk1.s:240    .text:0000000000000124 .LVL20
     /tmp/ccyNpyk1.s:33     .text:0000000000000020 .LVL1
     /tmp/ccyNpyk1.s:94     .text:0000000000000070 .LVL5
     /tmp/ccyNpyk1.s:139    .text:00000000000000a8 .LVL11
     /tmp/ccyNpyk1.s:246    .text:000000000000012c .LVL21
     /tmp/ccyNpyk1.s:271    .text:0000000000000154 .LVL23
     /tmp/ccyNpyk1.s:278    .text:0000000000000160 .LVL24
     /tmp/ccyNpyk1.s:183    .text:00000000000000e4 .LVL15
     /tmp/ccyNpyk1.s:197    .text:00000000000000f0 .LVL16
     /tmp/ccyNpyk1.s:324    .text:00000000000001a0 .LVL29
     /tmp/ccyNpyk1.s:326    .text:00000000000001a4 .LVL30
     /tmp/ccyNpyk1.s:60     .text:0000000000000040 .LVL4
     /tmp/ccyNpyk1.s:102    .text:0000000000000080 .LVL6
     /tmp/ccyNpyk1.s:178    .text:00000000000000e0 .LVL14
     /tmp/ccyNpyk1.s:214    .text:0000000000000104 .LVL17
     /tmp/ccyNpyk1.s:221    .text:0000000000000110 .LVL18
     /tmp/ccyNpyk1.s:143    .text:00000000000000ac .LVL12
     /tmp/ccyNpyk1.s:146    .text:00000000000000b0 .LVL13
GAS LISTING /tmp/ccyNpyk1.s 			page 27


     /tmp/ccyNpyk1.s:264    .text:0000000000000148 .LVL22
     /tmp/ccyNpyk1.s:280    .text:0000000000000164 .LVL25
     /tmp/ccyNpyk1.s:319    .text:000000000000019c .LVL28
     /tmp/ccyNpyk1.s:338    .text:00000000000001b8 .LVL31
     /tmp/ccyNpyk1.s:345    .text:00000000000001c4 .LVL32
     /tmp/ccyNpyk1.s:284    .text:0000000000000168 .LVL26
     /tmp/ccyNpyk1.s:287    .text:000000000000016c .LVL27
     /tmp/ccyNpyk1.s:670    .debug_info:0000000000000000 .Ldebug_info0
     /tmp/ccyNpyk1.s:36     .text:0000000000000020 .LBB2
     /tmp/ccyNpyk1.s:114    .text:000000000000008c .LBE2
     /tmp/ccyNpyk1.s:120    .text:0000000000000094 .LBB14
     /tmp/ccyNpyk1.s:188    .text:00000000000000e4 .LBE14
     /tmp/ccyNpyk1.s:200    .text:00000000000000f0 .LBB15
     /tmp/ccyNpyk1.s:360    .text:00000000000001d4 .LBE15
     /tmp/ccyNpyk1.s:52     .text:0000000000000038 .LBB5
     /tmp/ccyNpyk1.s:111    .text:000000000000008c .LBE5
     /tmp/ccyNpyk1.s:134    .text:000000000000009c .LBB6
     /tmp/ccyNpyk1.s:185    .text:00000000000000e4 .LBE6
     /tmp/ccyNpyk1.s:203    .text:00000000000000f0 .LBB7
     /tmp/ccyNpyk1.s:235    .text:0000000000000120 .LBE7

UNDEFINED SYMBOLS
HEAP_START_ADDR
HEAP_END_ADDR
