GAS LISTING /tmp/ccG4DNEq.s 			page 1


   1              		.file	"mySemaphore.cpp"
   2              		.option pic
   3              		.option norelax
   4              		.text
   5              	.Ltext0:
   6              		.align	2
   7              		.globl	_ZN11MySemaphore4waitEv
   9              	_ZN11MySemaphore4waitEv:
  10              	.LFB20:
  11              		.file 1 "src/mySemaphore.cpp"
   1:src/mySemaphore.cpp **** #include "../h/mySemaphore.hpp"
   2:src/mySemaphore.cpp **** #include "../h/syscall_c.hpp"
   3:src/mySemaphore.cpp **** 
   4:src/mySemaphore.cpp **** int MySemaphore::wait() {
  12              		.loc 1 4 25
  13              		.cfi_startproc
  14              	.LVL0:
   5:src/mySemaphore.cpp ****     if(--this->value < 0) {
  15              		.loc 1 5 5
  16              		.loc 1 5 16 is_stmt 0
  17 0000 83270500 		lw	a5,0(a0)
  18              		.loc 1 5 8
  19 0004 9B87F7FF 		addiw	a5,a5,-1
  20              		.loc 1 5 22
  21 0008 2320F500 		sw	a5,0(a0)
  22              		.loc 1 5 5
  23 000c 13970702 		slli	a4,a5,32
  24 0010 63460700 		bltz	a4,.L10
   6:src/mySemaphore.cpp ****         this->blocked.addLast(TCB::running);
   7:src/mySemaphore.cpp ****         thread_dispatch(); //Ovde treba da se promeni kontekst
   8:src/mySemaphore.cpp ****         return 0;
   9:src/mySemaphore.cpp ****     }
  10:src/mySemaphore.cpp ****     return 1;
  25              		.loc 1 10 12
  26 0014 13051000 		li	a0,1
  27              	.LVL1:
  11:src/mySemaphore.cpp **** }
  28              		.loc 1 11 1
  29 0018 67800000 		ret
  30              	.LVL2:
  31              	.L10:
   4:src/mySemaphore.cpp ****     if(--this->value < 0) {
  32              		.loc 1 4 25
  33 001c 130101FE 		addi	sp,sp,-32
  34              		.cfi_def_cfa_offset 32
  35 0020 233C1100 		sd	ra,24(sp)
  36 0024 23388100 		sd	s0,16(sp)
  37 0028 23349100 		sd	s1,8(sp)
  38 002c 23302101 		sd	s2,0(sp)
  39              		.cfi_offset 1, -8
  40              		.cfi_offset 8, -16
  41              		.cfi_offset 9, -24
  42              		.cfi_offset 18, -32
  43 0030 13040102 		addi	s0,sp,32
  44              		.cfi_def_cfa 8, 0
  45 0034 93040500 		mv	s1,a0
   6:src/mySemaphore.cpp ****         this->blocked.addLast(TCB::running);
GAS LISTING /tmp/ccG4DNEq.s 			page 2


  46              		.loc 1 6 9 is_stmt 1
   6:src/mySemaphore.cpp ****         this->blocked.addLast(TCB::running);
  47              		.loc 1 6 30 is_stmt 0
  48 0038 97070000 		la	a5,_ZN3TCB7runningE
  48      83B70700 
  49 0040 03B90700 		ld	s2,0(a5)
  50              	.LVL3:
  51              	.LBB14:
  52              	.LBB15:
  53              		.file 2 "src/../h/list.hpp"
   1:src/../h/list.hpp **** //
   2:src/../h/list.hpp **** // Created by marko on 20.4.22..
   3:src/../h/list.hpp **** //
   4:src/../h/list.hpp **** 
   5:src/../h/list.hpp **** #ifndef OS1_VEZBE07_RISCV_CONTEXT_SWITCH_2_INTERRUPT_LIST_HPP
   6:src/../h/list.hpp **** #define OS1_VEZBE07_RISCV_CONTEXT_SWITCH_2_INTERRUPT_LIST_HPP
   7:src/../h/list.hpp **** 
   8:src/../h/list.hpp **** template<typename T>
   9:src/../h/list.hpp **** class List
  10:src/../h/list.hpp **** {
  11:src/../h/list.hpp **** private:
  12:src/../h/list.hpp ****     struct Elem
  13:src/../h/list.hpp ****     {
  14:src/../h/list.hpp ****         T *data;
  15:src/../h/list.hpp ****         Elem *next;
  16:src/../h/list.hpp **** 
  17:src/../h/list.hpp ****         Elem(T *data, Elem *next) : data(data), next(next) {}
  18:src/../h/list.hpp ****     };
  19:src/../h/list.hpp **** 
  20:src/../h/list.hpp ****     Elem *head, *tail;
  21:src/../h/list.hpp **** 
  22:src/../h/list.hpp **** public:
  23:src/../h/list.hpp ****     List() : head(0), tail(0) {}
  24:src/../h/list.hpp **** 
  25:src/../h/list.hpp ****     List(const List<T> &) = delete;
  26:src/../h/list.hpp **** 
  27:src/../h/list.hpp ****     List<T> &operator=(const List<T> &) = delete;
  28:src/../h/list.hpp **** 
  29:src/../h/list.hpp ****     void addFirst(T *data)
  30:src/../h/list.hpp ****     {
  31:src/../h/list.hpp ****         Elem *elem = new Elem(data, head);
  32:src/../h/list.hpp ****         head = elem;
  33:src/../h/list.hpp ****         if (!tail) { tail = head; }
  34:src/../h/list.hpp ****     }
  35:src/../h/list.hpp **** 
  36:src/../h/list.hpp ****     void addLast(T *data)
  37:src/../h/list.hpp ****     {
  38:src/../h/list.hpp ****         Elem *elem = new Elem(data, 0);
  54              		.loc 2 38 22
  55 0044 13050001 		li	a0,16
  56              	.LVL4:
  57 0048 97000000 		call	_Znwm@plt
  57      E7800000 
  58              	.LVL5:
  59              	.LBB16:
  60              	.LBB17:
  17:src/../h/list.hpp ****     };
GAS LISTING /tmp/ccG4DNEq.s 			page 3


  61              		.loc 2 17 58
  62 0050 23302501 		sd	s2,0(a0)
  63 0054 23340500 		sd	zero,8(a0)
  64              	.LVL6:
  65              	.LBE17:
  66              	.LBE16:
  39:src/../h/list.hpp ****         if (tail)
  67              		.loc 2 39 13
  68 0058 83B70401 		ld	a5,16(s1)
  69              		.loc 2 39 9
  70 005c 63880702 		beqz	a5,.L3
  40:src/../h/list.hpp ****         {
  41:src/../h/list.hpp ****             tail->next = elem;
  71              		.loc 2 41 13
  72 0060 23B4A700 		sd	a0,8(a5)
  42:src/../h/list.hpp ****             tail = elem;
  73              		.loc 2 42 13
  74 0064 23B8A400 		sd	a0,16(s1)
  75              	.L4:
  76              	.LVL7:
  77              	.LBE15:
  78              	.LBE14:
   7:src/mySemaphore.cpp ****         return 0;
  79              		.loc 1 7 9 is_stmt 1
   7:src/mySemaphore.cpp ****         return 0;
  80              		.loc 1 7 24 is_stmt 0
  81 0068 97000000 		call	_Z15thread_dispatchv@plt
  81      E7800000 
  82              	.LVL8:
   8:src/mySemaphore.cpp ****     }
  83              		.loc 1 8 9 is_stmt 1
   8:src/mySemaphore.cpp ****     }
  84              		.loc 1 8 16 is_stmt 0
  85 0070 13050000 		li	a0,0
  86              		.loc 1 11 1
  87 0074 83308101 		ld	ra,24(sp)
  88              		.cfi_remember_state
  89              		.cfi_restore 1
  90 0078 03340101 		ld	s0,16(sp)
  91              		.cfi_restore 8
  92              		.cfi_def_cfa 2, 32
  93 007c 83348100 		ld	s1,8(sp)
  94              		.cfi_restore 9
  95              	.LVL9:
  96 0080 03390100 		ld	s2,0(sp)
  97              		.cfi_restore 18
  98 0084 13010102 		addi	sp,sp,32
  99              		.cfi_def_cfa_offset 0
 100 0088 67800000 		jr	ra
 101              	.LVL10:
 102              	.L3:
 103              		.cfi_restore_state
 104              	.LBB19:
 105              	.LBB18:
  43:src/../h/list.hpp ****         } else
  44:src/../h/list.hpp ****         {
  45:src/../h/list.hpp ****             head = tail = elem;
GAS LISTING /tmp/ccG4DNEq.s 			page 4


 106              		.loc 2 45 13
 107 008c 23B8A400 		sd	a0,16(s1)
 108 0090 23B4A400 		sd	a0,8(s1)
 109 0094 6FF05FFD 		j	.L4
 110              	.LBE18:
 111              	.LBE19:
 112              		.cfi_endproc
 113              	.LFE20:
 115              		.align	2
 116              		.globl	_ZN11MySemaphore6signalEv
 118              	_ZN11MySemaphore6signalEv:
 119              	.LFB21:
  12:src/mySemaphore.cpp **** 
  13:src/mySemaphore.cpp **** int MySemaphore::signal() {
 120              		.loc 1 13 27 is_stmt 1
 121              		.cfi_startproc
 122              	.LVL11:
  14:src/mySemaphore.cpp ****     if(++this->value <= 0) {
 123              		.loc 1 14 5
 124              	.LBB20:
 125              		.loc 1 14 16 is_stmt 0
 126 0098 83270500 		lw	a5,0(a0)
 127              		.loc 1 14 8
 128 009c 9B871700 		addiw	a5,a5,1
 129 00a0 1B870700 		sext.w	a4,a5
 130              		.loc 1 14 22
 131 00a4 2320F500 		sw	a5,0(a0)
 132              		.loc 1 14 5
 133 00a8 6356E000 		blez	a4,.L21
 134              	.LBE20:
  15:src/mySemaphore.cpp ****         TCB *tcb = this->blocked.removeFirst();
  16:src/mySemaphore.cpp ****         Scheduler::put(tcb);
  17:src/mySemaphore.cpp ****         return 0;
  18:src/mySemaphore.cpp ****     }
  19:src/mySemaphore.cpp ****     return 1;
 135              		.loc 1 19 12
 136 00ac 13051000 		li	a0,1
 137              	.LVL12:
  20:src/mySemaphore.cpp **** }...
 138              		.loc 1 20 1
 139 00b0 67800000 		ret
 140              	.LVL13:
 141              	.L21:
  13:src/mySemaphore.cpp **** int MySemaphore::signal() {
 142              		.loc 1 13 27
 143 00b4 130101FE 		addi	sp,sp,-32
 144              		.cfi_def_cfa_offset 32
 145 00b8 233C1100 		sd	ra,24(sp)
 146 00bc 23388100 		sd	s0,16(sp)
 147 00c0 23349100 		sd	s1,8(sp)
 148              		.cfi_offset 1, -8
 149              		.cfi_offset 8, -16
 150              		.cfi_offset 9, -24
 151 00c4 13040102 		addi	s0,sp,32
 152              		.cfi_def_cfa 8, 0
 153              	.LBB27:
 154              	.LBB21:
GAS LISTING /tmp/ccG4DNEq.s 			page 5


  15:src/mySemaphore.cpp ****         TCB *tcb = this->blocked.removeFirst();
 155              		.loc 1 15 9 is_stmt 1
 156              	.LVL14:
 157              	.LBB22:
 158              	.LBB23:
  46:src/../h/list.hpp ****         }
  47:src/../h/list.hpp ****     }
  48:src/../h/list.hpp **** 
  49:src/../h/list.hpp ****     T *removeFirst()
  50:src/../h/list.hpp ****     {
  51:src/../h/list.hpp ****         if (!head) { return 0; }
 159              		.loc 2 51 14 is_stmt 0
 160 00c8 83378500 		ld	a5,8(a0)
 161              		.loc 2 51 9
 162 00cc 63860704 		beqz	a5,.L16
 163              	.LVL15:
  52:src/../h/list.hpp **** 
  53:src/../h/list.hpp ****         Elem *elem = head;
  54:src/../h/list.hpp ****         head = head->next;
 164              		.loc 2 54 22
 165 00d0 03B78700 		ld	a4,8(a5)
 166              		.loc 2 54 9
 167 00d4 2334E500 		sd	a4,8(a0)
  55:src/../h/list.hpp ****         if (!head) { tail = 0; }
 168              		.loc 2 55 9
 169 00d8 630C0702 		beqz	a4,.L22
 170              	.L14:
  56:src/../h/list.hpp **** 
  57:src/../h/list.hpp ****         T *ret = elem->data;
 171              		.loc 2 57 12
 172 00dc 83B40700 		ld	s1,0(a5)
 173              	.LVL16:
  58:src/../h/list.hpp ****         delete elem;
 174              		.loc 2 58 9
 175 00e0 13850700 		mv	a0,a5
 176              	.LVL17:
 177 00e4 97000000 		call	_ZdlPv@plt
 177      E7800000 
 178              	.LVL18:
 179              	.L13:
 180              	.LBE23:
 181              	.LBE22:
  16:src/mySemaphore.cpp ****         Scheduler::put(tcb);
 182              		.loc 1 16 9 is_stmt 1
  16:src/mySemaphore.cpp ****         Scheduler::put(tcb);
 183              		.loc 1 16 23 is_stmt 0
 184 00ec 13850400 		mv	a0,s1
 185 00f0 97000000 		call	_ZN9Scheduler3putEP3TCB@plt
 185      E7800000 
 186              	.LVL19:
  17:src/mySemaphore.cpp ****         return 0;
 187              		.loc 1 17 9 is_stmt 1
  17:src/mySemaphore.cpp ****         return 0;
 188              		.loc 1 17 16 is_stmt 0
 189 00f8 13050000 		li	a0,0
 190              	.LBE21:
 191              	.LBE27:
GAS LISTING /tmp/ccG4DNEq.s 			page 6


 192              		.loc 1 20 1
 193 00fc 83308101 		ld	ra,24(sp)
 194              		.cfi_remember_state
 195              		.cfi_restore 1
 196 0100 03340101 		ld	s0,16(sp)
 197              		.cfi_restore 8
 198              		.cfi_def_cfa 2, 32
 199 0104 83348100 		ld	s1,8(sp)
 200              		.cfi_restore 9
 201              	.LVL20:
 202 0108 13010102 		addi	sp,sp,32
 203              		.cfi_def_cfa_offset 0
 204 010c 67800000 		jr	ra
 205              	.LVL21:
 206              	.L22:
 207              		.cfi_restore_state
 208              	.LBB28:
 209              	.LBB26:
 210              	.LBB25:
 211              	.LBB24:
  55:src/../h/list.hpp **** 
 212              		.loc 2 55 22
 213 0110 23380500 		sd	zero,16(a0)
 214 0114 6FF09FFC 		j	.L14
 215              	.LVL22:
 216              	.L16:
  51:src/../h/list.hpp **** 
 217              		.loc 2 51 29
 218 0118 93840700 		mv	s1,a5
 219 011c 6FF01FFD 		j	.L13
 220              	.LBE24:
 221              	.LBE25:
 222              	.LBE26:
 223              	.LBE28:
 224              		.cfi_endproc
 225              	.LFE21:
 227              	.Letext0:
 228              		.file 3 "src/../h/../lib/hw.h"
 229              		.file 4 "src/../h/scheduler.hpp"
 230              		.file 5 "src/../h/tcb.hpp"
 231              		.file 6 "src/../h/mySemaphore.hpp"
 232              		.file 7 "src/../h/syscall_c.hpp"
GAS LISTING /tmp/ccG4DNEq.s 			page 7

