GAS LISTING /tmp/ccnyWQZZ.s 			page 1


   1              		.file	"mySemaphore.cpp"
   2              		.option pic
   3              		.option norelax
   4              		.text
   5              	.Ltext0:
   6              		.align	2
   7              		.globl	_ZN11MySemaphore4waitEv
   9              	_ZN11MySemaphore4waitEv:
  10              	.LFB22:
  11              		.file 1 "src/mySemaphore.cpp"
   1:src/mySemaphore.cpp **** #include "../h/mySemaphore.hpp"
   2:src/mySemaphore.cpp **** #include "../h/syscall_c.hpp"
   3:src/mySemaphore.cpp **** 
   4:src/mySemaphore.cpp **** int MySemaphore::wait() {
  12              		.loc 1 4 25
  13              		.cfi_startproc
  14              	.LVL0:
   5:src/mySemaphore.cpp ****     if(this->closed) {
  15              		.loc 1 5 5
  16              		.loc 1 5 14 is_stmt 0
  17 0000 83470500 		lbu	a5,0(a0)
  18              		.loc 1 5 5
  19 0004 639C070A 		bnez	a5,.L5
   4:src/mySemaphore.cpp ****     if(this->closed) {
  20              		.loc 1 4 25
  21 0008 130101FE 		addi	sp,sp,-32
  22              		.cfi_def_cfa_offset 32
  23 000c 233C1100 		sd	ra,24(sp)
  24 0010 23388100 		sd	s0,16(sp)
  25 0014 23349100 		sd	s1,8(sp)
  26 0018 23302101 		sd	s2,0(sp)
  27              		.cfi_offset 1, -8
  28              		.cfi_offset 8, -16
  29              		.cfi_offset 9, -24
  30              		.cfi_offset 18, -32
  31 001c 13040102 		addi	s0,sp,32
  32              		.cfi_def_cfa 8, 0
  33 0020 93040500 		mv	s1,a0
   6:src/mySemaphore.cpp ****         return -1;
   7:src/mySemaphore.cpp ****     }
   8:src/mySemaphore.cpp **** 
   9:src/mySemaphore.cpp ****     if((int)--this->value < 0) {
  34              		.loc 1 9 5 is_stmt 1
  35              		.loc 1 9 21 is_stmt 0
  36 0024 83274500 		lw	a5,4(a0)
  37              		.loc 1 9 13
  38 0028 9B87F7FF 		addiw	a5,a5,-1
  39              		.loc 1 9 27
  40 002c 2322F500 		sw	a5,4(a0)
  41              		.loc 1 9 5
  42 0030 13970702 		slli	a4,a5,32
  43 0034 63400702 		bltz	a4,.L12
  10:src/mySemaphore.cpp ****         this->blocked.addLast(TCB::running);
  11:src/mySemaphore.cpp ****         TCB::running->setBlocked(true);
  12:src/mySemaphore.cpp ****         thread_dispatch();
  13:src/mySemaphore.cpp **** 
  14:src/mySemaphore.cpp ****         //Provera da li smo se vratili jer je bio signal() ili je bio close()
GAS LISTING /tmp/ccnyWQZZ.s 			page 2


  15:src/mySemaphore.cpp ****         if(this->closed) {
  16:src/mySemaphore.cpp ****             return -1;
  17:src/mySemaphore.cpp ****         }
  18:src/mySemaphore.cpp ****     }
  19:src/mySemaphore.cpp ****     return 0;
  44              		.loc 1 19 12
  45 0038 13050000 		li	a0,0
  46              	.LVL1:
  47              	.L2:
  20:src/mySemaphore.cpp **** }
  48              		.loc 1 20 1
  49 003c 83308101 		ld	ra,24(sp)
  50              		.cfi_remember_state
  51              		.cfi_restore 1
  52 0040 03340101 		ld	s0,16(sp)
  53              		.cfi_restore 8
  54              		.cfi_def_cfa 2, 32
  55 0044 83348100 		ld	s1,8(sp)
  56              		.cfi_restore 9
  57              	.LVL2:
  58 0048 03390100 		ld	s2,0(sp)
  59              		.cfi_restore 18
  60 004c 13010102 		addi	sp,sp,32
  61              		.cfi_def_cfa_offset 0
  62 0050 67800000 		jr	ra
  63              	.LVL3:
  64              	.L12:
  65              		.cfi_restore_state
  10:src/mySemaphore.cpp ****         this->blocked.addLast(TCB::running);
  66              		.loc 1 10 9 is_stmt 1
  10:src/mySemaphore.cpp ****         this->blocked.addLast(TCB::running);
  67              		.loc 1 10 30 is_stmt 0
  68 0054 97070000 		la	a5,_ZN3TCB7runningE
  68      83B70700 
  69 005c 03B90700 		ld	s2,0(a5)
  70              	.LVL4:
  71              	.LBB35:
  72              	.LBB36:
  73              		.file 2 "src/../h/list.hpp"
   1:src/../h/list.hpp **** //
   2:src/../h/list.hpp **** // Created by marko on 20.4.22..
   3:src/../h/list.hpp **** //
   4:src/../h/list.hpp **** 
   5:src/../h/list.hpp **** #ifndef OS1_VEZBE07_RISCV_CONTEXT_SWITCH_2_INTERRUPT_LIST_HPP
   6:src/../h/list.hpp **** #define OS1_VEZBE07_RISCV_CONTEXT_SWITCH_2_INTERRUPT_LIST_HPP
   7:src/../h/list.hpp **** 
   8:src/../h/list.hpp **** template<typename T>
   9:src/../h/list.hpp **** class List
  10:src/../h/list.hpp **** {
  11:src/../h/list.hpp **** private:
  12:src/../h/list.hpp ****     struct Elem
  13:src/../h/list.hpp ****     {
  14:src/../h/list.hpp ****         T *data;
  15:src/../h/list.hpp ****         Elem *next;
  16:src/../h/list.hpp **** 
  17:src/../h/list.hpp ****         Elem(T *data, Elem *next) : data(data), next(next) {}
  18:src/../h/list.hpp ****     };
GAS LISTING /tmp/ccnyWQZZ.s 			page 3


  19:src/../h/list.hpp **** 
  20:src/../h/list.hpp ****     Elem *head, *tail;
  21:src/../h/list.hpp **** 
  22:src/../h/list.hpp **** public:
  23:src/../h/list.hpp ****     List() : head(0), tail(0) {}
  24:src/../h/list.hpp **** 
  25:src/../h/list.hpp ****     List(const List<T> &) = delete;
  26:src/../h/list.hpp **** 
  27:src/../h/list.hpp ****     List<T> &operator=(const List<T> &) = delete;
  28:src/../h/list.hpp **** 
  29:src/../h/list.hpp ****     void addFirst(T *data)
  30:src/../h/list.hpp ****     {
  31:src/../h/list.hpp ****         Elem *elem = new Elem(data, head);
  32:src/../h/list.hpp ****         head = elem;
  33:src/../h/list.hpp ****         if (!tail) { tail = head; }
  34:src/../h/list.hpp ****     }
  35:src/../h/list.hpp **** 
  36:src/../h/list.hpp ****     void addLast(T *data)
  37:src/../h/list.hpp ****     {
  38:src/../h/list.hpp ****         Elem *elem = new Elem(data, 0);
  74              		.loc 2 38 22
  75 0060 13050001 		li	a0,16
  76 0064 97000000 		call	_Znwm@plt
  76      E7800000 
  77              	.LVL5:
  78              	.LBB37:
  79              	.LBB38:
  17:src/../h/list.hpp ****     };
  80              		.loc 2 17 58
  81 006c 23302501 		sd	s2,0(a0)
  82 0070 23340500 		sd	zero,8(a0)
  83              	.LVL6:
  84              	.LBE38:
  85              	.LBE37:
  39:src/../h/list.hpp ****         if (tail)
  86              		.loc 2 39 13
  87 0074 83B70401 		ld	a5,16(s1)
  88              		.loc 2 39 9
  89 0078 638C0702 		beqz	a5,.L3
  40:src/../h/list.hpp ****         {
  41:src/../h/list.hpp ****             tail->next = elem;
  90              		.loc 2 41 13
  91 007c 23B4A700 		sd	a0,8(a5)
  42:src/../h/list.hpp ****             tail = elem;
  92              		.loc 2 42 13
  93 0080 23B8A400 		sd	a0,16(s1)
  94              	.L4:
  95              	.LVL7:
  96              	.LBE36:
  97              	.LBE35:
  11:src/mySemaphore.cpp ****         thread_dispatch();
  98              		.loc 1 11 9 is_stmt 1
  11:src/mySemaphore.cpp ****         thread_dispatch();
  99              		.loc 1 11 33 is_stmt 0
 100 0084 97070000 		la	a5,_ZN3TCB7runningE
 100      83B70700 
 101 008c 83B70700 		ld	a5,0(a5)
GAS LISTING /tmp/ccnyWQZZ.s 			page 4


 102              	.LVL8:
 103              	.LBB40:
 104              	.LBB41:
 105              		.file 3 "src/../h/tcb.hpp"
   1:src/../h/tcb.hpp **** //
   2:src/../h/tcb.hpp **** // Created by marko on 20.4.22..
   3:src/../h/tcb.hpp **** //
   4:src/../h/tcb.hpp **** 
   5:src/../h/tcb.hpp **** #ifndef OS1_VEZBE07_RISCV_CONTEXT_SWITCH_2_INTERRUPT_TCB_HPP
   6:src/../h/tcb.hpp **** #define OS1_VEZBE07_RISCV_CONTEXT_SWITCH_2_INTERRUPT_TCB_HPP
   7:src/../h/tcb.hpp **** 
   8:src/../h/tcb.hpp **** #include "../lib/hw.h"
   9:src/../h/tcb.hpp **** #include "scheduler.hpp"
  10:src/../h/tcb.hpp **** 
  11:src/../h/tcb.hpp **** // Thread Control Block
  12:src/../h/tcb.hpp **** class TCB
  13:src/../h/tcb.hpp **** {
  14:src/../h/tcb.hpp **** public:
  15:src/../h/tcb.hpp ****     ~TCB() { delete[] stack; }
  16:src/../h/tcb.hpp **** 
  17:src/../h/tcb.hpp ****     bool isFinished() const { return finished; }
  18:src/../h/tcb.hpp **** 
  19:src/../h/tcb.hpp ****     void setFinished(bool value) { finished = value; }
  20:src/../h/tcb.hpp **** 
  21:src/../h/tcb.hpp ****     bool isBlocked() const { return this->blocked; }
  22:src/../h/tcb.hpp **** 
  23:src/../h/tcb.hpp ****     void setBlocked(bool value) { this->blocked = value; }
 106              		.loc 3 23 35 is_stmt 1
 107              		.loc 3 23 49 is_stmt 0
 108 0090 13071000 		li	a4,1
 109 0094 A380E702 		sb	a4,33(a5)
 110              	.LVL9:
 111              	.LBE41:
 112              	.LBE40:
  12:src/mySemaphore.cpp **** 
 113              		.loc 1 12 9 is_stmt 1
  12:src/mySemaphore.cpp **** 
 114              		.loc 1 12 24 is_stmt 0
 115 0098 97000000 		call	_Z15thread_dispatchv@plt
 115      E7800000 
 116              	.LVL10:
  15:src/mySemaphore.cpp ****             return -1;
 117              		.loc 1 15 9 is_stmt 1
  15:src/mySemaphore.cpp ****             return -1;
 118              		.loc 1 15 18 is_stmt 0
 119 00a0 83C70400 		lbu	a5,0(s1)
  15:src/mySemaphore.cpp ****             return -1;
 120              		.loc 1 15 9
 121 00a4 63900702 		bnez	a5,.L7
  19:src/mySemaphore.cpp **** }
 122              		.loc 1 19 12
 123 00a8 13050000 		li	a0,0
 124 00ac 6FF01FF9 		j	.L2
 125              	.LVL11:
 126              	.L3:
 127              	.LBB42:
 128              	.LBB39:
GAS LISTING /tmp/ccnyWQZZ.s 			page 5


  43:src/../h/list.hpp ****         } else
  44:src/../h/list.hpp ****         {
  45:src/../h/list.hpp ****             head = tail = elem;
 129              		.loc 2 45 13
 130 00b0 23B8A400 		sd	a0,16(s1)
 131 00b4 23B4A400 		sd	a0,8(s1)
 132 00b8 6FF0DFFC 		j	.L4
 133              	.LVL12:
 134              	.L5:
 135              		.cfi_def_cfa_register 2
 136              		.cfi_restore 1
 137              		.cfi_restore 8
 138              		.cfi_restore 9
 139              		.cfi_restore 18
 140              	.LBE39:
 141              	.LBE42:
   6:src/mySemaphore.cpp ****     }
 142              		.loc 1 6 17
 143 00bc 1305F0FF 		li	a0,-1
 144              	.LVL13:
 145              		.loc 1 20 1
 146 00c0 67800000 		ret
 147              	.LVL14:
 148              	.L7:
 149              		.cfi_def_cfa_register 8
 150              		.cfi_offset 1, -8
 151              		.cfi_offset 8, -16
 152              		.cfi_offset 9, -24
 153              		.cfi_offset 18, -32
  16:src/mySemaphore.cpp ****         }
 154              		.loc 1 16 21
 155 00c4 1305F0FF 		li	a0,-1
 156 00c8 6FF05FF7 		j	.L2
 157              		.cfi_endproc
 158              	.LFE22:
 160              		.align	2
 161              		.globl	_ZN11MySemaphore6signalEv
 163              	_ZN11MySemaphore6signalEv:
 164              	.LFB23:
  21:src/mySemaphore.cpp **** 
  22:src/mySemaphore.cpp **** int MySemaphore::signal() {
 165              		.loc 1 22 27 is_stmt 1
 166              		.cfi_startproc
 167              	.LVL15:
  23:src/mySemaphore.cpp ****     if(this->closed) {
 168              		.loc 1 23 5
 169              		.loc 1 23 14 is_stmt 0
 170 00cc 83470500 		lbu	a5,0(a0)
 171              		.loc 1 23 5
 172 00d0 63980708 		bnez	a5,.L17
 173 00d4 13070500 		mv	a4,a0
  24:src/mySemaphore.cpp ****         return -1;
  25:src/mySemaphore.cpp ****     }
  26:src/mySemaphore.cpp ****     if((int)++this->value <= 0) {
 174              		.loc 1 26 5 is_stmt 1
 175              	.LBB43:
 176              		.loc 1 26 21 is_stmt 0
GAS LISTING /tmp/ccnyWQZZ.s 			page 6


 177 00d8 83274500 		lw	a5,4(a0)
 178              		.loc 1 26 13
 179 00dc 9B871700 		addiw	a5,a5,1
 180              		.loc 1 26 27
 181 00e0 2322F500 		sw	a5,4(a0)
 182              		.loc 1 26 8
 183 00e4 9B870700 		sext.w	a5,a5
 184              		.loc 1 26 5
 185 00e8 6356F000 		blez	a5,.L24
 186              	.LBE43:
  27:src/mySemaphore.cpp ****         TCB* tcb;
  28:src/mySemaphore.cpp ****         tcb = this->blocked.removeFirst();
  29:src/mySemaphore.cpp ****         tcb->setBlocked(false);
  30:src/mySemaphore.cpp ****         Scheduler::put(tcb);
  31:src/mySemaphore.cpp ****     }
  32:src/mySemaphore.cpp ****     return 0;
 187              		.loc 1 32 12
 188 00ec 13050000 		li	a0,0
 189              	.LVL16:
  33:src/mySemaphore.cpp **** }
 190              		.loc 1 33 1
 191 00f0 67800000 		ret
 192              	.LVL17:
 193              	.L24:
  22:src/mySemaphore.cpp ****     if(this->closed) {
 194              		.loc 1 22 27
 195 00f4 130101FE 		addi	sp,sp,-32
 196              		.cfi_def_cfa_offset 32
 197 00f8 233C1100 		sd	ra,24(sp)
 198 00fc 23388100 		sd	s0,16(sp)
 199 0100 23349100 		sd	s1,8(sp)
 200              		.cfi_offset 1, -8
 201              		.cfi_offset 8, -16
 202              		.cfi_offset 9, -24
 203 0104 13040102 		addi	s0,sp,32
 204              		.cfi_def_cfa 8, 0
 205              	.LBB52:
 206              	.LBB44:
  27:src/mySemaphore.cpp ****         TCB* tcb;
 207              		.loc 1 27 9 is_stmt 1
  28:src/mySemaphore.cpp ****         tcb->setBlocked(false);
 208              		.loc 1 28 9
 209              	.LVL18:
 210              	.LBB45:
 211              	.LBB46:
  46:src/../h/list.hpp ****         }
  47:src/../h/list.hpp ****     }
  48:src/../h/list.hpp **** 
  49:src/../h/list.hpp ****     T *removeFirst()
  50:src/../h/list.hpp ****     {
  51:src/../h/list.hpp ****         if (!head) { return 0; }
 212              		.loc 2 51 14 is_stmt 0
 213 0108 03358500 		ld	a0,8(a0)
 214              	.LVL19:
 215              		.loc 2 51 9
 216 010c 63060504 		beqz	a0,.L19
 217              	.LVL20:
GAS LISTING /tmp/ccnyWQZZ.s 			page 7


  52:src/../h/list.hpp **** 
  53:src/../h/list.hpp ****         Elem *elem = head;
  54:src/../h/list.hpp ****         head = head->next;
 218              		.loc 2 54 22
 219 0110 83378500 		ld	a5,8(a0)
 220              		.loc 2 54 9
 221 0114 2334F700 		sd	a5,8(a4)
  55:src/../h/list.hpp ****         if (!head) { tail = 0; }
 222              		.loc 2 55 9
 223 0118 638C0702 		beqz	a5,.L25
 224              	.L16:
  56:src/../h/list.hpp **** 
  57:src/../h/list.hpp ****         T *ret = elem->data;
 225              		.loc 2 57 12
 226 011c 83340500 		ld	s1,0(a0)
 227              	.LVL21:
  58:src/../h/list.hpp ****         delete elem;
 228              		.loc 2 58 9
 229 0120 97000000 		call	_ZdlPv@plt
 229      E7800000 
 230              	.LVL22:
 231              	.L15:
 232              	.LBE46:
 233              	.LBE45:
  29:src/mySemaphore.cpp ****         Scheduler::put(tcb);
 234              		.loc 1 29 9 is_stmt 1
 235              	.LBB48:
 236              	.LBB49:
 237              		.loc 3 23 35
 238              		.loc 3 23 49 is_stmt 0
 239 0128 A3800402 		sb	zero,33(s1)
 240              	.LVL23:
 241              	.LBE49:
 242              	.LBE48:
  30:src/mySemaphore.cpp ****     }
 243              		.loc 1 30 9 is_stmt 1
  30:src/mySemaphore.cpp ****     }
 244              		.loc 1 30 23 is_stmt 0
 245 012c 13850400 		mv	a0,s1
 246 0130 97000000 		call	_ZN9Scheduler3putEP3TCB@plt
 246      E7800000 
 247              	.LVL24:
 248              	.LBE44:
 249              	.LBE52:
  32:src/mySemaphore.cpp **** }
 250              		.loc 1 32 12
 251 0138 13050000 		li	a0,0
 252              		.loc 1 33 1
 253 013c 83308101 		ld	ra,24(sp)
 254              		.cfi_remember_state
 255              		.cfi_restore 1
 256 0140 03340101 		ld	s0,16(sp)
 257              		.cfi_restore 8
 258              		.cfi_def_cfa 2, 32
 259 0144 83348100 		ld	s1,8(sp)
 260              		.cfi_restore 9
 261              	.LVL25:
GAS LISTING /tmp/ccnyWQZZ.s 			page 8


 262 0148 13010102 		addi	sp,sp,32
 263              		.cfi_def_cfa_offset 0
 264 014c 67800000 		jr	ra
 265              	.LVL26:
 266              	.L25:
 267              		.cfi_restore_state
 268              	.LBB53:
 269              	.LBB51:
 270              	.LBB50:
 271              	.LBB47:
  55:src/../h/list.hpp **** 
 272              		.loc 2 55 22
 273 0150 23380700 		sd	zero,16(a4)
 274 0154 6FF09FFC 		j	.L16
 275              	.LVL27:
 276              	.L19:
  51:src/../h/list.hpp **** 
 277              		.loc 2 51 29
 278 0158 93040500 		mv	s1,a0
 279 015c 6FF0DFFC 		j	.L15
 280              	.LVL28:
 281              	.L17:
 282              		.cfi_def_cfa_register 2
 283              		.cfi_restore 1
 284              		.cfi_restore 8
 285              		.cfi_restore 9
 286              	.LBE47:
 287              	.LBE50:
 288              	.LBE51:
 289              	.LBE53:
  24:src/mySemaphore.cpp ****     }
 290              		.loc 1 24 17
 291 0160 1305F0FF 		li	a0,-1
 292              	.LVL29:
 293 0164 67800000 		ret
 294              		.cfi_endproc
 295              	.LFE23:
 297              		.align	2
 298              		.globl	_ZN11MySemaphore15createSemaphoreEj
 300              	_ZN11MySemaphore15createSemaphoreEj:
 301              	.LFB24:
  34:src/mySemaphore.cpp **** 
  35:src/mySemaphore.cpp **** MySemaphore *MySemaphore::createSemaphore(unsigned int init) {
 302              		.loc 1 35 62 is_stmt 1
 303              		.cfi_startproc
 304              	.LVL30:
 305 0168 130101FE 		addi	sp,sp,-32
 306              		.cfi_def_cfa_offset 32
 307 016c 233C1100 		sd	ra,24(sp)
 308 0170 23388100 		sd	s0,16(sp)
 309 0174 23349100 		sd	s1,8(sp)
 310              		.cfi_offset 1, -8
 311              		.cfi_offset 8, -16
 312              		.cfi_offset 9, -24
 313 0178 13040102 		addi	s0,sp,32
 314              		.cfi_def_cfa 8, 0
 315 017c 93040500 		mv	s1,a0
GAS LISTING /tmp/ccnyWQZZ.s 			page 9


  36:src/mySemaphore.cpp ****     return new MySemaphore(init);
 316              		.loc 1 36 5
 317              		.loc 1 36 32 is_stmt 0
 318 0180 13058001 		li	a0,24
 319              	.LVL31:
 320 0184 97000000 		call	_Znwm@plt
 320      E7800000 
 321              	.LVL32:
 322              	.LBB54:
 323              	.LBB55:
 324              	.LBB56:
 325              	.LBB57:
  23:src/../h/list.hpp **** 
 326              		.loc 2 23 29
 327 018c 23340500 		sd	zero,8(a0)
 328 0190 23380500 		sd	zero,16(a0)
 329              	.LVL33:
 330              	.LBE57:
 331              	.LBE56:
 332              		.file 4 "src/../h/mySemaphore.hpp"
   1:src/../h/mySemaphore.hpp **** #ifndef mySemaphore
   2:src/../h/mySemaphore.hpp **** #define mySemaphore
   3:src/../h/mySemaphore.hpp **** 
   4:src/../h/mySemaphore.hpp **** #include "list.hpp"
   5:src/../h/mySemaphore.hpp **** #include "tcb.hpp"
   6:src/../h/mySemaphore.hpp **** 
   7:src/../h/mySemaphore.hpp **** class MySemaphore {
   8:src/../h/mySemaphore.hpp **** public:
   9:src/../h/mySemaphore.hpp ****     //check this -> explicit
  10:src/../h/mySemaphore.hpp ****     explicit MySemaphore(unsigned init = 1) {
  11:src/../h/mySemaphore.hpp ****         this->value = init;
 333              		.loc 4 11 9 is_stmt 1
 334              		.loc 4 11 21 is_stmt 0
 335 0194 23229500 		sw	s1,4(a0)
  12:src/../h/mySemaphore.hpp ****         this->closed = false;
 336              		.loc 4 12 9 is_stmt 1
 337              		.loc 4 12 22 is_stmt 0
 338 0198 23000500 		sb	zero,0(a0)
 339              	.LVL34:
 340              	.LBE55:
 341              	.LBE54:
  37:src/mySemaphore.cpp **** }
 342              		.loc 1 37 1
 343 019c 83308101 		ld	ra,24(sp)
 344              		.cfi_restore 1
 345 01a0 03340101 		ld	s0,16(sp)
 346              		.cfi_restore 8
 347              		.cfi_def_cfa 2, 32
 348 01a4 83348100 		ld	s1,8(sp)
 349              		.cfi_restore 9
 350 01a8 13010102 		addi	sp,sp,32
 351              		.cfi_def_cfa_offset 0
 352 01ac 67800000 		jr	ra
 353              		.cfi_endproc
 354              	.LFE24:
 356              		.align	2
 357              		.globl	_ZN11MySemaphore5closeEv
GAS LISTING /tmp/ccnyWQZZ.s 			page 10


 359              	_ZN11MySemaphore5closeEv:
 360              	.LFB25:
  38:src/mySemaphore.cpp **** 
  39:src/mySemaphore.cpp **** int MySemaphore::close() {
 361              		.loc 1 39 26 is_stmt 1
 362              		.cfi_startproc
 363              	.LVL35:
  40:src/mySemaphore.cpp ****     if (closed) {
 364              		.loc 1 40 5
 365              		.loc 1 40 9 is_stmt 0
 366 01b0 83470500 		lbu	a5,0(a0)
 367              		.loc 1 40 5
 368 01b4 63960706 		bnez	a5,.L32
  39:src/mySemaphore.cpp ****     if (closed) {
 369              		.loc 1 39 26
 370 01b8 130101FE 		addi	sp,sp,-32
 371              		.cfi_def_cfa_offset 32
 372 01bc 233C1100 		sd	ra,24(sp)
 373 01c0 23388100 		sd	s0,16(sp)
 374 01c4 23349100 		sd	s1,8(sp)
 375 01c8 23302101 		sd	s2,0(sp)
 376              		.cfi_offset 1, -8
 377              		.cfi_offset 8, -16
 378              		.cfi_offset 9, -24
 379              		.cfi_offset 18, -32
 380 01cc 13040102 		addi	s0,sp,32
 381              		.cfi_def_cfa 8, 0
 382 01d0 93040500 		mv	s1,a0
  41:src/mySemaphore.cpp ****         return -1;
  42:src/mySemaphore.cpp ****     }
  43:src/mySemaphore.cpp ****     closed = true;
 383              		.loc 1 43 5 is_stmt 1
 384              		.loc 1 43 12 is_stmt 0
 385 01d4 93071000 		li	a5,1
 386 01d8 2300F500 		sb	a5,0(a0)
 387 01dc 6F004002 		j	.L31
 388              	.LVL36:
 389              	.L39:
 390              	.LBB58:
 391              	.LBB59:
 392              	.LBB60:
  55:src/../h/list.hpp **** 
 393              		.loc 2 55 22
 394 01e0 23B80400 		sd	zero,16(s1)
 395              	.L30:
  57:src/../h/list.hpp ****         delete elem;
 396              		.loc 2 57 12
 397 01e4 03390500 		ld	s2,0(a0)
 398              	.LVL37:
 399              		.loc 2 58 9
 400 01e8 97000000 		call	_ZdlPv@plt
 400      E7800000 
 401              	.LVL38:
 402              	.LBE60:
 403              	.LBE59:
  44:src/mySemaphore.cpp **** 
  45:src/mySemaphore.cpp ****     while (this->blocked.peekFirst()) {
GAS LISTING /tmp/ccnyWQZZ.s 			page 11


  46:src/mySemaphore.cpp ****         TCB* tcb = this->blocked.removeFirst();
  47:src/mySemaphore.cpp ****         tcb->setBlocked(false);
 404              		.loc 1 47 9 is_stmt 1
 405              	.LBB62:
 406              	.LBB63:
 407              		.loc 3 23 35
 408              		.loc 3 23 49 is_stmt 0
 409 01f0 A3000902 		sb	zero,33(s2)
 410              	.LVL39:
 411              	.LBE63:
 412              	.LBE62:
  48:src/mySemaphore.cpp ****         Scheduler::put(tcb);
 413              		.loc 1 48 9 is_stmt 1
 414              		.loc 1 48 23 is_stmt 0
 415 01f4 13050900 		mv	a0,s2
 416 01f8 97000000 		call	_ZN9Scheduler3putEP3TCB@plt
 416      E7800000 
 417              	.LVL40:
 418              	.L31:
 419              	.LBE58:
  45:src/mySemaphore.cpp ****         TCB* tcb = this->blocked.removeFirst();
 420              		.loc 1 45 5 is_stmt 1
  45:src/mySemaphore.cpp ****         TCB* tcb = this->blocked.removeFirst();
 421              		.loc 1 45 36
 422              	.LBB65:
 423              	.LBB66:
  59:src/../h/list.hpp ****         return ret;
  60:src/../h/list.hpp ****     }
  61:src/../h/list.hpp **** 
  62:src/../h/list.hpp ****     T *peekFirst()
  63:src/../h/list.hpp ****     {
  64:src/../h/list.hpp ****         if (!head) { return 0; }
 424              		.loc 2 64 14 is_stmt 0
 425 0200 03B58400 		ld	a0,8(s1)
 426              		.loc 2 64 9
 427 0204 63020502 		beqz	a0,.L33
  65:src/../h/list.hpp ****         return head->data;
 428              		.loc 2 65 22
 429 0208 83370500 		ld	a5,0(a0)
 430              	.LVL41:
 431              	.LBE66:
 432              	.LBE65:
  45:src/mySemaphore.cpp ****         TCB* tcb = this->blocked.removeFirst();
 433              		.loc 1 45 36
 434 020c 638C0702 		beqz	a5,.L34
 435              	.LBB67:
  46:src/mySemaphore.cpp ****         tcb->setBlocked(false);
 436              		.loc 1 46 9 is_stmt 1
 437              	.LVL42:
 438              	.LBB64:
 439              	.LBB61:
  54:src/../h/list.hpp ****         if (!head) { tail = 0; }
 440              		.loc 2 54 22 is_stmt 0
 441 0210 83378500 		ld	a5,8(a0)
  54:src/../h/list.hpp ****         if (!head) { tail = 0; }
 442              		.loc 2 54 9
 443 0214 23B4F400 		sd	a5,8(s1)
GAS LISTING /tmp/ccnyWQZZ.s 			page 12


  55:src/../h/list.hpp **** 
 444              		.loc 2 55 9
 445 0218 E39607FC 		bnez	a5,.L30
 446 021c 6FF05FFC 		j	.L39
 447              	.LVL43:
 448              	.L32:
 449              		.cfi_def_cfa_register 2
 450              		.cfi_restore 1
 451              		.cfi_restore 8
 452              		.cfi_restore 9
 453              		.cfi_restore 18
 454              	.LBE61:
 455              	.LBE64:
 456              	.LBE67:
  41:src/mySemaphore.cpp ****     }
 457              		.loc 1 41 17
 458 0220 1305F0FF 		li	a0,-1
 459              	.LVL44:
  49:src/mySemaphore.cpp ****     }
  50:src/mySemaphore.cpp ****     return 0;
  51:src/mySemaphore.cpp **** }
 460              		.loc 1 51 1
 461 0224 67800000 		ret
 462              	.LVL45:
 463              	.L33:
 464              		.cfi_def_cfa_register 8
 465              		.cfi_offset 1, -8
 466              		.cfi_offset 8, -16
 467              		.cfi_offset 9, -24
 468              		.cfi_offset 18, -32
  50:src/mySemaphore.cpp **** }
 469              		.loc 1 50 12
 470 0228 13050000 		li	a0,0
 471              	.LVL46:
 472              	.L29:
 473              		.loc 1 51 1
 474 022c 83308101 		ld	ra,24(sp)
 475              		.cfi_remember_state
 476              		.cfi_restore 1
 477 0230 03340101 		ld	s0,16(sp)
 478              		.cfi_restore 8
 479              		.cfi_def_cfa 2, 32
 480 0234 83348100 		ld	s1,8(sp)
 481              		.cfi_restore 9
 482              	.LVL47:
 483 0238 03390100 		ld	s2,0(sp)
 484              		.cfi_restore 18
 485 023c 13010102 		addi	sp,sp,32
 486              		.cfi_def_cfa_offset 0
 487 0240 67800000 		jr	ra
 488              	.LVL48:
 489              	.L34:
 490              		.cfi_restore_state
  50:src/mySemaphore.cpp **** }
 491              		.loc 1 50 12
 492 0244 13050000 		li	a0,0
 493 0248 6FF05FFE 		j	.L29
GAS LISTING /tmp/ccnyWQZZ.s 			page 13


 494              		.cfi_endproc
 495              	.LFE25:
 497              	.Letext0:
 498              		.file 5 "src/../h/../lib/hw.h"
 499              		.file 6 "src/../h/scheduler.hpp"
 500              		.file 7 "src/../h/syscall_c.hpp"
GAS LISTING /tmp/ccnyWQZZ.s 			page 14


DEFINED SYMBOLS
                            *ABS*:0000000000000000 mySemaphore.cpp
     /tmp/ccnyWQZZ.s:9      .text:0000000000000000 _ZN11MySemaphore4waitEv
     /tmp/ccnyWQZZ.s:13     .text:0000000000000000 .L0 
     /tmp/ccnyWQZZ.s:15     .text:0000000000000000 .L0 
     /tmp/ccnyWQZZ.s:16     .text:0000000000000000 .L0 
     /tmp/ccnyWQZZ.s:17     .text:0000000000000000 .L0 
     /tmp/ccnyWQZZ.s:19     .text:0000000000000004 .L0 
     /tmp/ccnyWQZZ.s:21     .text:0000000000000008 .L0 
     /tmp/ccnyWQZZ.s:22     .text:000000000000000c .L0 
     /tmp/ccnyWQZZ.s:27     .text:000000000000001c .L0 
     /tmp/ccnyWQZZ.s:28     .text:000000000000001c .L0 
     /tmp/ccnyWQZZ.s:29     .text:000000000000001c .L0 
     /tmp/ccnyWQZZ.s:30     .text:000000000000001c .L0 
     /tmp/ccnyWQZZ.s:32     .text:0000000000000020 .L0 
     /tmp/ccnyWQZZ.s:35     .text:0000000000000024 .L0 
     /tmp/ccnyWQZZ.s:36     .text:0000000000000024 .L0 
     /tmp/ccnyWQZZ.s:38     .text:0000000000000028 .L0 
     /tmp/ccnyWQZZ.s:40     .text:000000000000002c .L0 
     /tmp/ccnyWQZZ.s:42     .text:0000000000000030 .L0 
     /tmp/ccnyWQZZ.s:45     .text:0000000000000038 .L0 
     /tmp/ccnyWQZZ.s:49     .text:000000000000003c .L0 
     /tmp/ccnyWQZZ.s:50     .text:0000000000000040 .L0 
     /tmp/ccnyWQZZ.s:51     .text:0000000000000040 .L0 
     /tmp/ccnyWQZZ.s:53     .text:0000000000000044 .L0 
     /tmp/ccnyWQZZ.s:54     .text:0000000000000044 .L0 
     /tmp/ccnyWQZZ.s:56     .text:0000000000000048 .L0 
     /tmp/ccnyWQZZ.s:59     .text:000000000000004c .L0 
     /tmp/ccnyWQZZ.s:61     .text:0000000000000050 .L0 
     /tmp/ccnyWQZZ.s:65     .text:0000000000000054 .L0 
     /tmp/ccnyWQZZ.s:67     .text:0000000000000054 .L0 
     /tmp/ccnyWQZZ.s:68     .text:0000000000000054 .L0 
     /tmp/ccnyWQZZ.s:75     .text:0000000000000060 .L0 
     /tmp/ccnyWQZZ.s:81     .text:000000000000006c .L0 
     /tmp/ccnyWQZZ.s:87     .text:0000000000000074 .L0 
     /tmp/ccnyWQZZ.s:89     .text:0000000000000078 .L0 
     /tmp/ccnyWQZZ.s:91     .text:000000000000007c .L0 
     /tmp/ccnyWQZZ.s:93     .text:0000000000000080 .L0 
     /tmp/ccnyWQZZ.s:99     .text:0000000000000084 .L0 
     /tmp/ccnyWQZZ.s:100    .text:0000000000000084 .L0 
     /tmp/ccnyWQZZ.s:107    .text:0000000000000090 .L0 
     /tmp/ccnyWQZZ.s:108    .text:0000000000000090 .L0 
     /tmp/ccnyWQZZ.s:114    .text:0000000000000098 .L0 
     /tmp/ccnyWQZZ.s:115    .text:0000000000000098 .L0 
     /tmp/ccnyWQZZ.s:118    .text:00000000000000a0 .L0 
     /tmp/ccnyWQZZ.s:119    .text:00000000000000a0 .L0 
     /tmp/ccnyWQZZ.s:121    .text:00000000000000a4 .L0 
     /tmp/ccnyWQZZ.s:123    .text:00000000000000a8 .L0 
     /tmp/ccnyWQZZ.s:130    .text:00000000000000b0 .L0 
     /tmp/ccnyWQZZ.s:135    .text:00000000000000bc .L0 
     /tmp/ccnyWQZZ.s:136    .text:00000000000000bc .L0 
     /tmp/ccnyWQZZ.s:137    .text:00000000000000bc .L0 
     /tmp/ccnyWQZZ.s:138    .text:00000000000000bc .L0 
     /tmp/ccnyWQZZ.s:139    .text:00000000000000bc .L0 
     /tmp/ccnyWQZZ.s:143    .text:00000000000000bc .L0 
     /tmp/ccnyWQZZ.s:146    .text:00000000000000c0 .L0 
     /tmp/ccnyWQZZ.s:149    .text:00000000000000c4 .L0 
GAS LISTING /tmp/ccnyWQZZ.s 			page 15


     /tmp/ccnyWQZZ.s:150    .text:00000000000000c4 .L0 
     /tmp/ccnyWQZZ.s:151    .text:00000000000000c4 .L0 
     /tmp/ccnyWQZZ.s:152    .text:00000000000000c4 .L0 
     /tmp/ccnyWQZZ.s:153    .text:00000000000000c4 .L0 
     /tmp/ccnyWQZZ.s:155    .text:00000000000000c4 .L0 
     /tmp/ccnyWQZZ.s:157    .text:00000000000000cc .L0 
     /tmp/ccnyWQZZ.s:163    .text:00000000000000cc _ZN11MySemaphore6signalEv
     /tmp/ccnyWQZZ.s:166    .text:00000000000000cc .L0 
     /tmp/ccnyWQZZ.s:168    .text:00000000000000cc .L0 
     /tmp/ccnyWQZZ.s:169    .text:00000000000000cc .L0 
     /tmp/ccnyWQZZ.s:170    .text:00000000000000cc .L0 
     /tmp/ccnyWQZZ.s:172    .text:00000000000000d0 .L0 
     /tmp/ccnyWQZZ.s:176    .text:00000000000000d8 .L0 
     /tmp/ccnyWQZZ.s:177    .text:00000000000000d8 .L0 
     /tmp/ccnyWQZZ.s:179    .text:00000000000000dc .L0 
     /tmp/ccnyWQZZ.s:181    .text:00000000000000e0 .L0 
     /tmp/ccnyWQZZ.s:183    .text:00000000000000e4 .L0 
     /tmp/ccnyWQZZ.s:185    .text:00000000000000e8 .L0 
     /tmp/ccnyWQZZ.s:188    .text:00000000000000ec .L0 
     /tmp/ccnyWQZZ.s:191    .text:00000000000000f0 .L0 
     /tmp/ccnyWQZZ.s:195    .text:00000000000000f4 .L0 
     /tmp/ccnyWQZZ.s:196    .text:00000000000000f8 .L0 
     /tmp/ccnyWQZZ.s:200    .text:0000000000000104 .L0 
     /tmp/ccnyWQZZ.s:201    .text:0000000000000104 .L0 
     /tmp/ccnyWQZZ.s:202    .text:0000000000000104 .L0 
     /tmp/ccnyWQZZ.s:204    .text:0000000000000108 .L0 
     /tmp/ccnyWQZZ.s:208    .text:0000000000000108 .L0 
     /tmp/ccnyWQZZ.s:212    .text:0000000000000108 .L0 
     /tmp/ccnyWQZZ.s:213    .text:0000000000000108 .L0 
     /tmp/ccnyWQZZ.s:216    .text:000000000000010c .L0 
     /tmp/ccnyWQZZ.s:219    .text:0000000000000110 .L0 
     /tmp/ccnyWQZZ.s:221    .text:0000000000000114 .L0 
     /tmp/ccnyWQZZ.s:223    .text:0000000000000118 .L0 
     /tmp/ccnyWQZZ.s:226    .text:000000000000011c .L0 
     /tmp/ccnyWQZZ.s:229    .text:0000000000000120 .L0 
     /tmp/ccnyWQZZ.s:237    .text:0000000000000128 .L0 
     /tmp/ccnyWQZZ.s:238    .text:0000000000000128 .L0 
     /tmp/ccnyWQZZ.s:239    .text:0000000000000128 .L0 
     /tmp/ccnyWQZZ.s:244    .text:000000000000012c .L0 
     /tmp/ccnyWQZZ.s:245    .text:000000000000012c .L0 
     /tmp/ccnyWQZZ.s:251    .text:0000000000000138 .L0 
     /tmp/ccnyWQZZ.s:253    .text:000000000000013c .L0 
     /tmp/ccnyWQZZ.s:254    .text:0000000000000140 .L0 
     /tmp/ccnyWQZZ.s:255    .text:0000000000000140 .L0 
     /tmp/ccnyWQZZ.s:257    .text:0000000000000144 .L0 
     /tmp/ccnyWQZZ.s:258    .text:0000000000000144 .L0 
     /tmp/ccnyWQZZ.s:260    .text:0000000000000148 .L0 
     /tmp/ccnyWQZZ.s:263    .text:000000000000014c .L0 
     /tmp/ccnyWQZZ.s:267    .text:0000000000000150 .L0 
     /tmp/ccnyWQZZ.s:273    .text:0000000000000150 .L0 
     /tmp/ccnyWQZZ.s:278    .text:0000000000000158 .L0 
     /tmp/ccnyWQZZ.s:282    .text:0000000000000160 .L0 
     /tmp/ccnyWQZZ.s:283    .text:0000000000000160 .L0 
     /tmp/ccnyWQZZ.s:284    .text:0000000000000160 .L0 
     /tmp/ccnyWQZZ.s:285    .text:0000000000000160 .L0 
     /tmp/ccnyWQZZ.s:291    .text:0000000000000160 .L0 
     /tmp/ccnyWQZZ.s:294    .text:0000000000000168 .L0 
GAS LISTING /tmp/ccnyWQZZ.s 			page 16


     /tmp/ccnyWQZZ.s:300    .text:0000000000000168 _ZN11MySemaphore15createSemaphoreEj
     /tmp/ccnyWQZZ.s:303    .text:0000000000000168 .L0 
     /tmp/ccnyWQZZ.s:305    .text:0000000000000168 .L0 
     /tmp/ccnyWQZZ.s:306    .text:000000000000016c .L0 
     /tmp/ccnyWQZZ.s:310    .text:0000000000000178 .L0 
     /tmp/ccnyWQZZ.s:311    .text:0000000000000178 .L0 
     /tmp/ccnyWQZZ.s:312    .text:0000000000000178 .L0 
     /tmp/ccnyWQZZ.s:314    .text:000000000000017c .L0 
     /tmp/ccnyWQZZ.s:317    .text:0000000000000180 .L0 
     /tmp/ccnyWQZZ.s:318    .text:0000000000000180 .L0 
     /tmp/ccnyWQZZ.s:327    .text:000000000000018c .L0 
     /tmp/ccnyWQZZ.s:334    .text:0000000000000194 .L0 
     /tmp/ccnyWQZZ.s:335    .text:0000000000000194 .L0 
     /tmp/ccnyWQZZ.s:337    .text:0000000000000198 .L0 
     /tmp/ccnyWQZZ.s:338    .text:0000000000000198 .L0 
     /tmp/ccnyWQZZ.s:343    .text:000000000000019c .L0 
     /tmp/ccnyWQZZ.s:344    .text:00000000000001a0 .L0 
     /tmp/ccnyWQZZ.s:346    .text:00000000000001a4 .L0 
     /tmp/ccnyWQZZ.s:347    .text:00000000000001a4 .L0 
     /tmp/ccnyWQZZ.s:349    .text:00000000000001a8 .L0 
     /tmp/ccnyWQZZ.s:351    .text:00000000000001ac .L0 
     /tmp/ccnyWQZZ.s:353    .text:00000000000001b0 .L0 
     /tmp/ccnyWQZZ.s:359    .text:00000000000001b0 _ZN11MySemaphore5closeEv
     /tmp/ccnyWQZZ.s:362    .text:00000000000001b0 .L0 
     /tmp/ccnyWQZZ.s:364    .text:00000000000001b0 .L0 
     /tmp/ccnyWQZZ.s:365    .text:00000000000001b0 .L0 
     /tmp/ccnyWQZZ.s:366    .text:00000000000001b0 .L0 
     /tmp/ccnyWQZZ.s:368    .text:00000000000001b4 .L0 
     /tmp/ccnyWQZZ.s:370    .text:00000000000001b8 .L0 
     /tmp/ccnyWQZZ.s:371    .text:00000000000001bc .L0 
     /tmp/ccnyWQZZ.s:376    .text:00000000000001cc .L0 
     /tmp/ccnyWQZZ.s:377    .text:00000000000001cc .L0 
     /tmp/ccnyWQZZ.s:378    .text:00000000000001cc .L0 
     /tmp/ccnyWQZZ.s:379    .text:00000000000001cc .L0 
     /tmp/ccnyWQZZ.s:381    .text:00000000000001d0 .L0 
     /tmp/ccnyWQZZ.s:384    .text:00000000000001d4 .L0 
     /tmp/ccnyWQZZ.s:385    .text:00000000000001d4 .L0 
     /tmp/ccnyWQZZ.s:394    .text:00000000000001e0 .L0 
     /tmp/ccnyWQZZ.s:397    .text:00000000000001e4 .L0 
     /tmp/ccnyWQZZ.s:400    .text:00000000000001e8 .L0 
     /tmp/ccnyWQZZ.s:407    .text:00000000000001f0 .L0 
     /tmp/ccnyWQZZ.s:408    .text:00000000000001f0 .L0 
     /tmp/ccnyWQZZ.s:409    .text:00000000000001f0 .L0 
     /tmp/ccnyWQZZ.s:414    .text:00000000000001f4 .L0 
     /tmp/ccnyWQZZ.s:415    .text:00000000000001f4 .L0 
     /tmp/ccnyWQZZ.s:421    .text:0000000000000200 .L0 
     /tmp/ccnyWQZZ.s:424    .text:0000000000000200 .L0 
     /tmp/ccnyWQZZ.s:425    .text:0000000000000200 .L0 
     /tmp/ccnyWQZZ.s:427    .text:0000000000000204 .L0 
     /tmp/ccnyWQZZ.s:429    .text:0000000000000208 .L0 
     /tmp/ccnyWQZZ.s:434    .text:000000000000020c .L0 
     /tmp/ccnyWQZZ.s:440    .text:0000000000000210 .L0 
     /tmp/ccnyWQZZ.s:441    .text:0000000000000210 .L0 
     /tmp/ccnyWQZZ.s:443    .text:0000000000000214 .L0 
     /tmp/ccnyWQZZ.s:445    .text:0000000000000218 .L0 
     /tmp/ccnyWQZZ.s:449    .text:0000000000000220 .L0 
     /tmp/ccnyWQZZ.s:450    .text:0000000000000220 .L0 
GAS LISTING /tmp/ccnyWQZZ.s 			page 17


     /tmp/ccnyWQZZ.s:451    .text:0000000000000220 .L0 
     /tmp/ccnyWQZZ.s:452    .text:0000000000000220 .L0 
     /tmp/ccnyWQZZ.s:453    .text:0000000000000220 .L0 
     /tmp/ccnyWQZZ.s:458    .text:0000000000000220 .L0 
     /tmp/ccnyWQZZ.s:461    .text:0000000000000224 .L0 
     /tmp/ccnyWQZZ.s:464    .text:0000000000000228 .L0 
     /tmp/ccnyWQZZ.s:465    .text:0000000000000228 .L0 
     /tmp/ccnyWQZZ.s:466    .text:0000000000000228 .L0 
     /tmp/ccnyWQZZ.s:467    .text:0000000000000228 .L0 
     /tmp/ccnyWQZZ.s:468    .text:0000000000000228 .L0 
     /tmp/ccnyWQZZ.s:470    .text:0000000000000228 .L0 
     /tmp/ccnyWQZZ.s:474    .text:000000000000022c .L0 
     /tmp/ccnyWQZZ.s:475    .text:0000000000000230 .L0 
     /tmp/ccnyWQZZ.s:476    .text:0000000000000230 .L0 
     /tmp/ccnyWQZZ.s:478    .text:0000000000000234 .L0 
     /tmp/ccnyWQZZ.s:479    .text:0000000000000234 .L0 
     /tmp/ccnyWQZZ.s:481    .text:0000000000000238 .L0 
     /tmp/ccnyWQZZ.s:484    .text:000000000000023c .L0 
     /tmp/ccnyWQZZ.s:486    .text:0000000000000240 .L0 
     /tmp/ccnyWQZZ.s:490    .text:0000000000000244 .L0 
     /tmp/ccnyWQZZ.s:492    .text:0000000000000244 .L0 
     /tmp/ccnyWQZZ.s:494    .text:000000000000024c .L0 
     /tmp/ccnyWQZZ.s:501    .text:000000000000024c .L0 
     /tmp/ccnyWQZZ.s:68     .text:0000000000000054 .L0 
     /tmp/ccnyWQZZ.s:100    .text:0000000000000084 .L0 
     /tmp/ccnyWQZZ.s:134    .text:00000000000000bc .L5
     /tmp/ccnyWQZZ.s:64     .text:0000000000000054 .L12
     /tmp/ccnyWQZZ.s:126    .text:00000000000000b0 .L3
     /tmp/ccnyWQZZ.s:148    .text:00000000000000c4 .L7
     /tmp/ccnyWQZZ.s:47     .text:000000000000003c .L2
     /tmp/ccnyWQZZ.s:94     .text:0000000000000084 .L4
     /tmp/ccnyWQZZ.s:281    .text:0000000000000160 .L17
     /tmp/ccnyWQZZ.s:193    .text:00000000000000f4 .L24
     /tmp/ccnyWQZZ.s:276    .text:0000000000000158 .L19
     /tmp/ccnyWQZZ.s:266    .text:0000000000000150 .L25
     /tmp/ccnyWQZZ.s:224    .text:000000000000011c .L16
     /tmp/ccnyWQZZ.s:231    .text:0000000000000128 .L15
     /tmp/ccnyWQZZ.s:448    .text:0000000000000220 .L32
     /tmp/ccnyWQZZ.s:418    .text:0000000000000200 .L31
     /tmp/ccnyWQZZ.s:463    .text:0000000000000228 .L33
     /tmp/ccnyWQZZ.s:489    .text:0000000000000244 .L34
     /tmp/ccnyWQZZ.s:395    .text:00000000000001e4 .L30
     /tmp/ccnyWQZZ.s:389    .text:00000000000001e0 .L39
     /tmp/ccnyWQZZ.s:472    .text:000000000000022c .L29
     /tmp/ccnyWQZZ.s:1690   .debug_abbrev:0000000000000000 .Ldebug_abbrev0
     /tmp/ccnyWQZZ.s:3250   .debug_str:0000000000000576 .LASF93
     /tmp/ccnyWQZZ.s:3190   .debug_str:00000000000003bb .LASF94
     /tmp/ccnyWQZZ.s:3182   .debug_str:000000000000033e .LASF95
     /tmp/ccnyWQZZ.s:5      .text:0000000000000000 .Ltext0
     /tmp/ccnyWQZZ.s:497    .text:000000000000024c .Letext0
     /tmp/ccnyWQZZ.s:3070   .debug_line:0000000000000000 .Ldebug_line0
     /tmp/ccnyWQZZ.s:3194   .debug_str:00000000000003e2 .LASF0
     /tmp/ccnyWQZZ.s:3204   .debug_str:0000000000000429 .LASF1
     /tmp/ccnyWQZZ.s:3178   .debug_str:0000000000000324 .LASF2
     /tmp/ccnyWQZZ.s:3150   .debug_str:000000000000028b .LASF4
     /tmp/ccnyWQZZ.s:3238   .debug_str:0000000000000516 .LASF3
     /tmp/ccnyWQZZ.s:3086   .debug_str:000000000000007a .LASF5
GAS LISTING /tmp/ccnyWQZZ.s 			page 18


     /tmp/ccnyWQZZ.s:3206   .debug_str:000000000000043c .LASF6
     /tmp/ccnyWQZZ.s:3192   .debug_str:00000000000003cf .LASF7
     /tmp/ccnyWQZZ.s:3264   .debug_str:000000000000069a .LASF8
     /tmp/ccnyWQZZ.s:3136   .debug_str:00000000000001f8 .LASF9
     /tmp/ccnyWQZZ.s:3214   .debug_str:000000000000047c .LASF10
     /tmp/ccnyWQZZ.s:3254   .debug_str:0000000000000646 .LASF11
     /tmp/ccnyWQZZ.s:3090   .debug_str:000000000000008c .LASF12
     /tmp/ccnyWQZZ.s:3076   .debug_str:0000000000000026 .LASF13
     /tmp/ccnyWQZZ.s:3100   .debug_str:00000000000000d0 .LASF14
     /tmp/ccnyWQZZ.s:3230   .debug_str:00000000000004ef .LASF15
     /tmp/ccnyWQZZ.s:3112   .debug_str:000000000000013c .LASF16
     /tmp/ccnyWQZZ.s:3212   .debug_str:0000000000000472 .LASF17
     /tmp/ccnyWQZZ.s:3132   .debug_str:00000000000001df .LASF52
     /tmp/ccnyWQZZ.s:3144   .debug_str:000000000000024a .LASF96
     /tmp/ccnyWQZZ.s:3098   .debug_str:00000000000000b8 .LASF97
     /tmp/ccnyWQZZ.s:3170   .debug_str:0000000000000307 .LASF18
     /tmp/ccnyWQZZ.s:3256   .debug_str:0000000000000655 .LASF21
     /tmp/ccnyWQZZ.s:3226   .debug_str:00000000000004d3 .LASF19
     /tmp/ccnyWQZZ.s:3280   .debug_str:000000000000070f .LASF20
     /tmp/ccnyWQZZ.s:3186   .debug_str:0000000000000392 .LASF60
     /tmp/ccnyWQZZ.s:3116   .debug_str:0000000000000158 .LASF22
     /tmp/ccnyWQZZ.s:3172   .debug_str:0000000000000311 .LASF23
     /tmp/ccnyWQZZ.s:3148   .debug_str:0000000000000286 .LASF24
     /tmp/ccnyWQZZ.s:3246   .debug_str:000000000000055a .LASF26
     /tmp/ccnyWQZZ.s:3228   .debug_str:00000000000004d8 .LASF31
     /tmp/ccnyWQZZ.s:3188   .debug_str:00000000000003b1 .LASF98
     /tmp/ccnyWQZZ.s:3140   .debug_str:000000000000021a .LASF99
     /tmp/ccnyWQZZ.s:3248   .debug_str:000000000000056d .LASF25
     /tmp/ccnyWQZZ.s:3120   .debug_str:0000000000000179 .LASF27
     /tmp/ccnyWQZZ.s:3134   .debug_str:00000000000001f0 .LASF28
     /tmp/ccnyWQZZ.s:3118   .debug_str:000000000000015d .LASF29
     /tmp/ccnyWQZZ.s:3252   .debug_str:000000000000063a .LASF30
     /tmp/ccnyWQZZ.s:3074   .debug_str:0000000000000008 .LASF32
     /tmp/ccnyWQZZ.s:3096   .debug_str:00000000000000ae .LASF33
     /tmp/ccnyWQZZ.s:3162   .debug_str:00000000000002c0 .LASF34
     /tmp/ccnyWQZZ.s:3200   .debug_str:00000000000003fe .LASF35
     /tmp/ccnyWQZZ.s:3084   .debug_str:000000000000005d .LASF36
     /tmp/ccnyWQZZ.s:3166   .debug_str:00000000000002f0 .LASF37
     /tmp/ccnyWQZZ.s:3274   .debug_str:00000000000006e0 .LASF38
     /tmp/ccnyWQZZ.s:3080   .debug_str:0000000000000040 .LASF39
     /tmp/ccnyWQZZ.s:3122   .debug_str:0000000000000196 .LASF40
     /tmp/ccnyWQZZ.s:3222   .debug_str:00000000000004c2 .LASF41
     /tmp/ccnyWQZZ.s:3208   .debug_str:000000000000044f .LASF42
     /tmp/ccnyWQZZ.s:3108   .debug_str:000000000000011e .LASF43
     /tmp/ccnyWQZZ.s:3180   .debug_str:0000000000000332 .LASF44
     /tmp/ccnyWQZZ.s:3282   .debug_str:0000000000000714 .LASF45
     /tmp/ccnyWQZZ.s:3078   .debug_str:0000000000000036 .LASF46
     /tmp/ccnyWQZZ.s:3164   .debug_str:00000000000002db .LASF47
     /tmp/ccnyWQZZ.s:3152   .debug_str:0000000000000292 .LASF48
     /tmp/ccnyWQZZ.s:3258   .debug_str:000000000000065a .LASF49
     /tmp/ccnyWQZZ.s:3160   .debug_str:00000000000002b3 .LASF50
     /tmp/ccnyWQZZ.s:3202   .debug_str:0000000000000409 .LASF51
     /tmp/ccnyWQZZ.s:3224   .debug_str:00000000000004ce .LASF100
     /tmp/ccnyWQZZ.s:3232   .debug_str:0000000000000505 .LASF101
     /tmp/ccnyWQZZ.s:3184   .debug_str:0000000000000382 .LASF102
     /tmp/ccnyWQZZ.s:3124   .debug_str:000000000000019b .LASF53
     /tmp/ccnyWQZZ.s:3138   .debug_str:0000000000000206 .LASF103
GAS LISTING /tmp/ccnyWQZZ.s 			page 19


     /tmp/ccnyWQZZ.s:3156   .debug_str:00000000000002a6 .LASF54
     /tmp/ccnyWQZZ.s:3198   .debug_str:00000000000003f8 .LASF55
     /tmp/ccnyWQZZ.s:3158   .debug_str:00000000000002ab .LASF56
     /tmp/ccnyWQZZ.s:3154   .debug_str:000000000000029d .LASF57
     /tmp/ccnyWQZZ.s:3072   .debug_str:0000000000000000 .LASF58
     /tmp/ccnyWQZZ.s:3168   .debug_str:00000000000002f9 .LASF62
     /tmp/ccnyWQZZ.s:3142   .debug_str:0000000000000231 .LASF64
     /tmp/ccnyWQZZ.s:3270   .debug_str:00000000000006c9 .LASF59
     /tmp/ccnyWQZZ.s:3146   .debug_str:000000000000025e .LASF61
     /tmp/ccnyWQZZ.s:3196   .debug_str:00000000000003ef .LASF63
     /tmp/ccnyWQZZ.s:3126   .debug_str:00000000000001a3 .LASF65
     /tmp/ccnyWQZZ.s:3240   .debug_str:0000000000000528 .LASF66
     /tmp/ccnyWQZZ.s:3216   .debug_str:000000000000048b .LASF67
     /tmp/ccnyWQZZ.s:3088   .debug_str:0000000000000081 .LASF104
     /tmp/ccnyWQZZ.s:3128   .debug_str:00000000000001b6 .LASF68
     /tmp/ccnyWQZZ.s:3220   .debug_str:00000000000004b6 .LASF69
     /tmp/ccnyWQZZ.s:3262   .debug_str:0000000000000685 .LASF70
     /tmp/ccnyWQZZ.s:3092   .debug_str:000000000000009c .LASF71
     /tmp/ccnyWQZZ.s:3210   .debug_str:000000000000045a .LASF72
     /tmp/ccnyWQZZ.s:3110   .debug_str:0000000000000135 .LASF73
     /tmp/ccnyWQZZ.s:3218   .debug_str:000000000000049c .LASF74
     /tmp/ccnyWQZZ.s:3276   .debug_str:00000000000006fa .LASF75
     /tmp/ccnyWQZZ.s:3130   .debug_str:00000000000001bb .LASF76
     /tmp/ccnyWQZZ.s:3272   .debug_str:00000000000006d7 .LASF77
     /tmp/ccnyWQZZ.s:3242   .debug_str:000000000000052d .LASF78
     /tmp/ccnyWQZZ.s:3268   .debug_str:00000000000006c3 .LASF79
     /tmp/ccnyWQZZ.s:3266   .debug_str:00000000000006aa .LASF80
     /tmp/ccnyWQZZ.s:3176   .debug_str:000000000000031d .LASF81
     /tmp/ccnyWQZZ.s:3114   .debug_str:0000000000000152 .LASF82
     /tmp/ccnyWQZZ.s:3278   .debug_str:000000000000070a .LASF83
     /tmp/ccnyWQZZ.s:3106   .debug_str:00000000000000ff .LASF85
     /tmp/ccnyWQZZ.s:3234   .debug_str:000000000000050b .LASF84
     /tmp/ccnyWQZZ.s:3102   .debug_str:00000000000000dc .LASF86
     /tmp/ccnyWQZZ.s:360    .text:00000000000001b0 .LFB25
     /tmp/ccnyWQZZ.s:495    .text:000000000000024c .LFE25
     /tmp/ccnyWQZZ.s:2659   .debug_loc:0000000000000000 .LLST20
     /tmp/ccnyWQZZ.s:3038   .debug_ranges:0000000000000000 .Ldebug_ranges0
     /tmp/ccnyWQZZ.s:2696   .debug_loc:000000000000009b .LLST21
     /tmp/ccnyWQZZ.s:391    .text:00000000000001e0 .LBB59
     /tmp/ccnyWQZZ.s:2703   .debug_loc:00000000000000be .LLST22
     /tmp/ccnyWQZZ.s:2718   .debug_loc:00000000000000f8 .LLST23
     /tmp/ccnyWQZZ.s:2729   .debug_loc:000000000000012e .LLST24
     /tmp/ccnyWQZZ.s:401    .text:00000000000001f0 .LVL38
     /tmp/ccnyWQZZ.s:405    .text:00000000000001f0 .LBB62
     /tmp/ccnyWQZZ.s:412    .text:00000000000001f4 .LBE62
     /tmp/ccnyWQZZ.s:2736   .debug_loc:0000000000000151 .LLST25
     /tmp/ccnyWQZZ.s:2744   .debug_loc:0000000000000175 .LLST26
     /tmp/ccnyWQZZ.s:417    .text:0000000000000200 .LVL40
     /tmp/ccnyWQZZ.s:422    .text:0000000000000200 .LBB65
     /tmp/ccnyWQZZ.s:432    .text:000000000000020c .LBE65
     /tmp/ccnyWQZZ.s:2751   .debug_loc:0000000000000198 .LLST27
     /tmp/ccnyWQZZ.s:301    .text:0000000000000168 .LFB24
     /tmp/ccnyWQZZ.s:354    .text:00000000000001b0 .LFE24
     /tmp/ccnyWQZZ.s:3284   .debug_str:000000000000072b .LASF87
     /tmp/ccnyWQZZ.s:2766   .debug_loc:00000000000001d2 .LLST16
     /tmp/ccnyWQZZ.s:322    .text:000000000000018c .LBB54
     /tmp/ccnyWQZZ.s:341    .text:000000000000019c .LBE54
GAS LISTING /tmp/ccnyWQZZ.s 			page 20


     /tmp/ccnyWQZZ.s:2780   .debug_loc:000000000000020b .LLST17
     /tmp/ccnyWQZZ.s:2787   .debug_loc:000000000000022e .LLST18
     /tmp/ccnyWQZZ.s:324    .text:000000000000018c .LBB56
     /tmp/ccnyWQZZ.s:331    .text:0000000000000194 .LBE56
     /tmp/ccnyWQZZ.s:2794   .debug_loc:0000000000000251 .LLST19
     /tmp/ccnyWQZZ.s:321    .text:000000000000018c .LVL32
     /tmp/ccnyWQZZ.s:164    .text:00000000000000cc .LFB23
     /tmp/ccnyWQZZ.s:295    .text:0000000000000168 .LFE23
     /tmp/ccnyWQZZ.s:2803   .debug_loc:0000000000000276 .LLST9
     /tmp/ccnyWQZZ.s:2844   .debug_loc:0000000000000324 .LLST10
     /tmp/ccnyWQZZ.s:210    .text:0000000000000108 .LBB45
     /tmp/ccnyWQZZ.s:2851   .debug_loc:0000000000000347 .LLST11
     /tmp/ccnyWQZZ.s:2881   .debug_loc:00000000000003ae .LLST12
     /tmp/ccnyWQZZ.s:2892   .debug_loc:00000000000003e4 .LLST13
     /tmp/ccnyWQZZ.s:230    .text:0000000000000128 .LVL22
     /tmp/ccnyWQZZ.s:235    .text:0000000000000128 .LBB48
     /tmp/ccnyWQZZ.s:242    .text:000000000000012c .LBE48
     /tmp/ccnyWQZZ.s:2899   .debug_loc:0000000000000407 .LLST14
     /tmp/ccnyWQZZ.s:2907   .debug_loc:000000000000042b .LLST15
     /tmp/ccnyWQZZ.s:247    .text:0000000000000138 .LVL24
     /tmp/ccnyWQZZ.s:10     .text:0000000000000000 .LFB22
     /tmp/ccnyWQZZ.s:158    .text:00000000000000cc .LFE22
     /tmp/ccnyWQZZ.s:2914   .debug_loc:000000000000044e .LLST0
     /tmp/ccnyWQZZ.s:71     .text:0000000000000060 .LBB35
     /tmp/ccnyWQZZ.s:2951   .debug_loc:00000000000004e9 .LLST1
     /tmp/ccnyWQZZ.s:2962   .debug_loc:000000000000051f .LLST2
     /tmp/ccnyWQZZ.s:2977   .debug_loc:0000000000000559 .LLST3
     /tmp/ccnyWQZZ.s:78     .text:000000000000006c .LBB37
     /tmp/ccnyWQZZ.s:85     .text:0000000000000074 .LBE37
     /tmp/ccnyWQZZ.s:2988   .debug_loc:000000000000058f .LLST4
     /tmp/ccnyWQZZ.s:2996   .debug_loc:00000000000005b3 .LLST5
     /tmp/ccnyWQZZ.s:3003   .debug_loc:00000000000005d6 .LLST6
     /tmp/ccnyWQZZ.s:77     .text:000000000000006c .LVL5
     /tmp/ccnyWQZZ.s:103    .text:0000000000000090 .LBB40
     /tmp/ccnyWQZZ.s:112    .text:0000000000000098 .LBE40
     /tmp/ccnyWQZZ.s:3010   .debug_loc:00000000000005f9 .LLST7
     /tmp/ccnyWQZZ.s:3018   .debug_loc:000000000000061d .LLST8
     /tmp/ccnyWQZZ.s:116    .text:00000000000000a0 .LVL10
     /tmp/ccnyWQZZ.s:3260   .debug_str:0000000000000670 .LASF88
     /tmp/ccnyWQZZ.s:3174   .debug_str:0000000000000316 .LASF89
     /tmp/ccnyWQZZ.s:3244   .debug_str:000000000000054a .LASF91
     /tmp/ccnyWQZZ.s:3236   .debug_str:0000000000000510 .LASF90
     /tmp/ccnyWQZZ.s:3094   .debug_str:00000000000000a1 .LASF92
     /tmp/ccnyWQZZ.s:3082   .debug_str:0000000000000048 .LASF105
     /tmp/ccnyWQZZ.s:3104   .debug_str:00000000000000ef .LASF106
     /tmp/ccnyWQZZ.s:363    .text:00000000000001b0 .LVL35
     /tmp/ccnyWQZZ.s:388    .text:00000000000001e0 .LVL36
     /tmp/ccnyWQZZ.s:447    .text:0000000000000220 .LVL43
     /tmp/ccnyWQZZ.s:459    .text:0000000000000224 .LVL44
     /tmp/ccnyWQZZ.s:462    .text:0000000000000228 .LVL45
     /tmp/ccnyWQZZ.s:482    .text:0000000000000238 .LVL47
     /tmp/ccnyWQZZ.s:488    .text:0000000000000244 .LVL48
     /tmp/ccnyWQZZ.s:437    .text:0000000000000210 .LVL42
     /tmp/ccnyWQZZ.s:398    .text:00000000000001e8 .LVL37
     /tmp/ccnyWQZZ.s:410    .text:00000000000001f4 .LVL39
     /tmp/ccnyWQZZ.s:430    .text:000000000000020c .LVL41
     /tmp/ccnyWQZZ.s:471    .text:000000000000022c .LVL46
GAS LISTING /tmp/ccnyWQZZ.s 			page 21


     /tmp/ccnyWQZZ.s:304    .text:0000000000000168 .LVL30
     /tmp/ccnyWQZZ.s:319    .text:0000000000000184 .LVL31
     /tmp/ccnyWQZZ.s:339    .text:000000000000019c .LVL34
     /tmp/ccnyWQZZ.s:329    .text:0000000000000194 .LVL33
     /tmp/ccnyWQZZ.s:167    .text:00000000000000cc .LVL15
     /tmp/ccnyWQZZ.s:189    .text:00000000000000f0 .LVL16
     /tmp/ccnyWQZZ.s:192    .text:00000000000000f4 .LVL17
     /tmp/ccnyWQZZ.s:214    .text:000000000000010c .LVL19
     /tmp/ccnyWQZZ.s:265    .text:0000000000000150 .LVL26
     /tmp/ccnyWQZZ.s:280    .text:0000000000000160 .LVL28
     /tmp/ccnyWQZZ.s:292    .text:0000000000000164 .LVL29
     /tmp/ccnyWQZZ.s:261    .text:0000000000000148 .LVL25
     /tmp/ccnyWQZZ.s:209    .text:0000000000000108 .LVL18
     /tmp/ccnyWQZZ.s:217    .text:0000000000000110 .LVL20
     /tmp/ccnyWQZZ.s:275    .text:0000000000000158 .LVL27
     /tmp/ccnyWQZZ.s:227    .text:0000000000000120 .LVL21
     /tmp/ccnyWQZZ.s:240    .text:000000000000012c .LVL23
     /tmp/ccnyWQZZ.s:14     .text:0000000000000000 .LVL0
     /tmp/ccnyWQZZ.s:46     .text:000000000000003c .LVL1
     /tmp/ccnyWQZZ.s:57     .text:0000000000000048 .LVL2
     /tmp/ccnyWQZZ.s:63     .text:0000000000000054 .LVL3
     /tmp/ccnyWQZZ.s:133    .text:00000000000000bc .LVL12
     /tmp/ccnyWQZZ.s:144    .text:00000000000000c0 .LVL13
     /tmp/ccnyWQZZ.s:147    .text:00000000000000c4 .LVL14
     /tmp/ccnyWQZZ.s:70     .text:0000000000000060 .LVL4
     /tmp/ccnyWQZZ.s:95     .text:0000000000000084 .LVL7
     /tmp/ccnyWQZZ.s:125    .text:00000000000000b0 .LVL11
     /tmp/ccnyWQZZ.s:83     .text:0000000000000074 .LVL6
     /tmp/ccnyWQZZ.s:102    .text:0000000000000090 .LVL8
     /tmp/ccnyWQZZ.s:110    .text:0000000000000098 .LVL9
     /tmp/ccnyWQZZ.s:502    .debug_info:0000000000000000 .Ldebug_info0
     /tmp/ccnyWQZZ.s:97     .text:0000000000000084 .LBE35
     /tmp/ccnyWQZZ.s:127    .text:00000000000000b0 .LBB42
     /tmp/ccnyWQZZ.s:141    .text:00000000000000bc .LBE42
     /tmp/ccnyWQZZ.s:206    .text:0000000000000108 .LBB44
     /tmp/ccnyWQZZ.s:248    .text:0000000000000138 .LBE44
     /tmp/ccnyWQZZ.s:269    .text:0000000000000150 .LBB51
     /tmp/ccnyWQZZ.s:288    .text:0000000000000160 .LBE51
     /tmp/ccnyWQZZ.s:233    .text:0000000000000128 .LBE45
     /tmp/ccnyWQZZ.s:270    .text:0000000000000150 .LBB50
     /tmp/ccnyWQZZ.s:287    .text:0000000000000160 .LBE50
     /tmp/ccnyWQZZ.s:390    .text:00000000000001e0 .LBB58
     /tmp/ccnyWQZZ.s:419    .text:0000000000000200 .LBE58
     /tmp/ccnyWQZZ.s:435    .text:0000000000000210 .LBB67
     /tmp/ccnyWQZZ.s:456    .text:0000000000000220 .LBE67
     /tmp/ccnyWQZZ.s:403    .text:00000000000001f0 .LBE59
     /tmp/ccnyWQZZ.s:438    .text:0000000000000210 .LBB64
     /tmp/ccnyWQZZ.s:455    .text:0000000000000220 .LBE64

UNDEFINED SYMBOLS
_ZN3TCB7runningE
_Znwm
_Z15thread_dispatchv
_ZdlPv
_ZN9Scheduler3putEP3TCB
