GAS LISTING /tmp/ccelrT3C.s 			page 1


   1              		.file	"mySemaphore.cpp"
   2              		.option pic
   3              		.option norelax
   4              		.text
   5              	.Ltext0:
   6              		.align	2
   7              		.globl	_ZN11MySemaphore4waitEv
   9              	_ZN11MySemaphore4waitEv:
  10              	.LFB37:
  11              		.file 1 "src/mySemaphore.cpp"
   1:src/mySemaphore.cpp **** #include "../h/mySemaphore.hpp"
   2:src/mySemaphore.cpp **** #include "../h/syscall_c.hpp"
   3:src/mySemaphore.cpp **** 
   4:src/mySemaphore.cpp **** int MySemaphore::wait() {
  12              		.loc 1 4 25
  13              		.cfi_startproc
  14              	.LVL0:
   5:src/mySemaphore.cpp ****     if(this->closed) {
  15              		.loc 1 5 5
  16              		.loc 1 5 14 is_stmt 0
  17 0000 83470500 		lbu	a5,0(a0)
  18              		.loc 1 5 5
  19 0004 639C070A 		bnez	a5,.L5
   4:src/mySemaphore.cpp ****     if(this->closed) {
  20              		.loc 1 4 25
  21 0008 130101FE 		addi	sp,sp,-32
  22              		.cfi_def_cfa_offset 32
  23 000c 233C1100 		sd	ra,24(sp)
  24 0010 23388100 		sd	s0,16(sp)
  25 0014 23349100 		sd	s1,8(sp)
  26 0018 23302101 		sd	s2,0(sp)
  27              		.cfi_offset 1, -8
  28              		.cfi_offset 8, -16
  29              		.cfi_offset 9, -24
  30              		.cfi_offset 18, -32
  31 001c 13040102 		addi	s0,sp,32
  32              		.cfi_def_cfa 8, 0
  33 0020 93040500 		mv	s1,a0
   6:src/mySemaphore.cpp ****         return -1;
   7:src/mySemaphore.cpp ****     }
   8:src/mySemaphore.cpp **** 
   9:src/mySemaphore.cpp ****     if((int)--this->value < 0) {
  34              		.loc 1 9 5 is_stmt 1
  35              		.loc 1 9 21 is_stmt 0
  36 0024 83274500 		lw	a5,4(a0)
  37              		.loc 1 9 13
  38 0028 9B87F7FF 		addiw	a5,a5,-1
  39              		.loc 1 9 27
  40 002c 2322F500 		sw	a5,4(a0)
  41              		.loc 1 9 5
  42 0030 13970702 		slli	a4,a5,32
  43 0034 63400702 		bltz	a4,.L12
  10:src/mySemaphore.cpp ****         this->blocked.addLast(TCB::running);
  11:src/mySemaphore.cpp ****         TCB::running->setBlocked(true);
  12:src/mySemaphore.cpp ****         thread_dispatch();
  13:src/mySemaphore.cpp **** 
  14:src/mySemaphore.cpp ****         //Provera da li smo se vratili jer je bio signal() ili je bio close()
GAS LISTING /tmp/ccelrT3C.s 			page 2


  15:src/mySemaphore.cpp ****         if(this->closed) {
  16:src/mySemaphore.cpp ****             return -1;
  17:src/mySemaphore.cpp ****         }
  18:src/mySemaphore.cpp ****     }
  19:src/mySemaphore.cpp ****     return 0;
  44              		.loc 1 19 12
  45 0038 13050000 		li	a0,0
  46              	.LVL1:
  47              	.L2:
  20:src/mySemaphore.cpp **** }
  48              		.loc 1 20 1
  49 003c 83308101 		ld	ra,24(sp)
  50              		.cfi_remember_state
  51              		.cfi_restore 1
  52 0040 03340101 		ld	s0,16(sp)
  53              		.cfi_restore 8
  54              		.cfi_def_cfa 2, 32
  55 0044 83348100 		ld	s1,8(sp)
  56              		.cfi_restore 9
  57              	.LVL2:
  58 0048 03390100 		ld	s2,0(sp)
  59              		.cfi_restore 18
  60 004c 13010102 		addi	sp,sp,32
  61              		.cfi_def_cfa_offset 0
  62 0050 67800000 		jr	ra
  63              	.LVL3:
  64              	.L12:
  65              		.cfi_restore_state
  10:src/mySemaphore.cpp ****         this->blocked.addLast(TCB::running);
  66              		.loc 1 10 9 is_stmt 1
  10:src/mySemaphore.cpp ****         this->blocked.addLast(TCB::running);
  67              		.loc 1 10 30 is_stmt 0
  68 0054 97070000 		la	a5,_ZN3TCB7runningE
  68      83B70700 
  69 005c 03B90700 		ld	s2,0(a5)
  70              	.LVL4:
  71              	.LBB47:
  72              	.LBB48:
  73              	.LBB49:
  74              	.LBB50:
  75              		.file 2 "src/../h/list.hpp"
   1:src/../h/list.hpp **** //
   2:src/../h/list.hpp **** // Created by marko on 20.4.22..
   3:src/../h/list.hpp **** //
   4:src/../h/list.hpp **** 
   5:src/../h/list.hpp **** #ifndef OS1_VEZBE07_RISCV_CONTEXT_SWITCH_2_INTERRUPT_LIST_HPP
   6:src/../h/list.hpp **** #define OS1_VEZBE07_RISCV_CONTEXT_SWITCH_2_INTERRUPT_LIST_HPP
   7:src/../h/list.hpp **** 
   8:src/../h/list.hpp **** #include "memoryAllocator.hpp"
   9:src/../h/list.hpp **** 
  10:src/../h/list.hpp **** template<typename T>
  11:src/../h/list.hpp **** class List
  12:src/../h/list.hpp **** {
  13:src/../h/list.hpp **** private:
  14:src/../h/list.hpp ****     struct Elem
  15:src/../h/list.hpp ****     {
  16:src/../h/list.hpp ****         T *data;
GAS LISTING /tmp/ccelrT3C.s 			page 3


  17:src/../h/list.hpp ****         Elem *next;
  18:src/../h/list.hpp **** 
  19:src/../h/list.hpp ****         Elem(T *data, Elem *next) : data(data), next(next) {}
  20:src/../h/list.hpp **** 
  21:src/../h/list.hpp ****         void* operator new(size_t size) {
  22:src/../h/list.hpp ****             size_t newSize;
  23:src/../h/list.hpp ****             if(size%MEM_BLOCK_SIZE != 0) {
  24:src/../h/list.hpp ****                 newSize = ((size + MEM_BLOCK_SIZE - 1) / MEM_BLOCK_SIZE) * MEM_BLOCK_SIZE;
  25:src/../h/list.hpp ****             }
  26:src/../h/list.hpp ****             else {
  27:src/../h/list.hpp ****                 newSize = size;
  28:src/../h/list.hpp ****             }
  29:src/../h/list.hpp **** 
  30:src/../h/list.hpp ****             return MemoryAllocator::mem_alloc(newSize);
  76              		.loc 2 30 46
  77 0060 13050004 		li	a0,64
  78 0064 97000000 		call	_ZN15MemoryAllocator9mem_allocEm@plt
  78      E7800000 
  79              	.LVL5:
  80              	.LBE50:
  81              	.LBE49:
  82              	.LBB51:
  83              	.LBB52:
  19:src/../h/list.hpp **** 
  84              		.loc 2 19 58
  85 006c 23302501 		sd	s2,0(a0)
  86 0070 23340500 		sd	zero,8(a0)
  87              	.LVL6:
  88              	.LBE52:
  89              	.LBE51:
  31:src/../h/list.hpp ****         }
  32:src/../h/list.hpp ****         void* operator new[](size_t size) {
  33:src/../h/list.hpp ****             size_t newSize;
  34:src/../h/list.hpp ****             if(size%MEM_BLOCK_SIZE != 0) {
  35:src/../h/list.hpp ****                 newSize = ((size + MEM_BLOCK_SIZE - 1) / MEM_BLOCK_SIZE) * MEM_BLOCK_SIZE;
  36:src/../h/list.hpp ****             }
  37:src/../h/list.hpp ****             else {
  38:src/../h/list.hpp ****                 newSize = size;
  39:src/../h/list.hpp ****             }
  40:src/../h/list.hpp **** 
  41:src/../h/list.hpp ****             return MemoryAllocator::mem_alloc(newSize);
  42:src/../h/list.hpp ****         }
  43:src/../h/list.hpp ****         void operator delete(void *ptr) {
  44:src/../h/list.hpp ****             MemoryAllocator::mem_free(ptr);
  45:src/../h/list.hpp ****         }
  46:src/../h/list.hpp ****         void operator delete[](void *ptr) {
  47:src/../h/list.hpp ****             MemoryAllocator::mem_free(ptr);
  48:src/../h/list.hpp ****         }
  49:src/../h/list.hpp ****     };
  50:src/../h/list.hpp **** 
  51:src/../h/list.hpp ****     Elem *head, *tail;
  52:src/../h/list.hpp **** 
  53:src/../h/list.hpp **** public:
  54:src/../h/list.hpp ****     List() : head(0), tail(0) {}
  55:src/../h/list.hpp **** 
  56:src/../h/list.hpp ****     List(const List<T> &) = delete;
  57:src/../h/list.hpp **** 
GAS LISTING /tmp/ccelrT3C.s 			page 4


  58:src/../h/list.hpp ****     List<T> &operator=(const List<T> &) = delete;
  59:src/../h/list.hpp **** 
  60:src/../h/list.hpp ****     void addFirst(T *data)
  61:src/../h/list.hpp ****     {
  62:src/../h/list.hpp ****         Elem *elem = new Elem(data, head);
  63:src/../h/list.hpp ****         head = elem;
  64:src/../h/list.hpp ****         if (!tail) { tail = head; }
  65:src/../h/list.hpp ****     }
  66:src/../h/list.hpp **** 
  67:src/../h/list.hpp ****     void addLast(T *data)
  68:src/../h/list.hpp ****     {
  69:src/../h/list.hpp ****         Elem *elem = new Elem(data, 0);
  70:src/../h/list.hpp ****         if (tail)
  90              		.loc 2 70 13
  91 0074 83B70401 		ld	a5,16(s1)
  92              		.loc 2 70 9
  93 0078 638C0702 		beqz	a5,.L3
  71:src/../h/list.hpp ****         {
  72:src/../h/list.hpp ****             tail->next = elem;
  94              		.loc 2 72 13
  95 007c 23B4A700 		sd	a0,8(a5)
  73:src/../h/list.hpp ****             tail = elem;
  96              		.loc 2 73 13
  97 0080 23B8A400 		sd	a0,16(s1)
  98              	.L4:
  99              	.LVL7:
 100              	.LBE48:
 101              	.LBE47:
  11:src/mySemaphore.cpp ****         thread_dispatch();
 102              		.loc 1 11 9 is_stmt 1
  11:src/mySemaphore.cpp ****         thread_dispatch();
 103              		.loc 1 11 33 is_stmt 0
 104 0084 97070000 		la	a5,_ZN3TCB7runningE
 104      83B70700 
 105 008c 83B70700 		ld	a5,0(a5)
 106              	.LVL8:
 107              	.LBB54:
 108              	.LBB55:
 109              		.file 3 "src/../h/tcb.hpp"
   1:src/../h/tcb.hpp **** //
   2:src/../h/tcb.hpp **** // Created by marko on 20.4.22..
   3:src/../h/tcb.hpp **** //
   4:src/../h/tcb.hpp **** 
   5:src/../h/tcb.hpp **** #ifndef OS1_VEZBE07_RISCV_CONTEXT_SWITCH_2_INTERRUPT_TCB_HPP
   6:src/../h/tcb.hpp **** #define OS1_VEZBE07_RISCV_CONTEXT_SWITCH_2_INTERRUPT_TCB_HPP
   7:src/../h/tcb.hpp **** 
   8:src/../h/tcb.hpp **** #include "../lib/hw.h"
   9:src/../h/tcb.hpp **** #include "scheduler.hpp"
  10:src/../h/tcb.hpp **** #include "memoryAllocator.hpp"
  11:src/../h/tcb.hpp **** 
  12:src/../h/tcb.hpp **** // Thread Control Block
  13:src/../h/tcb.hpp **** class TCB
  14:src/../h/tcb.hpp **** {
  15:src/../h/tcb.hpp **** public:
  16:src/../h/tcb.hpp ****     ~TCB() { delete[] stack; }
  17:src/../h/tcb.hpp **** 
  18:src/../h/tcb.hpp ****     bool isFinished() const { return finished; }
GAS LISTING /tmp/ccelrT3C.s 			page 5


  19:src/../h/tcb.hpp **** 
  20:src/../h/tcb.hpp ****     void setFinished(bool value) { finished = value; }
  21:src/../h/tcb.hpp **** 
  22:src/../h/tcb.hpp ****     bool isBlocked() const { return this->blocked; }
  23:src/../h/tcb.hpp **** 
  24:src/../h/tcb.hpp ****     void setBlocked(bool value) { this->blocked = value; }
 110              		.loc 3 24 35 is_stmt 1
 111              		.loc 3 24 49 is_stmt 0
 112 0090 13071000 		li	a4,1
 113 0094 A380E702 		sb	a4,33(a5)
 114              	.LVL9:
 115              	.LBE55:
 116              	.LBE54:
  12:src/mySemaphore.cpp **** 
 117              		.loc 1 12 9 is_stmt 1
  12:src/mySemaphore.cpp **** 
 118              		.loc 1 12 24 is_stmt 0
 119 0098 97000000 		call	_Z15thread_dispatchv@plt
 119      E7800000 
 120              	.LVL10:
  15:src/mySemaphore.cpp ****             return -1;
 121              		.loc 1 15 9 is_stmt 1
  15:src/mySemaphore.cpp ****             return -1;
 122              		.loc 1 15 18 is_stmt 0
 123 00a0 83C70400 		lbu	a5,0(s1)
  15:src/mySemaphore.cpp ****             return -1;
 124              		.loc 1 15 9
 125 00a4 63900702 		bnez	a5,.L7
  19:src/mySemaphore.cpp **** }
 126              		.loc 1 19 12
 127 00a8 13050000 		li	a0,0
 128 00ac 6FF01FF9 		j	.L2
 129              	.LVL11:
 130              	.L3:
 131              	.LBB56:
 132              	.LBB53:
  74:src/../h/list.hpp ****         } else
  75:src/../h/list.hpp ****         {
  76:src/../h/list.hpp ****             head = tail = elem;
 133              		.loc 2 76 13
 134 00b0 23B8A400 		sd	a0,16(s1)
 135 00b4 23B4A400 		sd	a0,8(s1)
 136 00b8 6FF0DFFC 		j	.L4
 137              	.LVL12:
 138              	.L5:
 139              		.cfi_def_cfa_register 2
 140              		.cfi_restore 1
 141              		.cfi_restore 8
 142              		.cfi_restore 9
 143              		.cfi_restore 18
 144              	.LBE53:
 145              	.LBE56:
   6:src/mySemaphore.cpp ****     }
 146              		.loc 1 6 17
 147 00bc 1305F0FF 		li	a0,-1
 148              	.LVL13:
 149              		.loc 1 20 1
GAS LISTING /tmp/ccelrT3C.s 			page 6


 150 00c0 67800000 		ret
 151              	.LVL14:
 152              	.L7:
 153              		.cfi_def_cfa_register 8
 154              		.cfi_offset 1, -8
 155              		.cfi_offset 8, -16
 156              		.cfi_offset 9, -24
 157              		.cfi_offset 18, -32
  16:src/mySemaphore.cpp ****         }
 158              		.loc 1 16 21
 159 00c4 1305F0FF 		li	a0,-1
 160 00c8 6FF05FF7 		j	.L2
 161              		.cfi_endproc
 162              	.LFE37:
 164              		.align	2
 165              		.globl	_ZN11MySemaphore6signalEv
 167              	_ZN11MySemaphore6signalEv:
 168              	.LFB38:
  21:src/mySemaphore.cpp **** 
  22:src/mySemaphore.cpp **** int MySemaphore::signal() {
 169              		.loc 1 22 27 is_stmt 1
 170              		.cfi_startproc
 171              	.LVL15:
  23:src/mySemaphore.cpp ****     if(this->closed) {
 172              		.loc 1 23 5
 173              		.loc 1 23 14 is_stmt 0
 174 00cc 83470500 		lbu	a5,0(a0)
 175              		.loc 1 23 5
 176 00d0 63980708 		bnez	a5,.L17
 177 00d4 13070500 		mv	a4,a0
  24:src/mySemaphore.cpp ****         return -1;
  25:src/mySemaphore.cpp ****     }
  26:src/mySemaphore.cpp ****     if((int)++this->value <= 0) {
 178              		.loc 1 26 5 is_stmt 1
 179              	.LBB57:
 180              		.loc 1 26 21 is_stmt 0
 181 00d8 83274500 		lw	a5,4(a0)
 182              		.loc 1 26 13
 183 00dc 9B871700 		addiw	a5,a5,1
 184              		.loc 1 26 27
 185 00e0 2322F500 		sw	a5,4(a0)
 186              		.loc 1 26 8
 187 00e4 9B870700 		sext.w	a5,a5
 188              		.loc 1 26 5
 189 00e8 6356F000 		blez	a5,.L24
 190              	.LBE57:
  27:src/mySemaphore.cpp ****         TCB* tcb;
  28:src/mySemaphore.cpp ****         tcb = this->blocked.removeFirst();
  29:src/mySemaphore.cpp ****         tcb->setBlocked(false);
  30:src/mySemaphore.cpp ****         Scheduler::put(tcb);
  31:src/mySemaphore.cpp ****     }
  32:src/mySemaphore.cpp ****     return 0;
 191              		.loc 1 32 12
 192 00ec 13050000 		li	a0,0
 193              	.LVL16:
  33:src/mySemaphore.cpp **** }
 194              		.loc 1 33 1
GAS LISTING /tmp/ccelrT3C.s 			page 7


 195 00f0 67800000 		ret
 196              	.LVL17:
 197              	.L24:
  22:src/mySemaphore.cpp ****     if(this->closed) {
 198              		.loc 1 22 27
 199 00f4 130101FE 		addi	sp,sp,-32
 200              		.cfi_def_cfa_offset 32
 201 00f8 233C1100 		sd	ra,24(sp)
 202 00fc 23388100 		sd	s0,16(sp)
 203 0100 23349100 		sd	s1,8(sp)
 204              		.cfi_offset 1, -8
 205              		.cfi_offset 8, -16
 206              		.cfi_offset 9, -24
 207 0104 13040102 		addi	s0,sp,32
 208              		.cfi_def_cfa 8, 0
 209              	.LBB68:
 210              	.LBB58:
  27:src/mySemaphore.cpp ****         TCB* tcb;
 211              		.loc 1 27 9 is_stmt 1
  28:src/mySemaphore.cpp ****         tcb->setBlocked(false);
 212              		.loc 1 28 9
 213              	.LVL18:
 214              	.LBB59:
 215              	.LBB60:
  77:src/../h/list.hpp ****         }
  78:src/../h/list.hpp ****     }
  79:src/../h/list.hpp **** 
  80:src/../h/list.hpp ****     T *removeFirst()
  81:src/../h/list.hpp ****     {
  82:src/../h/list.hpp ****         if (!head) { return 0; }
 216              		.loc 2 82 14 is_stmt 0
 217 0108 03358500 		ld	a0,8(a0)
 218              	.LVL19:
 219              		.loc 2 82 9
 220 010c 63060504 		beqz	a0,.L19
 221              	.LVL20:
  83:src/../h/list.hpp **** 
  84:src/../h/list.hpp ****         Elem *elem = head;
  85:src/../h/list.hpp ****         head = head->next;
 222              		.loc 2 85 22
 223 0110 83378500 		ld	a5,8(a0)
 224              		.loc 2 85 9
 225 0114 2334F700 		sd	a5,8(a4)
  86:src/../h/list.hpp ****         if (!head) { tail = 0; }
 226              		.loc 2 86 9
 227 0118 638C0702 		beqz	a5,.L25
 228              	.L16:
  87:src/../h/list.hpp **** 
  88:src/../h/list.hpp ****         T *ret = elem->data;
 229              		.loc 2 88 12
 230 011c 83340500 		ld	s1,0(a0)
 231              	.LVL21:
 232              	.LBB61:
 233              	.LBB62:
  44:src/../h/list.hpp ****         }
 234              		.loc 2 44 38
 235 0120 97000000 		call	_ZN15MemoryAllocator8mem_freeEPv@plt
GAS LISTING /tmp/ccelrT3C.s 			page 8


 235      E7800000 
 236              	.LVL22:
 237              	.L15:
 238              	.LBE62:
 239              	.LBE61:
 240              	.LBE60:
 241              	.LBE59:
  29:src/mySemaphore.cpp ****         Scheduler::put(tcb);
 242              		.loc 1 29 9 is_stmt 1
 243              	.LBB64:
 244              	.LBB65:
 245              		.loc 3 24 35
 246              		.loc 3 24 49 is_stmt 0
 247 0128 A3800402 		sb	zero,33(s1)
 248              	.LVL23:
 249              	.LBE65:
 250              	.LBE64:
  30:src/mySemaphore.cpp ****     }
 251              		.loc 1 30 9 is_stmt 1
  30:src/mySemaphore.cpp ****     }
 252              		.loc 1 30 23 is_stmt 0
 253 012c 13850400 		mv	a0,s1
 254 0130 97000000 		call	_ZN9Scheduler3putEP3TCB@plt
 254      E7800000 
 255              	.LVL24:
 256              	.LBE58:
 257              	.LBE68:
  32:src/mySemaphore.cpp **** }
 258              		.loc 1 32 12
 259 0138 13050000 		li	a0,0
 260              		.loc 1 33 1
 261 013c 83308101 		ld	ra,24(sp)
 262              		.cfi_remember_state
 263              		.cfi_restore 1
 264 0140 03340101 		ld	s0,16(sp)
 265              		.cfi_restore 8
 266              		.cfi_def_cfa 2, 32
 267 0144 83348100 		ld	s1,8(sp)
 268              		.cfi_restore 9
 269              	.LVL25:
 270 0148 13010102 		addi	sp,sp,32
 271              		.cfi_def_cfa_offset 0
 272 014c 67800000 		jr	ra
 273              	.LVL26:
 274              	.L25:
 275              		.cfi_restore_state
 276              	.LBB69:
 277              	.LBB67:
 278              	.LBB66:
 279              	.LBB63:
  86:src/../h/list.hpp **** 
 280              		.loc 2 86 22
 281 0150 23380700 		sd	zero,16(a4)
 282 0154 6FF09FFC 		j	.L16
 283              	.LVL27:
 284              	.L19:
  82:src/../h/list.hpp **** 
GAS LISTING /tmp/ccelrT3C.s 			page 9


 285              		.loc 2 82 29
 286 0158 93040500 		mv	s1,a0
 287 015c 6FF0DFFC 		j	.L15
 288              	.LVL28:
 289              	.L17:
 290              		.cfi_def_cfa_register 2
 291              		.cfi_restore 1
 292              		.cfi_restore 8
 293              		.cfi_restore 9
 294              	.LBE63:
 295              	.LBE66:
 296              	.LBE67:
 297              	.LBE69:
  24:src/mySemaphore.cpp ****     }
 298              		.loc 1 24 17
 299 0160 1305F0FF 		li	a0,-1
 300              	.LVL29:
 301 0164 67800000 		ret
 302              		.cfi_endproc
 303              	.LFE38:
 305              		.align	2
 306              		.globl	_ZN11MySemaphore15createSemaphoreEj
 308              	_ZN11MySemaphore15createSemaphoreEj:
 309              	.LFB39:
  34:src/mySemaphore.cpp **** 
  35:src/mySemaphore.cpp **** MySemaphore *MySemaphore::createSemaphore(unsigned int init) {
 310              		.loc 1 35 62 is_stmt 1
 311              		.cfi_startproc
 312              	.LVL30:
 313 0168 130101FE 		addi	sp,sp,-32
 314              		.cfi_def_cfa_offset 32
 315 016c 233C1100 		sd	ra,24(sp)
 316 0170 23388100 		sd	s0,16(sp)
 317 0174 23349100 		sd	s1,8(sp)
 318              		.cfi_offset 1, -8
 319              		.cfi_offset 8, -16
 320              		.cfi_offset 9, -24
 321 0178 13040102 		addi	s0,sp,32
 322              		.cfi_def_cfa 8, 0
 323 017c 93040500 		mv	s1,a0
  36:src/mySemaphore.cpp ****     return new MySemaphore(init);
 324              		.loc 1 36 5
 325              	.LVL31:
 326              	.LBB70:
 327              	.LBB71:
 328              		.file 4 "src/../h/mySemaphore.hpp"
   1:src/../h/mySemaphore.hpp **** #ifndef mySemaphore
   2:src/../h/mySemaphore.hpp **** #define mySemaphore
   3:src/../h/mySemaphore.hpp **** 
   4:src/../h/mySemaphore.hpp **** #include "list.hpp"
   5:src/../h/mySemaphore.hpp **** #include "tcb.hpp"
   6:src/../h/mySemaphore.hpp **** #include "memoryAllocator.hpp"
   7:src/../h/mySemaphore.hpp **** 
   8:src/../h/mySemaphore.hpp **** class MySemaphore {
   9:src/../h/mySemaphore.hpp **** public:
  10:src/../h/mySemaphore.hpp ****     //check this -> explicit
  11:src/../h/mySemaphore.hpp ****     explicit MySemaphore(unsigned init = 1) {
GAS LISTING /tmp/ccelrT3C.s 			page 10


  12:src/../h/mySemaphore.hpp ****         this->value = init;
  13:src/../h/mySemaphore.hpp ****         this->closed = false;
  14:src/../h/mySemaphore.hpp ****     }
  15:src/../h/mySemaphore.hpp **** 
  16:src/../h/mySemaphore.hpp ****     int wait();
  17:src/../h/mySemaphore.hpp ****     int signal();
  18:src/../h/mySemaphore.hpp ****     static MySemaphore* createSemaphore(unsigned init = 1);
  19:src/../h/mySemaphore.hpp ****     unsigned getValue() const { return value; }
  20:src/../h/mySemaphore.hpp ****     int close();
  21:src/../h/mySemaphore.hpp **** 
  22:src/../h/mySemaphore.hpp ****     void* operator new(size_t size) {
  23:src/../h/mySemaphore.hpp ****         size_t newSize;
 329              		.loc 4 23 9
  24:src/../h/mySemaphore.hpp ****         if(size%MEM_BLOCK_SIZE != 0) {
 330              		.loc 4 24 9
  25:src/../h/mySemaphore.hpp ****             newSize = ((size + MEM_BLOCK_SIZE - 1) / MEM_BLOCK_SIZE) * MEM_BLOCK_SIZE;
 331              		.loc 4 25 13
  26:src/../h/mySemaphore.hpp ****         }
  27:src/../h/mySemaphore.hpp ****         else {
  28:src/../h/mySemaphore.hpp ****             newSize = size;
  29:src/../h/mySemaphore.hpp ****         }
  30:src/../h/mySemaphore.hpp **** 
  31:src/../h/mySemaphore.hpp ****         return MemoryAllocator::mem_alloc(newSize);
 332              		.loc 4 31 9
 333              		.loc 4 31 42 is_stmt 0
 334 0180 13050004 		li	a0,64
 335              	.LVL32:
 336 0184 97000000 		call	_ZN15MemoryAllocator9mem_allocEm@plt
 336      E7800000 
 337              	.LVL33:
 338              	.LBE71:
 339              	.LBE70:
 340              	.LBB72:
 341              	.LBB73:
 342              	.LBB74:
 343              	.LBB75:
  54:src/../h/list.hpp **** 
 344              		.loc 2 54 29
 345 018c 23340500 		sd	zero,8(a0)
 346 0190 23380500 		sd	zero,16(a0)
 347              	.LVL34:
 348              	.LBE75:
 349              	.LBE74:
  12:src/../h/mySemaphore.hpp ****         this->closed = false;
 350              		.loc 4 12 9 is_stmt 1
  12:src/../h/mySemaphore.hpp ****         this->closed = false;
 351              		.loc 4 12 21 is_stmt 0
 352 0194 23229500 		sw	s1,4(a0)
  13:src/../h/mySemaphore.hpp ****     }
 353              		.loc 4 13 9 is_stmt 1
  13:src/../h/mySemaphore.hpp ****     }
 354              		.loc 4 13 22 is_stmt 0
 355 0198 23000500 		sb	zero,0(a0)
 356              	.LVL35:
 357              	.LBE73:
 358              	.LBE72:
  37:src/mySemaphore.cpp **** }
GAS LISTING /tmp/ccelrT3C.s 			page 11


 359              		.loc 1 37 1
 360 019c 83308101 		ld	ra,24(sp)
 361              		.cfi_restore 1
 362 01a0 03340101 		ld	s0,16(sp)
 363              		.cfi_restore 8
 364              		.cfi_def_cfa 2, 32
 365 01a4 83348100 		ld	s1,8(sp)
 366              		.cfi_restore 9
 367 01a8 13010102 		addi	sp,sp,32
 368              		.cfi_def_cfa_offset 0
 369 01ac 67800000 		jr	ra
 370              		.cfi_endproc
 371              	.LFE39:
 373              		.align	2
 374              		.globl	_ZN11MySemaphore5closeEv
 376              	_ZN11MySemaphore5closeEv:
 377              	.LFB40:
  38:src/mySemaphore.cpp **** 
  39:src/mySemaphore.cpp **** int MySemaphore::close() {
 378              		.loc 1 39 26 is_stmt 1
 379              		.cfi_startproc
 380              	.LVL36:
  40:src/mySemaphore.cpp ****     if (closed) {
 381              		.loc 1 40 5
 382              		.loc 1 40 9 is_stmt 0
 383 01b0 83470500 		lbu	a5,0(a0)
 384              		.loc 1 40 5
 385 01b4 63960706 		bnez	a5,.L32
  39:src/mySemaphore.cpp ****     if (closed) {
 386              		.loc 1 39 26
 387 01b8 130101FE 		addi	sp,sp,-32
 388              		.cfi_def_cfa_offset 32
 389 01bc 233C1100 		sd	ra,24(sp)
 390 01c0 23388100 		sd	s0,16(sp)
 391 01c4 23349100 		sd	s1,8(sp)
 392 01c8 23302101 		sd	s2,0(sp)
 393              		.cfi_offset 1, -8
 394              		.cfi_offset 8, -16
 395              		.cfi_offset 9, -24
 396              		.cfi_offset 18, -32
 397 01cc 13040102 		addi	s0,sp,32
 398              		.cfi_def_cfa 8, 0
 399 01d0 93040500 		mv	s1,a0
  41:src/mySemaphore.cpp ****         return -1;
  42:src/mySemaphore.cpp ****     }
  43:src/mySemaphore.cpp ****     closed = true;
 400              		.loc 1 43 5 is_stmt 1
 401              		.loc 1 43 12 is_stmt 0
 402 01d4 93071000 		li	a5,1
 403 01d8 2300F500 		sb	a5,0(a0)
 404 01dc 6F004002 		j	.L31
 405              	.LVL37:
 406              	.L39:
 407              	.LBB76:
 408              	.LBB77:
 409              	.LBB78:
  86:src/../h/list.hpp **** 
GAS LISTING /tmp/ccelrT3C.s 			page 12


 410              		.loc 2 86 22
 411 01e0 23B80400 		sd	zero,16(s1)
 412              	.L30:
 413              		.loc 2 88 12
 414 01e4 03390500 		ld	s2,0(a0)
 415              	.LVL38:
 416              	.LBB79:
 417              	.LBB80:
  44:src/../h/list.hpp ****         }
 418              		.loc 2 44 38
 419 01e8 97000000 		call	_ZN15MemoryAllocator8mem_freeEPv@plt
 419      E7800000 
 420              	.LVL39:
 421              	.LBE80:
 422              	.LBE79:
 423              	.LBE78:
 424              	.LBE77:
  44:src/mySemaphore.cpp **** 
  45:src/mySemaphore.cpp ****     while (this->blocked.peekFirst()) {
  46:src/mySemaphore.cpp ****         TCB* tcb = this->blocked.removeFirst();
  47:src/mySemaphore.cpp ****         tcb->setBlocked(false);
 425              		.loc 1 47 9 is_stmt 1
 426              	.LBB82:
 427              	.LBB83:
 428              		.loc 3 24 35
 429              		.loc 3 24 49 is_stmt 0
 430 01f0 A3000902 		sb	zero,33(s2)
 431              	.LVL40:
 432              	.LBE83:
 433              	.LBE82:
  48:src/mySemaphore.cpp ****         Scheduler::put(tcb);
 434              		.loc 1 48 9 is_stmt 1
 435              		.loc 1 48 23 is_stmt 0
 436 01f4 13050900 		mv	a0,s2
 437 01f8 97000000 		call	_ZN9Scheduler3putEP3TCB@plt
 437      E7800000 
 438              	.LVL41:
 439              	.L31:
 440              	.LBE76:
  45:src/mySemaphore.cpp ****         TCB* tcb = this->blocked.removeFirst();
 441              		.loc 1 45 5 is_stmt 1
  45:src/mySemaphore.cpp ****         TCB* tcb = this->blocked.removeFirst();
 442              		.loc 1 45 36
 443              	.LBB85:
 444              	.LBB86:
  89:src/../h/list.hpp ****         delete elem;
  90:src/../h/list.hpp ****         return ret;
  91:src/../h/list.hpp ****     }
  92:src/../h/list.hpp **** 
  93:src/../h/list.hpp ****     T *peekFirst()
  94:src/../h/list.hpp ****     {
  95:src/../h/list.hpp ****         if (!head) { return 0; }
 445              		.loc 2 95 14 is_stmt 0
 446 0200 03B58400 		ld	a0,8(s1)
 447              		.loc 2 95 9
 448 0204 63020502 		beqz	a0,.L33
  96:src/../h/list.hpp ****         return head->data;
GAS LISTING /tmp/ccelrT3C.s 			page 13


 449              		.loc 2 96 22
 450 0208 83370500 		ld	a5,0(a0)
 451              	.LVL42:
 452              	.LBE86:
 453              	.LBE85:
  45:src/mySemaphore.cpp ****         TCB* tcb = this->blocked.removeFirst();
 454              		.loc 1 45 36
 455 020c 638C0702 		beqz	a5,.L34
 456              	.LBB87:
  46:src/mySemaphore.cpp ****         tcb->setBlocked(false);
 457              		.loc 1 46 9 is_stmt 1
 458              	.LVL43:
 459              	.LBB84:
 460              	.LBB81:
  85:src/../h/list.hpp ****         if (!head) { tail = 0; }
 461              		.loc 2 85 22 is_stmt 0
 462 0210 83378500 		ld	a5,8(a0)
  85:src/../h/list.hpp ****         if (!head) { tail = 0; }
 463              		.loc 2 85 9
 464 0214 23B4F400 		sd	a5,8(s1)
  86:src/../h/list.hpp **** 
 465              		.loc 2 86 9
 466 0218 E39607FC 		bnez	a5,.L30
 467 021c 6FF05FFC 		j	.L39
 468              	.LVL44:
 469              	.L32:
 470              		.cfi_def_cfa_register 2
 471              		.cfi_restore 1
 472              		.cfi_restore 8
 473              		.cfi_restore 9
 474              		.cfi_restore 18
 475              	.LBE81:
 476              	.LBE84:
 477              	.LBE87:
  41:src/mySemaphore.cpp ****     }
 478              		.loc 1 41 17
 479 0220 1305F0FF 		li	a0,-1
 480              	.LVL45:
  49:src/mySemaphore.cpp ****     }
  50:src/mySemaphore.cpp ****     return 0;
  51:src/mySemaphore.cpp **** }
 481              		.loc 1 51 1
 482 0224 67800000 		ret
 483              	.LVL46:
 484              	.L33:
 485              		.cfi_def_cfa_register 8
 486              		.cfi_offset 1, -8
 487              		.cfi_offset 8, -16
 488              		.cfi_offset 9, -24
 489              		.cfi_offset 18, -32
  50:src/mySemaphore.cpp **** }
 490              		.loc 1 50 12
 491 0228 13050000 		li	a0,0
 492              	.LVL47:
 493              	.L29:
 494              		.loc 1 51 1
 495 022c 83308101 		ld	ra,24(sp)
GAS LISTING /tmp/ccelrT3C.s 			page 14


 496              		.cfi_remember_state
 497              		.cfi_restore 1
 498 0230 03340101 		ld	s0,16(sp)
 499              		.cfi_restore 8
 500              		.cfi_def_cfa 2, 32
 501 0234 83348100 		ld	s1,8(sp)
 502              		.cfi_restore 9
 503              	.LVL48:
 504 0238 03390100 		ld	s2,0(sp)
 505              		.cfi_restore 18
 506 023c 13010102 		addi	sp,sp,32
 507              		.cfi_def_cfa_offset 0
 508 0240 67800000 		jr	ra
 509              	.LVL49:
 510              	.L34:
 511              		.cfi_restore_state
  50:src/mySemaphore.cpp **** }
 512              		.loc 1 50 12
 513 0244 13050000 		li	a0,0
 514 0248 6FF05FFE 		j	.L29
 515              		.cfi_endproc
 516              	.LFE40:
 518              	.Letext0:
 519              		.file 5 "src/../h/../lib/hw.h"
 520              		.file 6 "src/../h/memoryAllocator.hpp"
 521              		.file 7 "src/../h/scheduler.hpp"
 522              		.file 8 "src/../h/syscall_c.hpp"
GAS LISTING /tmp/ccelrT3C.s 			page 15


DEFINED SYMBOLS
                            *ABS*:0000000000000000 mySemaphore.cpp
     /tmp/ccelrT3C.s:9      .text:0000000000000000 _ZN11MySemaphore4waitEv
     /tmp/ccelrT3C.s:13     .text:0000000000000000 .L0 
     /tmp/ccelrT3C.s:15     .text:0000000000000000 .L0 
     /tmp/ccelrT3C.s:16     .text:0000000000000000 .L0 
     /tmp/ccelrT3C.s:17     .text:0000000000000000 .L0 
     /tmp/ccelrT3C.s:19     .text:0000000000000004 .L0 
     /tmp/ccelrT3C.s:21     .text:0000000000000008 .L0 
     /tmp/ccelrT3C.s:22     .text:000000000000000c .L0 
     /tmp/ccelrT3C.s:27     .text:000000000000001c .L0 
     /tmp/ccelrT3C.s:28     .text:000000000000001c .L0 
     /tmp/ccelrT3C.s:29     .text:000000000000001c .L0 
     /tmp/ccelrT3C.s:30     .text:000000000000001c .L0 
     /tmp/ccelrT3C.s:32     .text:0000000000000020 .L0 
     /tmp/ccelrT3C.s:35     .text:0000000000000024 .L0 
     /tmp/ccelrT3C.s:36     .text:0000000000000024 .L0 
     /tmp/ccelrT3C.s:38     .text:0000000000000028 .L0 
     /tmp/ccelrT3C.s:40     .text:000000000000002c .L0 
     /tmp/ccelrT3C.s:42     .text:0000000000000030 .L0 
     /tmp/ccelrT3C.s:45     .text:0000000000000038 .L0 
     /tmp/ccelrT3C.s:49     .text:000000000000003c .L0 
     /tmp/ccelrT3C.s:50     .text:0000000000000040 .L0 
     /tmp/ccelrT3C.s:51     .text:0000000000000040 .L0 
     /tmp/ccelrT3C.s:53     .text:0000000000000044 .L0 
     /tmp/ccelrT3C.s:54     .text:0000000000000044 .L0 
     /tmp/ccelrT3C.s:56     .text:0000000000000048 .L0 
     /tmp/ccelrT3C.s:59     .text:000000000000004c .L0 
     /tmp/ccelrT3C.s:61     .text:0000000000000050 .L0 
     /tmp/ccelrT3C.s:65     .text:0000000000000054 .L0 
     /tmp/ccelrT3C.s:67     .text:0000000000000054 .L0 
     /tmp/ccelrT3C.s:68     .text:0000000000000054 .L0 
     /tmp/ccelrT3C.s:77     .text:0000000000000060 .L0 
     /tmp/ccelrT3C.s:85     .text:000000000000006c .L0 
     /tmp/ccelrT3C.s:91     .text:0000000000000074 .L0 
     /tmp/ccelrT3C.s:93     .text:0000000000000078 .L0 
     /tmp/ccelrT3C.s:95     .text:000000000000007c .L0 
     /tmp/ccelrT3C.s:97     .text:0000000000000080 .L0 
     /tmp/ccelrT3C.s:103    .text:0000000000000084 .L0 
     /tmp/ccelrT3C.s:104    .text:0000000000000084 .L0 
     /tmp/ccelrT3C.s:111    .text:0000000000000090 .L0 
     /tmp/ccelrT3C.s:112    .text:0000000000000090 .L0 
     /tmp/ccelrT3C.s:118    .text:0000000000000098 .L0 
     /tmp/ccelrT3C.s:119    .text:0000000000000098 .L0 
     /tmp/ccelrT3C.s:122    .text:00000000000000a0 .L0 
     /tmp/ccelrT3C.s:123    .text:00000000000000a0 .L0 
     /tmp/ccelrT3C.s:125    .text:00000000000000a4 .L0 
     /tmp/ccelrT3C.s:127    .text:00000000000000a8 .L0 
     /tmp/ccelrT3C.s:134    .text:00000000000000b0 .L0 
     /tmp/ccelrT3C.s:139    .text:00000000000000bc .L0 
     /tmp/ccelrT3C.s:140    .text:00000000000000bc .L0 
     /tmp/ccelrT3C.s:141    .text:00000000000000bc .L0 
     /tmp/ccelrT3C.s:142    .text:00000000000000bc .L0 
     /tmp/ccelrT3C.s:143    .text:00000000000000bc .L0 
     /tmp/ccelrT3C.s:147    .text:00000000000000bc .L0 
     /tmp/ccelrT3C.s:150    .text:00000000000000c0 .L0 
     /tmp/ccelrT3C.s:153    .text:00000000000000c4 .L0 
GAS LISTING /tmp/ccelrT3C.s 			page 16


     /tmp/ccelrT3C.s:154    .text:00000000000000c4 .L0 
     /tmp/ccelrT3C.s:155    .text:00000000000000c4 .L0 
     /tmp/ccelrT3C.s:156    .text:00000000000000c4 .L0 
     /tmp/ccelrT3C.s:157    .text:00000000000000c4 .L0 
     /tmp/ccelrT3C.s:159    .text:00000000000000c4 .L0 
     /tmp/ccelrT3C.s:161    .text:00000000000000cc .L0 
     /tmp/ccelrT3C.s:167    .text:00000000000000cc _ZN11MySemaphore6signalEv
     /tmp/ccelrT3C.s:170    .text:00000000000000cc .L0 
     /tmp/ccelrT3C.s:172    .text:00000000000000cc .L0 
     /tmp/ccelrT3C.s:173    .text:00000000000000cc .L0 
     /tmp/ccelrT3C.s:174    .text:00000000000000cc .L0 
     /tmp/ccelrT3C.s:176    .text:00000000000000d0 .L0 
     /tmp/ccelrT3C.s:180    .text:00000000000000d8 .L0 
     /tmp/ccelrT3C.s:181    .text:00000000000000d8 .L0 
     /tmp/ccelrT3C.s:183    .text:00000000000000dc .L0 
     /tmp/ccelrT3C.s:185    .text:00000000000000e0 .L0 
     /tmp/ccelrT3C.s:187    .text:00000000000000e4 .L0 
     /tmp/ccelrT3C.s:189    .text:00000000000000e8 .L0 
     /tmp/ccelrT3C.s:192    .text:00000000000000ec .L0 
     /tmp/ccelrT3C.s:195    .text:00000000000000f0 .L0 
     /tmp/ccelrT3C.s:199    .text:00000000000000f4 .L0 
     /tmp/ccelrT3C.s:200    .text:00000000000000f8 .L0 
     /tmp/ccelrT3C.s:204    .text:0000000000000104 .L0 
     /tmp/ccelrT3C.s:205    .text:0000000000000104 .L0 
     /tmp/ccelrT3C.s:206    .text:0000000000000104 .L0 
     /tmp/ccelrT3C.s:208    .text:0000000000000108 .L0 
     /tmp/ccelrT3C.s:212    .text:0000000000000108 .L0 
     /tmp/ccelrT3C.s:216    .text:0000000000000108 .L0 
     /tmp/ccelrT3C.s:217    .text:0000000000000108 .L0 
     /tmp/ccelrT3C.s:220    .text:000000000000010c .L0 
     /tmp/ccelrT3C.s:223    .text:0000000000000110 .L0 
     /tmp/ccelrT3C.s:225    .text:0000000000000114 .L0 
     /tmp/ccelrT3C.s:227    .text:0000000000000118 .L0 
     /tmp/ccelrT3C.s:230    .text:000000000000011c .L0 
     /tmp/ccelrT3C.s:235    .text:0000000000000120 .L0 
     /tmp/ccelrT3C.s:245    .text:0000000000000128 .L0 
     /tmp/ccelrT3C.s:246    .text:0000000000000128 .L0 
     /tmp/ccelrT3C.s:247    .text:0000000000000128 .L0 
     /tmp/ccelrT3C.s:252    .text:000000000000012c .L0 
     /tmp/ccelrT3C.s:253    .text:000000000000012c .L0 
     /tmp/ccelrT3C.s:259    .text:0000000000000138 .L0 
     /tmp/ccelrT3C.s:261    .text:000000000000013c .L0 
     /tmp/ccelrT3C.s:262    .text:0000000000000140 .L0 
     /tmp/ccelrT3C.s:263    .text:0000000000000140 .L0 
     /tmp/ccelrT3C.s:265    .text:0000000000000144 .L0 
     /tmp/ccelrT3C.s:266    .text:0000000000000144 .L0 
     /tmp/ccelrT3C.s:268    .text:0000000000000148 .L0 
     /tmp/ccelrT3C.s:271    .text:000000000000014c .L0 
     /tmp/ccelrT3C.s:275    .text:0000000000000150 .L0 
     /tmp/ccelrT3C.s:281    .text:0000000000000150 .L0 
     /tmp/ccelrT3C.s:286    .text:0000000000000158 .L0 
     /tmp/ccelrT3C.s:290    .text:0000000000000160 .L0 
     /tmp/ccelrT3C.s:291    .text:0000000000000160 .L0 
     /tmp/ccelrT3C.s:292    .text:0000000000000160 .L0 
     /tmp/ccelrT3C.s:293    .text:0000000000000160 .L0 
     /tmp/ccelrT3C.s:299    .text:0000000000000160 .L0 
     /tmp/ccelrT3C.s:302    .text:0000000000000168 .L0 
GAS LISTING /tmp/ccelrT3C.s 			page 17


     /tmp/ccelrT3C.s:308    .text:0000000000000168 _ZN11MySemaphore15createSemaphoreEj
     /tmp/ccelrT3C.s:311    .text:0000000000000168 .L0 
     /tmp/ccelrT3C.s:313    .text:0000000000000168 .L0 
     /tmp/ccelrT3C.s:314    .text:000000000000016c .L0 
     /tmp/ccelrT3C.s:318    .text:0000000000000178 .L0 
     /tmp/ccelrT3C.s:319    .text:0000000000000178 .L0 
     /tmp/ccelrT3C.s:320    .text:0000000000000178 .L0 
     /tmp/ccelrT3C.s:322    .text:000000000000017c .L0 
     /tmp/ccelrT3C.s:329    .text:0000000000000180 .L0 
     /tmp/ccelrT3C.s:330    .text:0000000000000180 .L0 
     /tmp/ccelrT3C.s:331    .text:0000000000000180 .L0 
     /tmp/ccelrT3C.s:332    .text:0000000000000180 .L0 
     /tmp/ccelrT3C.s:333    .text:0000000000000180 .L0 
     /tmp/ccelrT3C.s:334    .text:0000000000000180 .L0 
     /tmp/ccelrT3C.s:345    .text:000000000000018c .L0 
     /tmp/ccelrT3C.s:351    .text:0000000000000194 .L0 
     /tmp/ccelrT3C.s:352    .text:0000000000000194 .L0 
     /tmp/ccelrT3C.s:354    .text:0000000000000198 .L0 
     /tmp/ccelrT3C.s:355    .text:0000000000000198 .L0 
     /tmp/ccelrT3C.s:360    .text:000000000000019c .L0 
     /tmp/ccelrT3C.s:361    .text:00000000000001a0 .L0 
     /tmp/ccelrT3C.s:363    .text:00000000000001a4 .L0 
     /tmp/ccelrT3C.s:364    .text:00000000000001a4 .L0 
     /tmp/ccelrT3C.s:366    .text:00000000000001a8 .L0 
     /tmp/ccelrT3C.s:368    .text:00000000000001ac .L0 
     /tmp/ccelrT3C.s:370    .text:00000000000001b0 .L0 
     /tmp/ccelrT3C.s:376    .text:00000000000001b0 _ZN11MySemaphore5closeEv
     /tmp/ccelrT3C.s:379    .text:00000000000001b0 .L0 
     /tmp/ccelrT3C.s:381    .text:00000000000001b0 .L0 
     /tmp/ccelrT3C.s:382    .text:00000000000001b0 .L0 
     /tmp/ccelrT3C.s:383    .text:00000000000001b0 .L0 
     /tmp/ccelrT3C.s:385    .text:00000000000001b4 .L0 
     /tmp/ccelrT3C.s:387    .text:00000000000001b8 .L0 
     /tmp/ccelrT3C.s:388    .text:00000000000001bc .L0 
     /tmp/ccelrT3C.s:393    .text:00000000000001cc .L0 
     /tmp/ccelrT3C.s:394    .text:00000000000001cc .L0 
     /tmp/ccelrT3C.s:395    .text:00000000000001cc .L0 
     /tmp/ccelrT3C.s:396    .text:00000000000001cc .L0 
     /tmp/ccelrT3C.s:398    .text:00000000000001d0 .L0 
     /tmp/ccelrT3C.s:401    .text:00000000000001d4 .L0 
     /tmp/ccelrT3C.s:402    .text:00000000000001d4 .L0 
     /tmp/ccelrT3C.s:411    .text:00000000000001e0 .L0 
     /tmp/ccelrT3C.s:414    .text:00000000000001e4 .L0 
     /tmp/ccelrT3C.s:419    .text:00000000000001e8 .L0 
     /tmp/ccelrT3C.s:428    .text:00000000000001f0 .L0 
     /tmp/ccelrT3C.s:429    .text:00000000000001f0 .L0 
     /tmp/ccelrT3C.s:430    .text:00000000000001f0 .L0 
     /tmp/ccelrT3C.s:435    .text:00000000000001f4 .L0 
     /tmp/ccelrT3C.s:436    .text:00000000000001f4 .L0 
     /tmp/ccelrT3C.s:442    .text:0000000000000200 .L0 
     /tmp/ccelrT3C.s:445    .text:0000000000000200 .L0 
     /tmp/ccelrT3C.s:446    .text:0000000000000200 .L0 
     /tmp/ccelrT3C.s:448    .text:0000000000000204 .L0 
     /tmp/ccelrT3C.s:450    .text:0000000000000208 .L0 
     /tmp/ccelrT3C.s:455    .text:000000000000020c .L0 
     /tmp/ccelrT3C.s:461    .text:0000000000000210 .L0 
     /tmp/ccelrT3C.s:462    .text:0000000000000210 .L0 
GAS LISTING /tmp/ccelrT3C.s 			page 18


     /tmp/ccelrT3C.s:464    .text:0000000000000214 .L0 
     /tmp/ccelrT3C.s:466    .text:0000000000000218 .L0 
     /tmp/ccelrT3C.s:470    .text:0000000000000220 .L0 
     /tmp/ccelrT3C.s:471    .text:0000000000000220 .L0 
     /tmp/ccelrT3C.s:472    .text:0000000000000220 .L0 
     /tmp/ccelrT3C.s:473    .text:0000000000000220 .L0 
     /tmp/ccelrT3C.s:474    .text:0000000000000220 .L0 
     /tmp/ccelrT3C.s:479    .text:0000000000000220 .L0 
     /tmp/ccelrT3C.s:482    .text:0000000000000224 .L0 
     /tmp/ccelrT3C.s:485    .text:0000000000000228 .L0 
     /tmp/ccelrT3C.s:486    .text:0000000000000228 .L0 
     /tmp/ccelrT3C.s:487    .text:0000000000000228 .L0 
     /tmp/ccelrT3C.s:488    .text:0000000000000228 .L0 
     /tmp/ccelrT3C.s:489    .text:0000000000000228 .L0 
     /tmp/ccelrT3C.s:491    .text:0000000000000228 .L0 
     /tmp/ccelrT3C.s:495    .text:000000000000022c .L0 
     /tmp/ccelrT3C.s:496    .text:0000000000000230 .L0 
     /tmp/ccelrT3C.s:497    .text:0000000000000230 .L0 
     /tmp/ccelrT3C.s:499    .text:0000000000000234 .L0 
     /tmp/ccelrT3C.s:500    .text:0000000000000234 .L0 
     /tmp/ccelrT3C.s:502    .text:0000000000000238 .L0 
     /tmp/ccelrT3C.s:505    .text:000000000000023c .L0 
     /tmp/ccelrT3C.s:507    .text:0000000000000240 .L0 
     /tmp/ccelrT3C.s:511    .text:0000000000000244 .L0 
     /tmp/ccelrT3C.s:513    .text:0000000000000244 .L0 
     /tmp/ccelrT3C.s:515    .text:000000000000024c .L0 
     /tmp/ccelrT3C.s:523    .text:000000000000024c .L0 
     /tmp/ccelrT3C.s:68     .text:0000000000000054 .L0 
     /tmp/ccelrT3C.s:104    .text:0000000000000084 .L0 
     /tmp/ccelrT3C.s:138    .text:00000000000000bc .L5
     /tmp/ccelrT3C.s:64     .text:0000000000000054 .L12
     /tmp/ccelrT3C.s:130    .text:00000000000000b0 .L3
     /tmp/ccelrT3C.s:152    .text:00000000000000c4 .L7
     /tmp/ccelrT3C.s:47     .text:000000000000003c .L2
     /tmp/ccelrT3C.s:98     .text:0000000000000084 .L4
     /tmp/ccelrT3C.s:289    .text:0000000000000160 .L17
     /tmp/ccelrT3C.s:197    .text:00000000000000f4 .L24
     /tmp/ccelrT3C.s:284    .text:0000000000000158 .L19
     /tmp/ccelrT3C.s:274    .text:0000000000000150 .L25
     /tmp/ccelrT3C.s:228    .text:000000000000011c .L16
     /tmp/ccelrT3C.s:237    .text:0000000000000128 .L15
     /tmp/ccelrT3C.s:469    .text:0000000000000220 .L32
     /tmp/ccelrT3C.s:439    .text:0000000000000200 .L31
     /tmp/ccelrT3C.s:484    .text:0000000000000228 .L33
     /tmp/ccelrT3C.s:510    .text:0000000000000244 .L34
     /tmp/ccelrT3C.s:412    .text:00000000000001e4 .L30
     /tmp/ccelrT3C.s:406    .text:00000000000001e0 .L39
     /tmp/ccelrT3C.s:493    .text:000000000000022c .L29
     /tmp/ccelrT3C.s:2118   .debug_abbrev:0000000000000000 .Ldebug_abbrev0
     /tmp/ccelrT3C.s:3894   .debug_str:00000000000007a5 .LASF132
     /tmp/ccelrT3C.s:3814   .debug_str:000000000000055a .LASF133
     /tmp/ccelrT3C.s:3802   .debug_str:00000000000004cb .LASF134
     /tmp/ccelrT3C.s:5      .text:0000000000000000 .Ltext0
     /tmp/ccelrT3C.s:518    .text:000000000000024c .Letext0
     /tmp/ccelrT3C.s:3648   .debug_line:0000000000000000 .Ldebug_line0
     /tmp/ccelrT3C.s:3818   .debug_str:0000000000000581 .LASF0
     /tmp/ccelrT3C.s:3832   .debug_str:00000000000005f2 .LASF1
GAS LISTING /tmp/ccelrT3C.s 			page 19


     /tmp/ccelrT3C.s:3794   .debug_str:00000000000004a4 .LASF2
     /tmp/ccelrT3C.s:3762   .debug_str:00000000000003bb .LASF4
     /tmp/ccelrT3C.s:3878   .debug_str:000000000000072f .LASF3
     /tmp/ccelrT3C.s:3678   .debug_str:00000000000000b8 .LASF5
     /tmp/ccelrT3C.s:3834   .debug_str:0000000000000605 .LASF6
     /tmp/ccelrT3C.s:3816   .debug_str:000000000000056e .LASF7
     /tmp/ccelrT3C.s:3912   .debug_str:00000000000008e4 .LASF8
     /tmp/ccelrT3C.s:3746   .debug_str:000000000000032b .LASF9
     /tmp/ccelrT3C.s:3846   .debug_str:000000000000065d .LASF10
     /tmp/ccelrT3C.s:3898   .debug_str:0000000000000875 .LASF11
     /tmp/ccelrT3C.s:3682   .debug_str:00000000000000ca .LASF12
     /tmp/ccelrT3C.s:3656   .debug_str:000000000000002b .LASF13
     /tmp/ccelrT3C.s:3692   .debug_str:000000000000012e .LASF14
     /tmp/ccelrT3C.s:3870   .debug_str:00000000000006fb .LASF15
     /tmp/ccelrT3C.s:3706   .debug_str:00000000000001ab .LASF16
     /tmp/ccelrT3C.s:3892   .debug_str:000000000000079b .LASF34
     /tmp/ccelrT3C.s:3934   .debug_str:00000000000009b5 .LASF17
     /tmp/ccelrT3C.s:3926   .debug_str:0000000000000970 .LASF18
     /tmp/ccelrT3C.s:3888   .debug_str:0000000000000788 .LASF19
     /tmp/ccelrT3C.s:3790   .debug_str:000000000000048d .LASF30
     /tmp/ccelrT3C.s:3728   .debug_str:000000000000027c .LASF20
     /tmp/ccelrT3C.s:3908   .debug_str:00000000000008ca .LASF21
     /tmp/ccelrT3C.s:3876   .debug_str:0000000000000725 .LASF22
     /tmp/ccelrT3C.s:3672   .debug_str:0000000000000094 .LASF23
     /tmp/ccelrT3C.s:3810   .debug_str:0000000000000548 .LASF24
     /tmp/ccelrT3C.s:3904   .debug_str:00000000000008a2 .LASF25
     /tmp/ccelrT3C.s:3880   .debug_str:0000000000000741 .LASF26
     /tmp/ccelrT3C.s:3886   .debug_str:0000000000000767 .LASF28
     /tmp/ccelrT3C.s:3850   .debug_str:000000000000067d .LASF27
     /tmp/ccelrT3C.s:3744   .debug_str:000000000000030a .LASF29
     /tmp/ccelrT3C.s:3724   .debug_str:000000000000024c .LASF37
     /tmp/ccelrT3C.s:3928   .debug_str:0000000000000975 .LASF38
     /tmp/ccelrT3C.s:3890   .debug_str:000000000000078d .LASF81
     /tmp/ccelrT3C.s:3726   .debug_str:0000000000000256 .LASF83
     /tmp/ccelrT3C.s:3844   .debug_str:0000000000000653 .LASF31
     /tmp/ccelrT3C.s:3736   .debug_str:00000000000002c3 .LASF32
     /tmp/ccelrT3C.s:3756   .debug_str:000000000000037a .LASF135
     /tmp/ccelrT3C.s:3690   .debug_str:0000000000000116 .LASF136
     /tmp/ccelrT3C.s:3786   .debug_str:0000000000000476 .LASF33
     /tmp/ccelrT3C.s:3900   .debug_str:0000000000000884 .LASF35
     /tmp/ccelrT3C.s:3862   .debug_str:00000000000006bc .LASF36
     /tmp/ccelrT3C.s:3806   .debug_str:000000000000051f .LASF39
     /tmp/ccelrT3C.s:3922   .debug_str:0000000000000934 .LASF40
     /tmp/ccelrT3C.s:3710   .debug_str:00000000000001c7 .LASF41
     /tmp/ccelrT3C.s:3742   .debug_str:00000000000002fa .LASF42
     /tmp/ccelrT3C.s:3684   .debug_str:00000000000000da .LASF43
     /tmp/ccelrT3C.s:3884   .debug_str:0000000000000757 .LASF44
     /tmp/ccelrT3C.s:3902   .debug_str:0000000000000889 .LASF98
     /tmp/ccelrT3C.s:3764   .debug_str:00000000000003c2 .LASF89
     /tmp/ccelrT3C.s:3938   .debug_str:00000000000009d1 .LASF137
     /tmp/ccelrT3C.s:3714   .debug_str:00000000000001f4 .LASF45
     /tmp/ccelrT3C.s:3800   .debug_str:00000000000004c6 .LASF46
     /tmp/ccelrT3C.s:3760   .debug_str:00000000000003b6 .LASF47
     /tmp/ccelrT3C.s:3822   .debug_str:0000000000000597 .LASF48
     /tmp/ccelrT3C.s:3868   .debug_str:00000000000006e4 .LASF54
     /tmp/ccelrT3C.s:3808   .debug_str:000000000000053e .LASF138
     /tmp/ccelrT3C.s:3752   .debug_str:000000000000034a .LASF139
GAS LISTING /tmp/ccelrT3C.s 			page 20


     /tmp/ccelrT3C.s:3674   .debug_str:00000000000000a3 .LASF49
     /tmp/ccelrT3C.s:3720   .debug_str:000000000000022a .LASF50
     /tmp/ccelrT3C.s:3798   .debug_str:00000000000004be .LASF51
     /tmp/ccelrT3C.s:3718   .debug_str:000000000000020e .LASF52
     /tmp/ccelrT3C.s:3896   .debug_str:0000000000000869 .LASF53
     /tmp/ccelrT3C.s:3654   .debug_str:000000000000000d .LASF55
     /tmp/ccelrT3C.s:3688   .debug_str:000000000000010c .LASF56
     /tmp/ccelrT3C.s:3778   .debug_str:000000000000042f .LASF57
     /tmp/ccelrT3C.s:3824   .debug_str:00000000000005aa .LASF58
     /tmp/ccelrT3C.s:3670   .debug_str:0000000000000077 .LASF59
     /tmp/ccelrT3C.s:3782   .debug_str:000000000000045f .LASF60
     /tmp/ccelrT3C.s:3772   .debug_str:00000000000003eb .LASF61
     /tmp/ccelrT3C.s:3664   .debug_str:0000000000000060 .LASF62
     /tmp/ccelrT3C.s:3722   .debug_str:0000000000000247 .LASF63
     /tmp/ccelrT3C.s:3856   .debug_str:00000000000006a6 .LASF64
     /tmp/ccelrT3C.s:3836   .debug_str:0000000000000618 .LASF65
     /tmp/ccelrT3C.s:3700   .debug_str:000000000000017b .LASF66
     /tmp/ccelrT3C.s:3796   .debug_str:00000000000004b2 .LASF67
     /tmp/ccelrT3C.s:3936   .debug_str:00000000000009ba .LASF68
     /tmp/ccelrT3C.s:3662   .debug_str:0000000000000056 .LASF69
     /tmp/ccelrT3C.s:3780   .debug_str:000000000000044a .LASF70
     /tmp/ccelrT3C.s:3872   .debug_str:0000000000000711 .LASF71
     /tmp/ccelrT3C.s:3906   .debug_str:00000000000008b4 .LASF72
     /tmp/ccelrT3C.s:3666   .debug_str:0000000000000068 .LASF73
     /tmp/ccelrT3C.s:3704   .debug_str:0000000000000199 .LASF74
     /tmp/ccelrT3C.s:3776   .debug_str:0000000000000422 .LASF75
     /tmp/ccelrT3C.s:3830   .debug_str:00000000000005d2 .LASF76
     /tmp/ccelrT3C.s:3860   .debug_str:00000000000006b7 .LASF140
     /tmp/ccelrT3C.s:3696   .debug_str:0000000000000140 .LASF77
     /tmp/ccelrT3C.s:3924   .debug_str:0000000000000941 .LASF78
     /tmp/ccelrT3C.s:3882   .debug_str:000000000000074b .LASF79
     /tmp/ccelrT3C.s:3730   .debug_str:0000000000000281 .LASF80
     /tmp/ccelrT3C.s:3660   .debug_str:0000000000000050 .LASF82
     /tmp/ccelrT3C.s:3804   .debug_str:000000000000050f .LASF84
     /tmp/ccelrT3C.s:3828   .debug_str:00000000000005ca .LASF85
     /tmp/ccelrT3C.s:3676   .debug_str:00000000000000ac .LASF86
     /tmp/ccelrT3C.s:3748   .debug_str:0000000000000339 .LASF87
     /tmp/ccelrT3C.s:3864   .debug_str:00000000000006c1 .LASF88
     /tmp/ccelrT3C.s:3788   .debug_str:0000000000000480 .LASF90
     /tmp/ccelrT3C.s:3854   .debug_str:0000000000000692 .LASF141
     /tmp/ccelrT3C.s:3768   .debug_str:00000000000003de .LASF91
     /tmp/ccelrT3C.s:3694   .debug_str:000000000000013a .LASF92
     /tmp/ccelrT3C.s:3770   .debug_str:00000000000003e3 .LASF93
     /tmp/ccelrT3C.s:3766   .debug_str:00000000000003d5 .LASF94
     /tmp/ccelrT3C.s:3652   .debug_str:0000000000000005 .LASF95
     /tmp/ccelrT3C.s:3840   .debug_str:000000000000063b .LASF96
     /tmp/ccelrT3C.s:3784   .debug_str:0000000000000468 .LASF100
     /tmp/ccelrT3C.s:3754   .debug_str:0000000000000361 .LASF102
     /tmp/ccelrT3C.s:3920   .debug_str:0000000000000926 .LASF97
     /tmp/ccelrT3C.s:3758   .debug_str:000000000000038e .LASF99
     /tmp/ccelrT3C.s:3820   .debug_str:000000000000058e .LASF101
     /tmp/ccelrT3C.s:3842   .debug_str:0000000000000640 .LASF103
     /tmp/ccelrT3C.s:3650   .debug_str:0000000000000000 .LASF104
     /tmp/ccelrT3C.s:3848   .debug_str:000000000000066c .LASF105
     /tmp/ccelrT3C.s:3680   .debug_str:00000000000000bf .LASF142
     /tmp/ccelrT3C.s:3732   .debug_str:000000000000029a .LASF106
     /tmp/ccelrT3C.s:3852   .debug_str:0000000000000686 .LASF107
GAS LISTING /tmp/ccelrT3C.s 			page 21


     /tmp/ccelrT3C.s:3910   .debug_str:00000000000008cf .LASF108
     /tmp/ccelrT3C.s:3812   .debug_str:0000000000000555 .LASF109
     /tmp/ccelrT3C.s:3838   .debug_str:0000000000000623 .LASF110
     /tmp/ccelrT3C.s:3702   .debug_str:0000000000000192 .LASF111
     /tmp/ccelrT3C.s:3686   .debug_str:00000000000000f2 .LASF112
     /tmp/ccelrT3C.s:3930   .debug_str:00000000000009a0 .LASF113
     /tmp/ccelrT3C.s:3734   .debug_str:000000000000029f .LASF114
     /tmp/ccelrT3C.s:3874   .debug_str:000000000000071c .LASF115
     /tmp/ccelrT3C.s:3774   .debug_str:0000000000000405 .LASF116
     /tmp/ccelrT3C.s:3918   .debug_str:0000000000000920 .LASF117
     /tmp/ccelrT3C.s:3916   .debug_str:0000000000000907 .LASF118
     /tmp/ccelrT3C.s:3658   .debug_str:000000000000003b .LASF119
     /tmp/ccelrT3C.s:3826   .debug_str:00000000000005b5 .LASF120
     /tmp/ccelrT3C.s:3738   .debug_str:00000000000002d4 .LASF121
     /tmp/ccelrT3C.s:3866   .debug_str:00000000000006ce .LASF122
     /tmp/ccelrT3C.s:3792   .debug_str:000000000000049d .LASF123
     /tmp/ccelrT3C.s:3708   .debug_str:00000000000001c1 .LASF124
     /tmp/ccelrT3C.s:3932   .debug_str:00000000000009b0 .LASF125
     /tmp/ccelrT3C.s:3698   .debug_str:000000000000015c .LASF128
     /tmp/ccelrT3C.s:3668   .debug_str:000000000000006f .LASF126
     /tmp/ccelrT3C.s:3858   .debug_str:00000000000006b2 .LASF127
     /tmp/ccelrT3C.s:3914   .debug_str:00000000000008f4 .LASF129
     /tmp/ccelrT3C.s:377    .text:00000000000001b0 .LFB40
     /tmp/ccelrT3C.s:516    .text:000000000000024c .LFE40
     /tmp/ccelrT3C.s:3189   .debug_loc:0000000000000000 .LLST25
     /tmp/ccelrT3C.s:3616   .debug_ranges:0000000000000000 .Ldebug_ranges0
     /tmp/ccelrT3C.s:3226   .debug_loc:000000000000009b .LLST26
     /tmp/ccelrT3C.s:408    .text:00000000000001e0 .LBB77
     /tmp/ccelrT3C.s:3233   .debug_loc:00000000000000be .LLST27
     /tmp/ccelrT3C.s:3248   .debug_loc:00000000000000f8 .LLST28
     /tmp/ccelrT3C.s:3259   .debug_loc:000000000000012e .LLST29
     /tmp/ccelrT3C.s:416    .text:00000000000001e8 .LBB79
     /tmp/ccelrT3C.s:422    .text:00000000000001f0 .LBE79
     /tmp/ccelrT3C.s:3266   .debug_loc:0000000000000151 .LLST30
     /tmp/ccelrT3C.s:420    .text:00000000000001f0 .LVL39
     /tmp/ccelrT3C.s:426    .text:00000000000001f0 .LBB82
     /tmp/ccelrT3C.s:433    .text:00000000000001f4 .LBE82
     /tmp/ccelrT3C.s:3273   .debug_loc:0000000000000174 .LLST31
     /tmp/ccelrT3C.s:3281   .debug_loc:0000000000000198 .LLST32
     /tmp/ccelrT3C.s:438    .text:0000000000000200 .LVL41
     /tmp/ccelrT3C.s:443    .text:0000000000000200 .LBB85
     /tmp/ccelrT3C.s:453    .text:000000000000020c .LBE85
     /tmp/ccelrT3C.s:3288   .debug_loc:00000000000001bb .LLST33
     /tmp/ccelrT3C.s:309    .text:0000000000000168 .LFB39
     /tmp/ccelrT3C.s:371    .text:00000000000001b0 .LFE39
     /tmp/ccelrT3C.s:3750   .debug_str:0000000000000345 .LASF130
     /tmp/ccelrT3C.s:3303   .debug_loc:00000000000001f5 .LLST19
     /tmp/ccelrT3C.s:326    .text:0000000000000180 .LBB70
     /tmp/ccelrT3C.s:339    .text:000000000000018c .LBE70
     /tmp/ccelrT3C.s:3317   .debug_loc:000000000000022e .LLST20
     /tmp/ccelrT3C.s:3325   .debug_loc:0000000000000252 .LLST21
     /tmp/ccelrT3C.s:337    .text:000000000000018c .LVL33
     /tmp/ccelrT3C.s:340    .text:000000000000018c .LBB72
     /tmp/ccelrT3C.s:358    .text:000000000000019c .LBE72
     /tmp/ccelrT3C.s:3334   .debug_loc:0000000000000277 .LLST22
     /tmp/ccelrT3C.s:3341   .debug_loc:000000000000029a .LLST23
     /tmp/ccelrT3C.s:342    .text:000000000000018c .LBB74
GAS LISTING /tmp/ccelrT3C.s 			page 22


     /tmp/ccelrT3C.s:349    .text:0000000000000194 .LBE74
     /tmp/ccelrT3C.s:3348   .debug_loc:00000000000002bd .LLST24
     /tmp/ccelrT3C.s:168    .text:00000000000000cc .LFB38
     /tmp/ccelrT3C.s:303    .text:0000000000000168 .LFE38
     /tmp/ccelrT3C.s:3357   .debug_loc:00000000000002e2 .LLST11
     /tmp/ccelrT3C.s:3398   .debug_loc:0000000000000390 .LLST12
     /tmp/ccelrT3C.s:214    .text:0000000000000108 .LBB59
     /tmp/ccelrT3C.s:3405   .debug_loc:00000000000003b3 .LLST13
     /tmp/ccelrT3C.s:3435   .debug_loc:000000000000041a .LLST14
     /tmp/ccelrT3C.s:3446   .debug_loc:0000000000000450 .LLST15
     /tmp/ccelrT3C.s:232    .text:0000000000000120 .LBB61
     /tmp/ccelrT3C.s:239    .text:0000000000000128 .LBE61
     /tmp/ccelrT3C.s:3453   .debug_loc:0000000000000473 .LLST16
     /tmp/ccelrT3C.s:236    .text:0000000000000128 .LVL22
     /tmp/ccelrT3C.s:243    .text:0000000000000128 .LBB64
     /tmp/ccelrT3C.s:250    .text:000000000000012c .LBE64
     /tmp/ccelrT3C.s:3460   .debug_loc:0000000000000496 .LLST17
     /tmp/ccelrT3C.s:3468   .debug_loc:00000000000004ba .LLST18
     /tmp/ccelrT3C.s:255    .text:0000000000000138 .LVL24
     /tmp/ccelrT3C.s:10     .text:0000000000000000 .LFB37
     /tmp/ccelrT3C.s:162    .text:00000000000000cc .LFE37
     /tmp/ccelrT3C.s:3475   .debug_loc:00000000000004dd .LLST0
     /tmp/ccelrT3C.s:71     .text:0000000000000060 .LBB47
     /tmp/ccelrT3C.s:3512   .debug_loc:0000000000000578 .LLST1
     /tmp/ccelrT3C.s:3523   .debug_loc:00000000000005ae .LLST2
     /tmp/ccelrT3C.s:3538   .debug_loc:00000000000005e8 .LLST3
     /tmp/ccelrT3C.s:73     .text:0000000000000060 .LBB49
     /tmp/ccelrT3C.s:81     .text:000000000000006c .LBE49
     /tmp/ccelrT3C.s:3549   .debug_loc:000000000000061e .LLST4
     /tmp/ccelrT3C.s:3557   .debug_loc:0000000000000642 .LLST5
     /tmp/ccelrT3C.s:79     .text:000000000000006c .LVL5
     /tmp/ccelrT3C.s:82     .text:000000000000006c .LBB51
     /tmp/ccelrT3C.s:89     .text:0000000000000074 .LBE51
     /tmp/ccelrT3C.s:3566   .debug_loc:0000000000000667 .LLST6
     /tmp/ccelrT3C.s:3574   .debug_loc:000000000000068b .LLST7
     /tmp/ccelrT3C.s:3581   .debug_loc:00000000000006ae .LLST8
     /tmp/ccelrT3C.s:107    .text:0000000000000090 .LBB54
     /tmp/ccelrT3C.s:116    .text:0000000000000098 .LBE54
     /tmp/ccelrT3C.s:3588   .debug_loc:00000000000006d1 .LLST9
     /tmp/ccelrT3C.s:3596   .debug_loc:00000000000006f5 .LLST10
     /tmp/ccelrT3C.s:120    .text:00000000000000a0 .LVL10
     /tmp/ccelrT3C.s:3712   .debug_str:00000000000001df .LASF131
     /tmp/ccelrT3C.s:3716   .debug_str:00000000000001f9 .LASF143
     /tmp/ccelrT3C.s:3740   .debug_str:00000000000002ea .LASF144
     /tmp/ccelrT3C.s:380    .text:00000000000001b0 .LVL36
     /tmp/ccelrT3C.s:405    .text:00000000000001e0 .LVL37
     /tmp/ccelrT3C.s:468    .text:0000000000000220 .LVL44
     /tmp/ccelrT3C.s:480    .text:0000000000000224 .LVL45
     /tmp/ccelrT3C.s:483    .text:0000000000000228 .LVL46
     /tmp/ccelrT3C.s:503    .text:0000000000000238 .LVL48
     /tmp/ccelrT3C.s:509    .text:0000000000000244 .LVL49
     /tmp/ccelrT3C.s:458    .text:0000000000000210 .LVL43
     /tmp/ccelrT3C.s:415    .text:00000000000001e8 .LVL38
     /tmp/ccelrT3C.s:431    .text:00000000000001f4 .LVL40
     /tmp/ccelrT3C.s:451    .text:000000000000020c .LVL42
     /tmp/ccelrT3C.s:492    .text:000000000000022c .LVL47
     /tmp/ccelrT3C.s:312    .text:0000000000000168 .LVL30
GAS LISTING /tmp/ccelrT3C.s 			page 23


     /tmp/ccelrT3C.s:335    .text:0000000000000184 .LVL32
     /tmp/ccelrT3C.s:325    .text:0000000000000180 .LVL31
     /tmp/ccelrT3C.s:356    .text:000000000000019c .LVL35
     /tmp/ccelrT3C.s:347    .text:0000000000000194 .LVL34
     /tmp/ccelrT3C.s:171    .text:00000000000000cc .LVL15
     /tmp/ccelrT3C.s:193    .text:00000000000000f0 .LVL16
     /tmp/ccelrT3C.s:196    .text:00000000000000f4 .LVL17
     /tmp/ccelrT3C.s:218    .text:000000000000010c .LVL19
     /tmp/ccelrT3C.s:273    .text:0000000000000150 .LVL26
     /tmp/ccelrT3C.s:288    .text:0000000000000160 .LVL28
     /tmp/ccelrT3C.s:300    .text:0000000000000164 .LVL29
     /tmp/ccelrT3C.s:269    .text:0000000000000148 .LVL25
     /tmp/ccelrT3C.s:213    .text:0000000000000108 .LVL18
     /tmp/ccelrT3C.s:221    .text:0000000000000110 .LVL20
     /tmp/ccelrT3C.s:283    .text:0000000000000158 .LVL27
     /tmp/ccelrT3C.s:231    .text:0000000000000120 .LVL21
     /tmp/ccelrT3C.s:248    .text:000000000000012c .LVL23
     /tmp/ccelrT3C.s:14     .text:0000000000000000 .LVL0
     /tmp/ccelrT3C.s:46     .text:000000000000003c .LVL1
     /tmp/ccelrT3C.s:57     .text:0000000000000048 .LVL2
     /tmp/ccelrT3C.s:63     .text:0000000000000054 .LVL3
     /tmp/ccelrT3C.s:137    .text:00000000000000bc .LVL12
     /tmp/ccelrT3C.s:148    .text:00000000000000c0 .LVL13
     /tmp/ccelrT3C.s:151    .text:00000000000000c4 .LVL14
     /tmp/ccelrT3C.s:70     .text:0000000000000060 .LVL4
     /tmp/ccelrT3C.s:99     .text:0000000000000084 .LVL7
     /tmp/ccelrT3C.s:129    .text:00000000000000b0 .LVL11
     /tmp/ccelrT3C.s:87     .text:0000000000000074 .LVL6
     /tmp/ccelrT3C.s:106    .text:0000000000000090 .LVL8
     /tmp/ccelrT3C.s:114    .text:0000000000000098 .LVL9
     /tmp/ccelrT3C.s:524    .debug_info:0000000000000000 .Ldebug_info0
     /tmp/ccelrT3C.s:101    .text:0000000000000084 .LBE47
     /tmp/ccelrT3C.s:131    .text:00000000000000b0 .LBB56
     /tmp/ccelrT3C.s:145    .text:00000000000000bc .LBE56
     /tmp/ccelrT3C.s:210    .text:0000000000000108 .LBB58
     /tmp/ccelrT3C.s:256    .text:0000000000000138 .LBE58
     /tmp/ccelrT3C.s:277    .text:0000000000000150 .LBB67
     /tmp/ccelrT3C.s:296    .text:0000000000000160 .LBE67
     /tmp/ccelrT3C.s:241    .text:0000000000000128 .LBE59
     /tmp/ccelrT3C.s:278    .text:0000000000000150 .LBB66
     /tmp/ccelrT3C.s:295    .text:0000000000000160 .LBE66
     /tmp/ccelrT3C.s:407    .text:00000000000001e0 .LBB76
     /tmp/ccelrT3C.s:440    .text:0000000000000200 .LBE76
     /tmp/ccelrT3C.s:456    .text:0000000000000210 .LBB87
     /tmp/ccelrT3C.s:477    .text:0000000000000220 .LBE87
     /tmp/ccelrT3C.s:424    .text:00000000000001f0 .LBE77
     /tmp/ccelrT3C.s:459    .text:0000000000000210 .LBB84
     /tmp/ccelrT3C.s:476    .text:0000000000000220 .LBE84

UNDEFINED SYMBOLS
_ZN3TCB7runningE
_ZN15MemoryAllocator9mem_allocEm
_Z15thread_dispatchv
_ZN15MemoryAllocator8mem_freeEPv
_ZN9Scheduler3putEP3TCB
