GAS LISTING /tmp/ccIZhkak.s 			page 1


   1              		.file	"riscv.cpp"
   2              		.option pic
   3              		.option norelax
   4              		.text
   5              	.Ltext0:
   6              		.align	2
   7              		.globl	_ZN5Riscv10popSppSpieEv
   9              	_ZN5Riscv10popSppSpieEv:
  10              	.LFB50:
  11              		.file 1 "src/riscv.cpp"
   1:src/riscv.cpp **** //
   2:src/riscv.cpp **** // Created by marko on 20.4.22..
   3:src/riscv.cpp **** //
   4:src/riscv.cpp **** 
   5:src/riscv.cpp **** #include "../h/riscv.hpp"
   6:src/riscv.cpp **** #include "../h/tcb.hpp"
   7:src/riscv.cpp **** #include "../lib/console.h"
   8:src/riscv.cpp **** #include "../h/print.hpp"
   9:src/riscv.cpp **** 
  10:src/riscv.cpp **** void Riscv::popSppSpie()
  11:src/riscv.cpp **** {
  12              		.loc 1 11 1
  13              		.cfi_startproc
  14 0000 130101FF 		addi	sp,sp,-16
  15              		.cfi_def_cfa_offset 16
  16 0004 23348100 		sd	s0,8(sp)
  17              		.cfi_offset 8, -8
  18 0008 13040101 		addi	s0,sp,16
  19              		.cfi_def_cfa 8, 0
  12:src/riscv.cpp ****     __asm__ volatile("csrw sepc, ra");
  20              		.loc 1 12 5
  21              		.loc 1 12 38 is_stmt 0
  22              	#APP
  23              	# 12 "src/riscv.cpp" 1
  13              	    __asm__ volatile("sret");
  24              		csrw sepc, ra
  25              	# 0 "" 2
  26              		.loc 1 13 5 is_stmt 1
  27              		.loc 1 13 29 is_stmt 0
  28              	# 13 "src/riscv.cpp" 1
  14              	}
  29              		sret
  30              	# 0 "" 2
  31              		.loc 1 14 1
  32              	#NO_APP
  33 0014 03348100 		ld	s0,8(sp)
  34              		.cfi_restore 8
  35              		.cfi_def_cfa 2, 16
  36 0018 13010101 		addi	sp,sp,16
  37              		.cfi_def_cfa_offset 0
  38 001c 67800000 		jr	ra
  39              		.cfi_endproc
  40              	.LFE50:
  42              		.align	2
  43              		.globl	_ZN5Riscv20handleSupervisorTrapEv
  45              	_ZN5Riscv20handleSupervisorTrapEv:
  46              	.LFB51:
GAS LISTING /tmp/ccIZhkak.s 			page 2


  15:src/riscv.cpp **** 
  16:src/riscv.cpp **** void Riscv::handleSupervisorTrap()
  17:src/riscv.cpp **** {
  47              		.loc 1 17 1 is_stmt 1
  48              		.cfi_startproc
  49 0020 130101FC 		addi	sp,sp,-64
  50              		.cfi_def_cfa_offset 64
  51 0024 233C1102 		sd	ra,56(sp)
  52 0028 23388102 		sd	s0,48(sp)
  53              		.cfi_offset 1, -8
  54              		.cfi_offset 8, -16
  55 002c 13040104 		addi	s0,sp,64
  56              		.cfi_def_cfa 8, 0
  18:src/riscv.cpp ****     uint64 scause = r_scause();
  57              		.loc 1 18 5
  58              	.LBB28:
  59              	.LBB29:
  60              		.file 2 "src/../h/riscv.hpp"
   1:src/../h/riscv.hpp **** //
   2:src/../h/riscv.hpp **** // Created by marko on 20.4.22..
   3:src/../h/riscv.hpp **** //
   4:src/../h/riscv.hpp **** 
   5:src/../h/riscv.hpp **** #ifndef OS1_VEZBE07_RISCV_CONTEXT_SWITCH_2_INTERRUPT_RISCV_HPP
   6:src/../h/riscv.hpp **** #define OS1_VEZBE07_RISCV_CONTEXT_SWITCH_2_INTERRUPT_RISCV_HPP
   7:src/../h/riscv.hpp **** 
   8:src/../h/riscv.hpp **** #include "../lib/hw.h"
   9:src/../h/riscv.hpp **** 
  10:src/../h/riscv.hpp **** class Riscv
  11:src/../h/riscv.hpp **** {
  12:src/../h/riscv.hpp **** public:
  13:src/../h/riscv.hpp **** 
  14:src/../h/riscv.hpp ****     // pop sstatus.spp and sstatus.spie bits (has to be a non inline function)
  15:src/../h/riscv.hpp ****     static void popSppSpie();
  16:src/../h/riscv.hpp **** 
  17:src/../h/riscv.hpp ****     // read register scause
  18:src/../h/riscv.hpp ****     static uint64 r_scause();
  19:src/../h/riscv.hpp **** 
  20:src/../h/riscv.hpp ****     // write register scause
  21:src/../h/riscv.hpp ****     static void w_scause(uint64 scause);
  22:src/../h/riscv.hpp **** 
  23:src/../h/riscv.hpp ****     // read register sepc
  24:src/../h/riscv.hpp ****     static uint64 r_sepc();
  25:src/../h/riscv.hpp **** 
  26:src/../h/riscv.hpp ****     // write register sepc
  27:src/../h/riscv.hpp ****     static void w_sepc(uint64 sepc);
  28:src/../h/riscv.hpp **** 
  29:src/../h/riscv.hpp ****     // read register stvec
  30:src/../h/riscv.hpp ****     static uint64 r_stvec();
  31:src/../h/riscv.hpp **** 
  32:src/../h/riscv.hpp ****     // write register stvec
  33:src/../h/riscv.hpp ****     static void w_stvec(uint64 stvec);
  34:src/../h/riscv.hpp **** 
  35:src/../h/riscv.hpp ****     // read register stval
  36:src/../h/riscv.hpp ****     static uint64 r_stval();
  37:src/../h/riscv.hpp **** 
  38:src/../h/riscv.hpp ****     // write register stval
  39:src/../h/riscv.hpp ****     static void w_stval(uint64 stval);
GAS LISTING /tmp/ccIZhkak.s 			page 3


  40:src/../h/riscv.hpp **** 
  41:src/../h/riscv.hpp ****     enum BitMaskSip
  42:src/../h/riscv.hpp ****     {
  43:src/../h/riscv.hpp ****         SIP_SSIP = (1 << 1),
  44:src/../h/riscv.hpp ****         SIP_STIP = (1 << 5),
  45:src/../h/riscv.hpp ****         SIP_SEIP = (1 << 9),
  46:src/../h/riscv.hpp ****     };
  47:src/../h/riscv.hpp **** 
  48:src/../h/riscv.hpp ****     // mask set register sip
  49:src/../h/riscv.hpp ****     static void ms_sip(uint64 mask);
  50:src/../h/riscv.hpp **** 
  51:src/../h/riscv.hpp ****     // mask clear register sip
  52:src/../h/riscv.hpp ****     static void mc_sip(uint64 mask);
  53:src/../h/riscv.hpp **** 
  54:src/../h/riscv.hpp ****     // read register sip
  55:src/../h/riscv.hpp ****     static uint64 r_sip();
  56:src/../h/riscv.hpp **** 
  57:src/../h/riscv.hpp ****     // write register sip
  58:src/../h/riscv.hpp ****     static void w_sip(uint64 sip);
  59:src/../h/riscv.hpp **** 
  60:src/../h/riscv.hpp ****     enum BitMaskSstatus
  61:src/../h/riscv.hpp ****     {
  62:src/../h/riscv.hpp ****         SSTATUS_SIE = (1 << 1),
  63:src/../h/riscv.hpp ****         SSTATUS_SPIE = (1 << 5),
  64:src/../h/riscv.hpp ****         SSTATUS_SPP = (1 << 8),
  65:src/../h/riscv.hpp ****     };
  66:src/../h/riscv.hpp **** 
  67:src/../h/riscv.hpp ****     // mask set register sstatus
  68:src/../h/riscv.hpp ****     static void ms_sstatus(uint64 mask);
  69:src/../h/riscv.hpp **** 
  70:src/../h/riscv.hpp ****     // mask clear register sstatus
  71:src/../h/riscv.hpp ****     static void mc_sstatus(uint64 mask);
  72:src/../h/riscv.hpp **** 
  73:src/../h/riscv.hpp ****     // read register sstatus
  74:src/../h/riscv.hpp ****     static uint64 r_sstatus();
  75:src/../h/riscv.hpp **** 
  76:src/../h/riscv.hpp ****     // write register sstatus
  77:src/../h/riscv.hpp ****     static void w_sstatus(uint64 sstatus);
  78:src/../h/riscv.hpp **** 
  79:src/../h/riscv.hpp ****     // supervisor trap
  80:src/../h/riscv.hpp ****     static void supervisorTrap();
  81:src/../h/riscv.hpp **** 
  82:src/../h/riscv.hpp ****     //stvec Vector "table"
  83:src/../h/riscv.hpp ****     static void stvecVectorTable();
  84:src/../h/riscv.hpp **** 
  85:src/../h/riscv.hpp ****     //read a0 register
  86:src/../h/riscv.hpp ****     static uint64 r_a0();
  87:src/../h/riscv.hpp **** 
  88:src/../h/riscv.hpp ****     //write to a0 register
  89:src/../h/riscv.hpp ****     static void w_a0(uint64 writeValue);
  90:src/../h/riscv.hpp **** 
  91:src/../h/riscv.hpp ****     //read a1 register
  92:src/../h/riscv.hpp ****     static uint64 r_a1();
  93:src/../h/riscv.hpp **** 
  94:src/../h/riscv.hpp ****     //write to a1 register
  95:src/../h/riscv.hpp ****     static void w_a1(uint64 writeValue);
  96:src/../h/riscv.hpp **** 
GAS LISTING /tmp/ccIZhkak.s 			page 4


  97:src/../h/riscv.hpp ****     //read a2 register
  98:src/../h/riscv.hpp ****     static uint64 r_a2();
  99:src/../h/riscv.hpp **** 
 100:src/../h/riscv.hpp ****     //write to a2 register
 101:src/../h/riscv.hpp ****     static void w_a2(uint64 writeValue);
 102:src/../h/riscv.hpp **** 
 103:src/../h/riscv.hpp ****     //read a3 register
 104:src/../h/riscv.hpp ****     static uint64 r_a3();
 105:src/../h/riscv.hpp **** 
 106:src/../h/riscv.hpp ****     //write to a3 register
 107:src/../h/riscv.hpp ****     static void w_a3(uint64 writeValue);
 108:src/../h/riscv.hpp **** 
 109:src/../h/riscv.hpp ****     //read a4 register
 110:src/../h/riscv.hpp ****     static uint64 r_a4();
 111:src/../h/riscv.hpp **** 
 112:src/../h/riscv.hpp ****     //write to a4 register
 113:src/../h/riscv.hpp ****     static void w_a4(uint64 writeValue);
 114:src/../h/riscv.hpp **** 
 115:src/../h/riscv.hpp ****     //read a5 register
 116:src/../h/riscv.hpp ****     static uint64 r_a5();
 117:src/../h/riscv.hpp **** 
 118:src/../h/riscv.hpp ****     //write to a5 register
 119:src/../h/riscv.hpp ****     static void w_a5(uint64 writeValue);
 120:src/../h/riscv.hpp **** 
 121:src/../h/riscv.hpp ****     //read a6 register
 122:src/../h/riscv.hpp ****     static uint64 r_a6();
 123:src/../h/riscv.hpp **** 
 124:src/../h/riscv.hpp ****     //write to a6 register
 125:src/../h/riscv.hpp ****     static void w_a6(uint64 writeValue);
 126:src/../h/riscv.hpp **** 
 127:src/../h/riscv.hpp ****     //read a7 register
 128:src/../h/riscv.hpp ****     static uint64 r_a7();
 129:src/../h/riscv.hpp **** 
 130:src/../h/riscv.hpp ****     //write to a7 register
 131:src/../h/riscv.hpp ****     static void w_a7(uint64 writeValue);
 132:src/../h/riscv.hpp **** 
 133:src/../h/riscv.hpp **** 
 134:src/../h/riscv.hpp **** private:
 135:src/../h/riscv.hpp **** 
 136:src/../h/riscv.hpp ****     // supervisor trap handler
 137:src/../h/riscv.hpp ****     static void handleSupervisorTrap();
 138:src/../h/riscv.hpp **** 
 139:src/../h/riscv.hpp ****     static void handleTimerInterrupt();
 140:src/../h/riscv.hpp **** 
 141:src/../h/riscv.hpp ****     static void handleConsoleInterrupt();
 142:src/../h/riscv.hpp **** };
 143:src/../h/riscv.hpp **** 
 144:src/../h/riscv.hpp **** 
 145:src/../h/riscv.hpp **** inline uint64 Riscv::r_scause()
 146:src/../h/riscv.hpp **** {
 147:src/../h/riscv.hpp ****     uint64 volatile scause;
  61              		.loc 2 147 5
 148:src/../h/riscv.hpp ****     __asm__ volatile ("csrr %[scause], scause" : [scause] "=r"(scause));
  62              		.loc 2 148 5
  63              		.loc 2 148 72 is_stmt 0
  64              	#APP
  65              	# 148 "src/../h/riscv.hpp" 1
GAS LISTING /tmp/ccIZhkak.s 			page 5


 149              	    return scause;
  66              		csrr a5, scause
  67              	# 0 "" 2
  68              	#NO_APP
  69 0034 233CF4FC 		sd	a5,-40(s0)
  70              		.loc 2 149 5 is_stmt 1
  71              		.loc 2 149 12 is_stmt 0
  72 0038 833784FD 		ld	a5,-40(s0)
  73              	.LVL0:
  74              	.LBE29:
  75              	.LBE28:
  19:src/riscv.cpp ****     if (scause == 0x0000000000000008UL || scause == 0x0000000000000009UL)
  76              		.loc 1 19 5 is_stmt 1
  77              	.LBB30:
  78              		.loc 1 19 40 is_stmt 0
  79 003c 938787FF 		addi	a5,a5,-8
  80              	.LVL1:
  81              		.loc 1 19 5
  82 0040 13071000 		li	a4,1
  83 0044 637AF700 		bleu	a5,a4,.L6
  84              	.LVL2:
  85              	.L3:
  86              	.LBE30:
  20:src/riscv.cpp ****     {
  21:src/riscv.cpp ****         // interrupt: no; cause code: environment call from U-mode(8) or S-mode(9)
  22:src/riscv.cpp ****         uint64 volatile sepc = r_sepc() + 4;
  23:src/riscv.cpp ****         uint64 volatile sstatus = r_sstatus();
  24:src/riscv.cpp ****         TCB::timeSliceCounter = 0;
  25:src/riscv.cpp ****         printInteger(2);
  26:src/riscv.cpp ****         TCB::dispatch();
  27:src/riscv.cpp ****         w_sstatus(sstatus);
  28:src/riscv.cpp ****         w_sepc(sepc);
  29:src/riscv.cpp ****     }
  30:src/riscv.cpp ****     else
  31:src/riscv.cpp ****     {
  32:src/riscv.cpp ****         // unexpected trap cause
  33:src/riscv.cpp ****         // Ovde se ulazi ako se desi neki interrupt tabele
  34:src/riscv.cpp ****     }
  35:src/riscv.cpp **** }
  87              		.loc 1 35 1
  88 0048 83308103 		ld	ra,56(sp)
  89              		.cfi_remember_state
  90              		.cfi_restore 1
  91 004c 03340103 		ld	s0,48(sp)
  92              		.cfi_restore 8
  93              		.cfi_def_cfa 2, 64
  94 0050 13010104 		addi	sp,sp,64
  95              		.cfi_def_cfa_offset 0
  96 0054 67800000 		jr	ra
  97              	.LVL3:
  98              	.L6:
  99              		.cfi_restore_state
 100              	.LBB40:
 101              	.LBB31:
  22:src/riscv.cpp ****         uint64 volatile sstatus = r_sstatus();
 102              		.loc 1 22 9 is_stmt 1
 103              	.LBB32:
GAS LISTING /tmp/ccIZhkak.s 			page 6


 104              	.LBB33:
 150:src/../h/riscv.hpp **** }
 151:src/../h/riscv.hpp **** 
 152:src/../h/riscv.hpp **** inline void Riscv::w_scause(uint64 scause)
 153:src/../h/riscv.hpp **** {
 154:src/../h/riscv.hpp ****     __asm__ volatile ("csrw scause, %[scause]" : : [scause] "r"(scause));
 155:src/../h/riscv.hpp **** }
 156:src/../h/riscv.hpp **** 
 157:src/../h/riscv.hpp **** inline uint64 Riscv::r_sepc()
 158:src/../h/riscv.hpp **** {
 159:src/../h/riscv.hpp ****     uint64 volatile sepc;
 105              		.loc 2 159 5
 160:src/../h/riscv.hpp ****     __asm__ volatile ("csrr %[sepc], sepc" : [sepc] "=r"(sepc));
 106              		.loc 2 160 5
 107              		.loc 2 160 64 is_stmt 0
 108              	#APP
 109              	# 160 "src/../h/riscv.hpp" 1
 161              	    return sepc;
 110              		csrr a5, sepc
 111              	# 0 "" 2
 112              	.LVL4:
 113              	#NO_APP
 114 005c 2334F4FE 		sd	a5,-24(s0)
 115              		.loc 2 161 5 is_stmt 1
 116              		.loc 2 161 12 is_stmt 0
 117 0060 833784FE 		ld	a5,-24(s0)
 118              	.LBE33:
 119              	.LBE32:
  22:src/riscv.cpp ****         uint64 volatile sstatus = r_sstatus();
 120              		.loc 1 22 41
 121 0064 93874700 		addi	a5,a5,4
  22:src/riscv.cpp ****         uint64 volatile sstatus = r_sstatus();
 122              		.loc 1 22 43
 123 0068 2334F4FC 		sd	a5,-56(s0)
  23:src/riscv.cpp ****         TCB::timeSliceCounter = 0;
 124              		.loc 1 23 9 is_stmt 1
 125              	.LBB34:
 126              	.LBB35:
 162:src/../h/riscv.hpp **** }
 163:src/../h/riscv.hpp **** 
 164:src/../h/riscv.hpp **** inline void Riscv::w_sepc(uint64 sepc)
 165:src/../h/riscv.hpp **** {
 166:src/../h/riscv.hpp ****     __asm__ volatile ("csrw sepc, %[sepc]" : : [sepc] "r"(sepc));
 167:src/../h/riscv.hpp **** }
 168:src/../h/riscv.hpp **** 
 169:src/../h/riscv.hpp **** inline uint64 Riscv::r_stvec()
 170:src/../h/riscv.hpp **** {
 171:src/../h/riscv.hpp ****     uint64 volatile stvec;
 172:src/../h/riscv.hpp ****     __asm__ volatile ("csrr %[stvec], stvec" : [stvec] "=r"(stvec));
 173:src/../h/riscv.hpp ****     return stvec;
 174:src/../h/riscv.hpp **** }
 175:src/../h/riscv.hpp **** 
 176:src/../h/riscv.hpp **** inline void Riscv::w_stvec(uint64 stvec)
 177:src/../h/riscv.hpp **** {
 178:src/../h/riscv.hpp ****     __asm__ volatile ("csrw stvec, %[stvec]" : : [stvec] "r"(stvec));
 179:src/../h/riscv.hpp **** }
 180:src/../h/riscv.hpp **** 
GAS LISTING /tmp/ccIZhkak.s 			page 7


 181:src/../h/riscv.hpp **** inline uint64 Riscv::r_stval()
 182:src/../h/riscv.hpp **** {
 183:src/../h/riscv.hpp ****     uint64 volatile stval;
 184:src/../h/riscv.hpp ****     __asm__ volatile ("csrr %[stval], stval" : [stval] "=r"(stval));
 185:src/../h/riscv.hpp ****     return stval;
 186:src/../h/riscv.hpp **** }
 187:src/../h/riscv.hpp **** 
 188:src/../h/riscv.hpp **** inline void Riscv::w_stval(uint64 stval)
 189:src/../h/riscv.hpp **** {
 190:src/../h/riscv.hpp ****     __asm__ volatile ("csrw stval, %[stval]" : : [stval] "r"(stval));
 191:src/../h/riscv.hpp **** }
 192:src/../h/riscv.hpp **** 
 193:src/../h/riscv.hpp **** inline void Riscv::ms_sip(uint64 mask)
 194:src/../h/riscv.hpp **** {
 195:src/../h/riscv.hpp ****     __asm__ volatile ("csrs sip, %[mask]" : : [mask] "r"(mask));
 196:src/../h/riscv.hpp **** }
 197:src/../h/riscv.hpp **** 
 198:src/../h/riscv.hpp **** inline void Riscv::mc_sip(uint64 mask)
 199:src/../h/riscv.hpp **** {
 200:src/../h/riscv.hpp ****     __asm__ volatile ("csrc sip, %[mask]" : : [mask] "r"(mask));
 201:src/../h/riscv.hpp **** }
 202:src/../h/riscv.hpp **** 
 203:src/../h/riscv.hpp **** inline uint64 Riscv::r_sip()
 204:src/../h/riscv.hpp **** {
 205:src/../h/riscv.hpp ****     uint64 volatile sip;
 206:src/../h/riscv.hpp ****     __asm__ volatile ("csrr %[sip], sip" : [sip] "=r"(sip));
 207:src/../h/riscv.hpp ****     return sip;
 208:src/../h/riscv.hpp **** }
 209:src/../h/riscv.hpp **** 
 210:src/../h/riscv.hpp **** inline void Riscv::w_sip(uint64 sip)
 211:src/../h/riscv.hpp **** {
 212:src/../h/riscv.hpp ****     __asm__ volatile ("csrw sip, %[sip]" : : [sip] "r"(sip));
 213:src/../h/riscv.hpp **** }
 214:src/../h/riscv.hpp **** 
 215:src/../h/riscv.hpp **** inline void Riscv::ms_sstatus(uint64 mask)
 216:src/../h/riscv.hpp **** {
 217:src/../h/riscv.hpp ****     __asm__ volatile ("csrs sstatus, %[mask]" : : [mask] "r"(mask));
 218:src/../h/riscv.hpp **** }
 219:src/../h/riscv.hpp **** 
 220:src/../h/riscv.hpp **** inline void Riscv::mc_sstatus(uint64 mask)
 221:src/../h/riscv.hpp **** {
 222:src/../h/riscv.hpp ****     __asm__ volatile ("csrc sstatus, %[mask]" : : [mask] "r"(mask));
 223:src/../h/riscv.hpp **** }
 224:src/../h/riscv.hpp **** 
 225:src/../h/riscv.hpp **** inline uint64 Riscv::r_sstatus()
 226:src/../h/riscv.hpp **** {
 227:src/../h/riscv.hpp ****     uint64 volatile sstatus;
 127              		.loc 2 227 5
 228:src/../h/riscv.hpp ****     __asm__ volatile ("csrr %[sstatus], sstatus" : [sstatus] "=r"(sstatus));
 128              		.loc 2 228 5
 129              		.loc 2 228 76 is_stmt 0
 130              	#APP
 131              	# 228 "src/../h/riscv.hpp" 1
 229              	    return sstatus;
 132              		csrr a5, sstatus
 133              	# 0 "" 2
 134              	#NO_APP
GAS LISTING /tmp/ccIZhkak.s 			page 8


 135 0070 2330F4FE 		sd	a5,-32(s0)
 136              		.loc 2 229 5 is_stmt 1
 137              		.loc 2 229 12 is_stmt 0
 138 0074 833704FE 		ld	a5,-32(s0)
 139              	.LBE35:
 140              	.LBE34:
  23:src/riscv.cpp ****         TCB::timeSliceCounter = 0;
 141              		.loc 1 23 45
 142 0078 2338F4FC 		sd	a5,-48(s0)
  24:src/riscv.cpp ****         printInteger(2);
 143              		.loc 1 24 9 is_stmt 1
  24:src/riscv.cpp ****         printInteger(2);
 144              		.loc 1 24 31 is_stmt 0
 145 007c 97070000 		la	a5,_ZN3TCB16timeSliceCounterE
 145      83B70700 
 146 0084 23B00700 		sd	zero,0(a5)
  25:src/riscv.cpp ****         TCB::dispatch();
 147              		.loc 1 25 9 is_stmt 1
  25:src/riscv.cpp ****         TCB::dispatch();
 148              		.loc 1 25 21 is_stmt 0
 149 0088 13052000 		li	a0,2
 150 008c 97000000 		call	_Z12printIntegerm@plt
 150      E7800000 
 151              	.LVL5:
  26:src/riscv.cpp ****         w_sstatus(sstatus);
 152              		.loc 1 26 9 is_stmt 1
  26:src/riscv.cpp ****         w_sstatus(sstatus);
 153              		.loc 1 26 22 is_stmt 0
 154 0094 97000000 		call	_ZN3TCB8dispatchEv@plt
 154      E7800000 
 155              	.LVL6:
  27:src/riscv.cpp ****         w_sepc(sepc);
 156              		.loc 1 27 9 is_stmt 1
  27:src/riscv.cpp ****         w_sepc(sepc);
 157              		.loc 1 27 18 is_stmt 0
 158 009c 833704FD 		ld	a5,-48(s0)
 159              	.LVL7:
 160              	.LBB36:
 161              	.LBB37:
 230:src/../h/riscv.hpp **** }
 231:src/../h/riscv.hpp **** 
 232:src/../h/riscv.hpp **** inline void Riscv::w_sstatus(uint64 sstatus)
 233:src/../h/riscv.hpp **** {
 234:src/../h/riscv.hpp ****     __asm__ volatile ("csrw sstatus, %[sstatus]" : : [sstatus] "r"(sstatus));
 162              		.loc 2 234 5 is_stmt 1
 163              		.loc 2 234 77 is_stmt 0
 164              	#APP
 165              	# 234 "src/../h/riscv.hpp" 1
 235              	}
 166              		csrw sstatus, a5
 167              	# 0 "" 2
 168              	.LVL8:
 169              	#NO_APP
 170              	.LBE37:
 171              	.LBE36:
  28:src/riscv.cpp ****     }
 172              		.loc 1 28 9 is_stmt 1
GAS LISTING /tmp/ccIZhkak.s 			page 9


  28:src/riscv.cpp ****     }
 173              		.loc 1 28 15 is_stmt 0
 174 00a4 833784FC 		ld	a5,-56(s0)
 175              	.LVL9:
 176              	.LBB38:
 177              	.LBB39:
 166:src/../h/riscv.hpp **** }
 178              		.loc 2 166 5 is_stmt 1
 166:src/../h/riscv.hpp **** }
 179              		.loc 2 166 65 is_stmt 0
 180              	#APP
 181              	# 166 "src/../h/riscv.hpp" 1
 182              		csrw sepc, a5
 183              	# 0 "" 2
 184              	.LVL10:
 185              	#NO_APP
 186              	.LBE39:
 187              	.LBE38:
 188              	.LBE31:
 189              	.LBE40:
 190              		.loc 1 35 1
 191 00ac 6FF0DFF9 		j	.L3
 192              		.cfi_endproc
 193              	.LFE51:
 195              		.align	2
 196              		.globl	_ZN5Riscv22handleConsoleInterruptEv
 198              	_ZN5Riscv22handleConsoleInterruptEv:
 199              	.LFB52:
  36:src/riscv.cpp **** 
  37:src/riscv.cpp **** void Riscv::handleConsoleInterrupt() {
 200              		.loc 1 37 38 is_stmt 1
 201              		.cfi_startproc
 202 00b0 130101FF 		addi	sp,sp,-16
 203              		.cfi_def_cfa_offset 16
 204 00b4 23341100 		sd	ra,8(sp)
 205 00b8 23308100 		sd	s0,0(sp)
 206              		.cfi_offset 1, -8
 207              		.cfi_offset 8, -16
 208 00bc 13040101 		addi	s0,sp,16
 209              		.cfi_def_cfa 8, 0
  38:src/riscv.cpp ****     console_handler();
 210              		.loc 1 38 5
 211              		.loc 1 38 20 is_stmt 0
 212 00c0 97000000 		call	console_handler@plt
 212      E7800000 
 213              	.LVL11:
  39:src/riscv.cpp **** }
 214              		.loc 1 39 1
 215 00c8 83308100 		ld	ra,8(sp)
 216              		.cfi_restore 1
 217 00cc 03340100 		ld	s0,0(sp)
 218              		.cfi_restore 8
 219              		.cfi_def_cfa 2, 16
 220 00d0 13010101 		addi	sp,sp,16
 221              		.cfi_def_cfa_offset 0
 222 00d4 67800000 		jr	ra
 223              		.cfi_endproc
GAS LISTING /tmp/ccIZhkak.s 			page 10


 224              	.LFE52:
 226              		.align	2
 227              		.globl	_ZN5Riscv20handleTimerInterruptEv
 229              	_ZN5Riscv20handleTimerInterruptEv:
 230              	.LFB53:
  40:src/riscv.cpp **** 
  41:src/riscv.cpp **** void Riscv::handleTimerInterrupt() {
 231              		.loc 1 41 36 is_stmt 1
 232              		.cfi_startproc
  42:src/riscv.cpp ****     mc_sip(SIP_SSIP);
 233              		.loc 1 42 5
 234              	.LVL12:
 235              	.LBB41:
 236              	.LBB42:
 200:src/../h/riscv.hpp **** }
 237              		.loc 2 200 5
 200:src/../h/riscv.hpp **** }
 238              		.loc 2 200 64 is_stmt 0
 239 00d8 93072000 		li	a5,2
 240              	#APP
 241              	# 200 "src/../h/riscv.hpp" 1
 242              		csrc sip, a5
 243              	# 0 "" 2
 244              	.LVL13:
 245              	#NO_APP
 246              	.LBE42:
 247              	.LBE41:
  43:src/riscv.cpp ****     TCB::timeSliceCounter++;
 248              		.loc 1 43 5 is_stmt 1
 249              		.loc 1 43 26 is_stmt 0
 250 00e0 17070000 		la	a4,_ZN3TCB16timeSliceCounterE
 250      03370700 
 251 00e8 83370700 		ld	a5,0(a4)
 252 00ec 93871700 		addi	a5,a5,1
 253 00f0 2330F700 		sd	a5,0(a4)
  44:src/riscv.cpp ****     TCB::timeSliceCounterTest++;
 254              		.loc 1 44 5 is_stmt 1
 255              		.loc 1 44 30 is_stmt 0
 256 00f4 97060000 		la	a3,_ZN3TCB20timeSliceCounterTestE
 256      83B60600 
 257 00fc 03B70600 		ld	a4,0(a3)
 258 0100 13071700 		addi	a4,a4,1
 259 0104 23B0E600 		sd	a4,0(a3)
  45:src/riscv.cpp ****     if (TCB::timeSliceCounter >= TCB::running->getTimeSlice())
 260              		.loc 1 45 5 is_stmt 1
 261              	.LBB43:
 262              		.loc 1 45 60 is_stmt 0
 263 0108 17070000 		la	a4,_ZN3TCB7runningE
 263      03370700 
 264 0110 03370700 		ld	a4,0(a4)
 265              	.LVL14:
 266              	.LBB44:
 267              	.LBB45:
 268              		.file 3 "src/../h/tcb.hpp"
   1:src/../h/tcb.hpp **** //
   2:src/../h/tcb.hpp **** // Created by marko on 20.4.22..
   3:src/../h/tcb.hpp **** //
GAS LISTING /tmp/ccIZhkak.s 			page 11


   4:src/../h/tcb.hpp **** 
   5:src/../h/tcb.hpp **** #ifndef OS1_VEZBE07_RISCV_CONTEXT_SWITCH_2_INTERRUPT_TCB_HPP
   6:src/../h/tcb.hpp **** #define OS1_VEZBE07_RISCV_CONTEXT_SWITCH_2_INTERRUPT_TCB_HPP
   7:src/../h/tcb.hpp **** 
   8:src/../h/tcb.hpp **** #include "../lib/hw.h"
   9:src/../h/tcb.hpp **** #include "scheduler.hpp"
  10:src/../h/tcb.hpp **** 
  11:src/../h/tcb.hpp **** // Thread Control Block
  12:src/../h/tcb.hpp **** class TCB
  13:src/../h/tcb.hpp **** {
  14:src/../h/tcb.hpp **** public:
  15:src/../h/tcb.hpp ****     ~TCB() { delete[] stack; }
  16:src/../h/tcb.hpp **** 
  17:src/../h/tcb.hpp ****     bool isFinished() const { return finished; }
  18:src/../h/tcb.hpp **** 
  19:src/../h/tcb.hpp ****     void setFinished(bool value) { finished = value; }
  20:src/../h/tcb.hpp **** 
  21:src/../h/tcb.hpp ****     uint64 getTimeSlice() const { return timeSlice; }
 269              		.loc 3 21 35 is_stmt 1
 270              		.loc 3 21 42 is_stmt 0
 271 0114 03370702 		ld	a4,32(a4)
 272              	.LVL15:
 273              	.LBE45:
 274              	.LBE44:
 275              		.loc 1 45 5
 276 0118 63F4E700 		bgeu	a5,a4,.L15
 277 011c 67800000 		ret
 278              	.L15:
 279              	.LBE43:
  41:src/riscv.cpp ****     mc_sip(SIP_SSIP);
 280              		.loc 1 41 36
 281 0120 130101FD 		addi	sp,sp,-48
 282              		.cfi_def_cfa_offset 48
 283 0124 23341102 		sd	ra,40(sp)
 284 0128 23308102 		sd	s0,32(sp)
 285              		.cfi_offset 1, -8
 286              		.cfi_offset 8, -16
 287 012c 13040103 		addi	s0,sp,48
 288              		.cfi_def_cfa 8, 0
 289              	.LBB55:
 290              	.LBB46:
  46:src/riscv.cpp ****     {
  47:src/riscv.cpp ****         uint64 volatile sepc = r_sepc();
 291              		.loc 1 47 9 is_stmt 1
 292              	.LBB47:
 293              	.LBB48:
 159:src/../h/riscv.hpp ****     __asm__ volatile ("csrr %[sepc], sepc" : [sepc] "=r"(sepc));
 294              		.loc 2 159 5
 160:src/../h/riscv.hpp ****     return sepc;
 295              		.loc 2 160 5
 160:src/../h/riscv.hpp ****     return sepc;
 296              		.loc 2 160 64 is_stmt 0
 297              	#APP
 298              	# 160 "src/../h/riscv.hpp" 1
 299              		csrr a5, sepc
 300              	# 0 "" 2
 301              	#NO_APP
GAS LISTING /tmp/ccIZhkak.s 			page 12


 302 0134 2334F4FE 		sd	a5,-24(s0)
 161:src/../h/riscv.hpp **** }
 303              		.loc 2 161 5 is_stmt 1
 161:src/../h/riscv.hpp **** }
 304              		.loc 2 161 12 is_stmt 0
 305 0138 833784FE 		ld	a5,-24(s0)
 306              	.LBE48:
 307              	.LBE47:
 308              		.loc 1 47 39
 309 013c 2338F4FC 		sd	a5,-48(s0)
  48:src/riscv.cpp ****         uint64 volatile sstatus = r_sstatus();
 310              		.loc 1 48 9 is_stmt 1
 311              	.LBB49:
 312              	.LBB50:
 227:src/../h/riscv.hpp ****     __asm__ volatile ("csrr %[sstatus], sstatus" : [sstatus] "=r"(sstatus));
 313              		.loc 2 227 5
 228:src/../h/riscv.hpp ****     return sstatus;
 314              		.loc 2 228 5
 228:src/../h/riscv.hpp ****     return sstatus;
 315              		.loc 2 228 76 is_stmt 0
 316              	#APP
 317              	# 228 "src/../h/riscv.hpp" 1
 318              		csrr a5, sstatus
 319              	# 0 "" 2
 320              	#NO_APP
 321 0144 2330F4FE 		sd	a5,-32(s0)
 229:src/../h/riscv.hpp **** }
 322              		.loc 2 229 5 is_stmt 1
 229:src/../h/riscv.hpp **** }
 323              		.loc 2 229 12 is_stmt 0
 324 0148 833704FE 		ld	a5,-32(s0)
 325              	.LBE50:
 326              	.LBE49:
 327              		.loc 1 48 45
 328 014c 233CF4FC 		sd	a5,-40(s0)
  49:src/riscv.cpp ****         TCB::timeSliceCounter = 0;
 329              		.loc 1 49 9 is_stmt 1
 330              		.loc 1 49 31 is_stmt 0
 331 0150 97070000 		la	a5,_ZN3TCB16timeSliceCounterE
 331      83B70700 
 332 0158 23B00700 		sd	zero,0(a5)
  50:src/riscv.cpp ****         TCB::timeSliceCounterTest++;
 333              		.loc 1 50 9 is_stmt 1
 334              		.loc 1 50 34 is_stmt 0
 335 015c 83B70600 		ld	a5,0(a3)
 336 0160 93871700 		addi	a5,a5,1
 337 0164 23B0F600 		sd	a5,0(a3)
  51:src/riscv.cpp ****         TCB::dispatch();
 338              		.loc 1 51 9 is_stmt 1
 339              		.loc 1 51 22 is_stmt 0
 340 0168 97000000 		call	_ZN3TCB8dispatchEv@plt
 340      E7800000 
 341              	.LVL16:
  52:src/riscv.cpp ****         w_sstatus(sstatus);
 342              		.loc 1 52 9 is_stmt 1
 343              		.loc 1 52 18 is_stmt 0
 344 0170 833784FD 		ld	a5,-40(s0)
GAS LISTING /tmp/ccIZhkak.s 			page 13


 345              	.LVL17:
 346              	.LBB51:
 347              	.LBB52:
 234:src/../h/riscv.hpp **** }
 348              		.loc 2 234 5 is_stmt 1
 234:src/../h/riscv.hpp **** }
 349              		.loc 2 234 77 is_stmt 0
 350              	#APP
 351              	# 234 "src/../h/riscv.hpp" 1
 352              		csrw sstatus, a5
 353              	# 0 "" 2
 354              	.LVL18:
 355              	#NO_APP
 356              	.LBE52:
 357              	.LBE51:
  53:src/riscv.cpp ****         w_sepc(sepc);
 358              		.loc 1 53 9 is_stmt 1
 359              		.loc 1 53 15 is_stmt 0
 360 0178 833704FD 		ld	a5,-48(s0)
 361              	.LVL19:
 362              	.LBB53:
 363              	.LBB54:
 166:src/../h/riscv.hpp **** }
 364              		.loc 2 166 5 is_stmt 1
 166:src/../h/riscv.hpp **** }
 365              		.loc 2 166 65 is_stmt 0
 366              	#APP
 367              	# 166 "src/../h/riscv.hpp" 1
 368              		csrw sepc, a5
 369              	# 0 "" 2
 370              	.LVL20:
 371              	#NO_APP
 372              	.LBE54:
 373              	.LBE53:
 374              	.LBE46:
 375              	.LBE55:
  54:src/riscv.cpp ****     }
  55:src/riscv.cpp **** }...
 376              		.loc 1 55 1
 377 0180 83308102 		ld	ra,40(sp)
 378              		.cfi_restore 1
 379 0184 03340102 		ld	s0,32(sp)
 380              		.cfi_restore 8
 381              		.cfi_def_cfa 2, 48
 382 0188 13010103 		addi	sp,sp,48
 383              		.cfi_def_cfa_offset 0
 384 018c 67800000 		jr	ra
 385              		.cfi_endproc
 386              	.LFE53:
 388              	.Letext0:
 389              		.file 4 "src/../h/../lib/hw.h"
 390              		.file 5 "src/../lib/console.h"
 391              		.file 6 "src/../h/print.hpp"
GAS LISTING /tmp/ccIZhkak.s 			page 14


DEFINED SYMBOLS
                            *ABS*:0000000000000000 riscv.cpp
     /tmp/ccIZhkak.s:9      .text:0000000000000000 _ZN5Riscv10popSppSpieEv
     /tmp/ccIZhkak.s:13     .text:0000000000000000 .L0 
     /tmp/ccIZhkak.s:14     .text:0000000000000000 .L0 
     /tmp/ccIZhkak.s:15     .text:0000000000000004 .L0 
     /tmp/ccIZhkak.s:17     .text:0000000000000008 .L0 
     /tmp/ccIZhkak.s:19     .text:000000000000000c .L0 
     /tmp/ccIZhkak.s:21     .text:000000000000000c .L0 
       src/riscv.cpp:12     .text:000000000000000c .L0 
     /tmp/ccIZhkak.s:27     .text:0000000000000010 .L0 
       src/riscv.cpp:13     .text:0000000000000010 .L0 
     /tmp/ccIZhkak.s:33     .text:0000000000000014 .L0 
     /tmp/ccIZhkak.s:34     .text:0000000000000018 .L0 
     /tmp/ccIZhkak.s:35     .text:0000000000000018 .L0 
     /tmp/ccIZhkak.s:37     .text:000000000000001c .L0 
     /tmp/ccIZhkak.s:39     .text:0000000000000020 .L0 
     /tmp/ccIZhkak.s:45     .text:0000000000000020 _ZN5Riscv20handleSupervisorTrapEv
     /tmp/ccIZhkak.s:48     .text:0000000000000020 .L0 
     /tmp/ccIZhkak.s:49     .text:0000000000000020 .L0 
     /tmp/ccIZhkak.s:50     .text:0000000000000024 .L0 
     /tmp/ccIZhkak.s:53     .text:000000000000002c .L0 
     /tmp/ccIZhkak.s:54     .text:000000000000002c .L0 
     /tmp/ccIZhkak.s:56     .text:0000000000000030 .L0 
     /tmp/ccIZhkak.s:61     .text:0000000000000030 .L0 
     /tmp/ccIZhkak.s:62     .text:0000000000000030 .L0 
     /tmp/ccIZhkak.s:63     .text:0000000000000030 .L0 
  src/../h/riscv.hpp:148    .text:0000000000000030 .L0 
     /tmp/ccIZhkak.s:71     .text:0000000000000038 .L0 
     /tmp/ccIZhkak.s:72     .text:0000000000000038 .L0 
     /tmp/ccIZhkak.s:78     .text:000000000000003c .L0 
     /tmp/ccIZhkak.s:79     .text:000000000000003c .L0 
     /tmp/ccIZhkak.s:82     .text:0000000000000040 .L0 
     /tmp/ccIZhkak.s:88     .text:0000000000000048 .L0 
     /tmp/ccIZhkak.s:89     .text:000000000000004c .L0 
     /tmp/ccIZhkak.s:90     .text:000000000000004c .L0 
     /tmp/ccIZhkak.s:92     .text:0000000000000050 .L0 
     /tmp/ccIZhkak.s:93     .text:0000000000000050 .L0 
     /tmp/ccIZhkak.s:95     .text:0000000000000054 .L0 
     /tmp/ccIZhkak.s:99     .text:0000000000000058 .L0 
     /tmp/ccIZhkak.s:105    .text:0000000000000058 .L0 
     /tmp/ccIZhkak.s:106    .text:0000000000000058 .L0 
     /tmp/ccIZhkak.s:107    .text:0000000000000058 .L0 
  src/../h/riscv.hpp:160    .text:0000000000000058 .L0 
     /tmp/ccIZhkak.s:116    .text:0000000000000060 .L0 
     /tmp/ccIZhkak.s:117    .text:0000000000000060 .L0 
     /tmp/ccIZhkak.s:121    .text:0000000000000064 .L0 
     /tmp/ccIZhkak.s:123    .text:0000000000000068 .L0 
     /tmp/ccIZhkak.s:127    .text:000000000000006c .L0 
     /tmp/ccIZhkak.s:128    .text:000000000000006c .L0 
     /tmp/ccIZhkak.s:129    .text:000000000000006c .L0 
  src/../h/riscv.hpp:228    .text:000000000000006c .L0 
     /tmp/ccIZhkak.s:137    .text:0000000000000074 .L0 
     /tmp/ccIZhkak.s:138    .text:0000000000000074 .L0 
     /tmp/ccIZhkak.s:142    .text:0000000000000078 .L0 
     /tmp/ccIZhkak.s:144    .text:000000000000007c .L0 
     /tmp/ccIZhkak.s:145    .text:000000000000007c .L0 
GAS LISTING /tmp/ccIZhkak.s 			page 15


     /tmp/ccIZhkak.s:148    .text:0000000000000088 .L0 
     /tmp/ccIZhkak.s:149    .text:0000000000000088 .L0 
     /tmp/ccIZhkak.s:153    .text:0000000000000094 .L0 
     /tmp/ccIZhkak.s:154    .text:0000000000000094 .L0 
     /tmp/ccIZhkak.s:157    .text:000000000000009c .L0 
     /tmp/ccIZhkak.s:158    .text:000000000000009c .L0 
     /tmp/ccIZhkak.s:163    .text:00000000000000a0 .L0 
  src/../h/riscv.hpp:234    .text:00000000000000a0 .L0 
     /tmp/ccIZhkak.s:173    .text:00000000000000a4 .L0 
     /tmp/ccIZhkak.s:174    .text:00000000000000a4 .L0 
     /tmp/ccIZhkak.s:179    .text:00000000000000a8 .L0 
  src/../h/riscv.hpp:166    .text:00000000000000a8 .L0 
     /tmp/ccIZhkak.s:191    .text:00000000000000ac .L0 
     /tmp/ccIZhkak.s:192    .text:00000000000000b0 .L0 
     /tmp/ccIZhkak.s:198    .text:00000000000000b0 _ZN5Riscv22handleConsoleInterruptEv
     /tmp/ccIZhkak.s:201    .text:00000000000000b0 .L0 
     /tmp/ccIZhkak.s:202    .text:00000000000000b0 .L0 
     /tmp/ccIZhkak.s:203    .text:00000000000000b4 .L0 
     /tmp/ccIZhkak.s:206    .text:00000000000000bc .L0 
     /tmp/ccIZhkak.s:207    .text:00000000000000bc .L0 
     /tmp/ccIZhkak.s:209    .text:00000000000000c0 .L0 
     /tmp/ccIZhkak.s:211    .text:00000000000000c0 .L0 
     /tmp/ccIZhkak.s:212    .text:00000000000000c0 .L0 
     /tmp/ccIZhkak.s:215    .text:00000000000000c8 .L0 
     /tmp/ccIZhkak.s:216    .text:00000000000000cc .L0 
     /tmp/ccIZhkak.s:218    .text:00000000000000d0 .L0 
     /tmp/ccIZhkak.s:219    .text:00000000000000d0 .L0 
     /tmp/ccIZhkak.s:221    .text:00000000000000d4 .L0 
     /tmp/ccIZhkak.s:223    .text:00000000000000d8 .L0 
     /tmp/ccIZhkak.s:229    .text:00000000000000d8 _ZN5Riscv20handleTimerInterruptEv
     /tmp/ccIZhkak.s:232    .text:00000000000000d8 .L0 
     /tmp/ccIZhkak.s:233    .text:00000000000000d8 .L0 
     /tmp/ccIZhkak.s:237    .text:00000000000000d8 .L0 
     /tmp/ccIZhkak.s:238    .text:00000000000000d8 .L0 
     /tmp/ccIZhkak.s:239    .text:00000000000000d8 .L0 
     /tmp/ccIZhkak.s:249    .text:00000000000000e0 .L0 
     /tmp/ccIZhkak.s:250    .text:00000000000000e0 .L0 
     /tmp/ccIZhkak.s:255    .text:00000000000000f4 .L0 
     /tmp/ccIZhkak.s:256    .text:00000000000000f4 .L0 
     /tmp/ccIZhkak.s:262    .text:0000000000000108 .L0 
     /tmp/ccIZhkak.s:263    .text:0000000000000108 .L0 
     /tmp/ccIZhkak.s:270    .text:0000000000000114 .L0 
     /tmp/ccIZhkak.s:271    .text:0000000000000114 .L0 
     /tmp/ccIZhkak.s:276    .text:0000000000000118 .L0 
     /tmp/ccIZhkak.s:281    .text:0000000000000120 .L0 
     /tmp/ccIZhkak.s:282    .text:0000000000000124 .L0 
     /tmp/ccIZhkak.s:285    .text:000000000000012c .L0 
     /tmp/ccIZhkak.s:286    .text:000000000000012c .L0 
     /tmp/ccIZhkak.s:288    .text:0000000000000130 .L0 
     /tmp/ccIZhkak.s:294    .text:0000000000000130 .L0 
     /tmp/ccIZhkak.s:295    .text:0000000000000130 .L0 
     /tmp/ccIZhkak.s:296    .text:0000000000000130 .L0 
  src/../h/riscv.hpp:160    .text:0000000000000130 .L0 
     /tmp/ccIZhkak.s:304    .text:0000000000000138 .L0 
     /tmp/ccIZhkak.s:305    .text:0000000000000138 .L0 
     /tmp/ccIZhkak.s:309    .text:000000000000013c .L0 
     /tmp/ccIZhkak.s:313    .text:0000000000000140 .L0 
GAS LISTING /tmp/ccIZhkak.s 			page 16


     /tmp/ccIZhkak.s:314    .text:0000000000000140 .L0 
     /tmp/ccIZhkak.s:315    .text:0000000000000140 .L0 
  src/../h/riscv.hpp:228    .text:0000000000000140 .L0 
     /tmp/ccIZhkak.s:323    .text:0000000000000148 .L0 
     /tmp/ccIZhkak.s:324    .text:0000000000000148 .L0 
     /tmp/ccIZhkak.s:328    .text:000000000000014c .L0 
     /tmp/ccIZhkak.s:330    .text:0000000000000150 .L0 
     /tmp/ccIZhkak.s:331    .text:0000000000000150 .L0 
     /tmp/ccIZhkak.s:334    .text:000000000000015c .L0 
     /tmp/ccIZhkak.s:335    .text:000000000000015c .L0 
     /tmp/ccIZhkak.s:339    .text:0000000000000168 .L0 
     /tmp/ccIZhkak.s:340    .text:0000000000000168 .L0 
     /tmp/ccIZhkak.s:343    .text:0000000000000170 .L0 
     /tmp/ccIZhkak.s:344    .text:0000000000000170 .L0 
     /tmp/ccIZhkak.s:349    .text:0000000000000174 .L0 
  src/../h/riscv.hpp:234    .text:0000000000000174 .L0 
     /tmp/ccIZhkak.s:359    .text:0000000000000178 .L0 
     /tmp/ccIZhkak.s:360    .text:0000000000000178 .L0 
     /tmp/ccIZhkak.s:365    .text:000000000000017c .L0 
  src/../h/riscv.hpp:166    .text:000000000000017c .L0 
     /tmp/ccIZhkak.s:377    .text:0000000000000180 .L0 
     /tmp/ccIZhkak.s:378    .text:0000000000000184 .L0 
     /tmp/ccIZhkak.s:380    .text:0000000000000188 .L0 
     /tmp/ccIZhkak.s:381    .text:0000000000000188 .L0 
     /tmp/ccIZhkak.s:383    .text:000000000000018c .L0 
     /tmp/ccIZhkak.s:385    .text:0000000000000190 .L0 
     /tmp/ccIZhkak.s:392    .text:0000000000000190 .L0 
     /tmp/ccIZhkak.s:145    .text:000000000000007c .L0 
     /tmp/ccIZhkak.s:250    .text:00000000000000e0 .L0 
     /tmp/ccIZhkak.s:256    .text:00000000000000f4 .L0 
     /tmp/ccIZhkak.s:263    .text:0000000000000108 .L0 
     /tmp/ccIZhkak.s:331    .text:0000000000000150 .L0 
     /tmp/ccIZhkak.s:98     .text:0000000000000058 .L6
     /tmp/ccIZhkak.s:85     .text:0000000000000048 .L3
     /tmp/ccIZhkak.s:278    .text:0000000000000120 .L15
     /tmp/ccIZhkak.s:1501   .debug_abbrev:0000000000000000 .Ldebug_abbrev0
     /tmp/ccIZhkak.s:2696   .debug_str:0000000000000745 .LASF132
     /tmp/ccIZhkak.s:2612   .debug_str:00000000000004dd .LASF133
     /tmp/ccIZhkak.s:2516   .debug_str:000000000000022c .LASF134
     /tmp/ccIZhkak.s:5      .text:0000000000000000 .Ltext0
     /tmp/ccIZhkak.s:388    .text:0000000000000190 .Letext0
     /tmp/ccIZhkak.s:2434   .debug_line:0000000000000000 .Ldebug_line0
     /tmp/ccIZhkak.s:2586   .debug_str:0000000000000455 .LASF0
     /tmp/ccIZhkak.s:2606   .debug_str:00000000000004a6 .LASF1
     /tmp/ccIZhkak.s:2570   .debug_str:00000000000003df .LASF2
     /tmp/ccIZhkak.s:2542   .debug_str:0000000000000323 .LASF4
     /tmp/ccIZhkak.s:2646   .debug_str:00000000000005e2 .LASF3
     /tmp/ccIZhkak.s:2458   .debug_str:000000000000009f .LASF5
     /tmp/ccIZhkak.s:2610   .debug_str:00000000000004ca .LASF6
     /tmp/ccIZhkak.s:2584   .debug_str:0000000000000442 .LASF7
     /tmp/ccIZhkak.s:2688   .debug_str:000000000000070d .LASF8
     /tmp/ccIZhkak.s:2528   .debug_str:0000000000000293 .LASF9
     /tmp/ccIZhkak.s:2626   .debug_str:0000000000000538 .LASF10
     /tmp/ccIZhkak.s:2676   .debug_str:00000000000006a7 .LASF11
     /tmp/ccIZhkak.s:2464   .debug_str:00000000000000b0 .LASF12
     /tmp/ccIZhkak.s:2438   .debug_str:0000000000000008 .LASF13
     /tmp/ccIZhkak.s:2482   .debug_str:0000000000000113 .LASF14
GAS LISTING /tmp/ccIZhkak.s 			page 17


     /tmp/ccIZhkak.s:2640   .debug_str:00000000000005a3 .LASF15
     /tmp/ccIZhkak.s:2488   .debug_str:000000000000013d .LASF16
     /tmp/ccIZhkak.s:2602   .debug_str:0000000000000495 .LASF96
     /tmp/ccIZhkak.s:2558   .debug_str:000000000000038d .LASF135
     /tmp/ccIZhkak.s:2658   .debug_str:0000000000000643 .LASF17
     /tmp/ccIZhkak.s:2600   .debug_str:000000000000048c .LASF18
     /tmp/ccIZhkak.s:2552   .debug_str:000000000000035a .LASF19
     /tmp/ccIZhkak.s:2638   .debug_str:0000000000000598 .LASF52
     /tmp/ccIZhkak.s:2708   .debug_str:0000000000000823 .LASF54
     /tmp/ccIZhkak.s:2440   .debug_str:0000000000000018 .LASF20
     /tmp/ccIZhkak.s:2506   .debug_str:00000000000001d8 .LASF22
     /tmp/ccIZhkak.s:2500   .debug_str:00000000000001b9 .LASF24
     /tmp/ccIZhkak.s:2498   .debug_str:00000000000001a4 .LASF26
     /tmp/ccIZhkak.s:2650   .debug_str:0000000000000605 .LASF21
     /tmp/ccIZhkak.s:2628   .debug_str:0000000000000547 .LASF23
     /tmp/ccIZhkak.s:2668   .debug_str:000000000000068e .LASF25
     /tmp/ccIZhkak.s:2662   .debug_str:0000000000000664 .LASF27
     /tmp/ccIZhkak.s:2520   .debug_str:000000000000025d .LASF28
     /tmp/ccIZhkak.s:2490   .debug_str:0000000000000153 .LASF29
     /tmp/ccIZhkak.s:2436   .debug_str:0000000000000000 .LASF30
     /tmp/ccIZhkak.s:2532   .debug_str:00000000000002b7 .LASF31
     /tmp/ccIZhkak.s:2670   .debug_str:0000000000000695 .LASF32
     /tmp/ccIZhkak.s:2474   .debug_str:00000000000000d4 .LASF33
     /tmp/ccIZhkak.s:2714   .debug_str:0000000000000857 .LASF34
     /tmp/ccIZhkak.s:2508   .debug_str:00000000000001ed .LASF35
     /tmp/ccIZhkak.s:2588   .debug_str:0000000000000462 .LASF36
     /tmp/ccIZhkak.s:2704   .debug_str:000000000000080b .LASF37
     /tmp/ccIZhkak.s:2454   .debug_str:000000000000007f .LASF38
     /tmp/ccIZhkak.s:2518   .debug_str:000000000000024a .LASF39
     /tmp/ccIZhkak.s:2524   .debug_str:0000000000000276 .LASF40
     /tmp/ccIZhkak.s:2666   .debug_str:000000000000067c .LASF41
     /tmp/ccIZhkak.s:2452   .debug_str:0000000000000079 .LASF42
     /tmp/ccIZhkak.s:2720   .debug_str:000000000000087b .LASF43
     /tmp/ccIZhkak.s:2712   .debug_str:000000000000084c .LASF44
     /tmp/ccIZhkak.s:2644   .debug_str:00000000000005ca .LASF45
     /tmp/ccIZhkak.s:2604   .debug_str:000000000000049b .LASF46
     /tmp/ccIZhkak.s:2660   .debug_str:000000000000064c .LASF47
     /tmp/ccIZhkak.s:2480   .debug_str:0000000000000109 .LASF48
     /tmp/ccIZhkak.s:2536   .debug_str:00000000000002d0 .LASF49
     /tmp/ccIZhkak.s:2576   .debug_str:000000000000040a .LASF50
     /tmp/ccIZhkak.s:2530   .debug_str:00000000000002a1 .LASF51
     /tmp/ccIZhkak.s:2652   .debug_str:000000000000060c .LASF53
     /tmp/ccIZhkak.s:2476   .debug_str:00000000000000e8 .LASF55
     /tmp/ccIZhkak.s:2494   .debug_str:0000000000000183 .LASF56
     /tmp/ccIZhkak.s:2686   .debug_str:00000000000006ef .LASF57
     /tmp/ccIZhkak.s:2664   .debug_str:0000000000000677 .LASF58
     /tmp/ccIZhkak.s:2504   .debug_str:00000000000001c7 .LASF59
     /tmp/ccIZhkak.s:2460   .debug_str:00000000000000a6 .LASF60
     /tmp/ccIZhkak.s:2580   .debug_str:0000000000000424 .LASF61
     /tmp/ccIZhkak.s:2562   .debug_str:00000000000003a3 .LASF62
     /tmp/ccIZhkak.s:2710   .debug_str:000000000000083b .LASF63
     /tmp/ccIZhkak.s:2462   .debug_str:00000000000000ab .LASF64
     /tmp/ccIZhkak.s:2550   .debug_str:0000000000000349 .LASF65
     /tmp/ccIZhkak.s:2616   .debug_str:00000000000004f6 .LASF66
     /tmp/ccIZhkak.s:2682   .debug_str:00000000000006cc .LASF67
     /tmp/ccIZhkak.s:2598   .debug_str:0000000000000487 .LASF68
     /tmp/ccIZhkak.s:2512   .debug_str:0000000000000214 .LASF69
GAS LISTING /tmp/ccIZhkak.s 			page 18


     /tmp/ccIZhkak.s:2618   .debug_str:00000000000004fb .LASF70
     /tmp/ccIZhkak.s:2642   .debug_str:00000000000005b9 .LASF71
     /tmp/ccIZhkak.s:2466   .debug_str:00000000000000c0 .LASF72
     /tmp/ccIZhkak.s:2484   .debug_str:000000000000011f .LASF73
     /tmp/ccIZhkak.s:2672   .debug_str:000000000000069d .LASF74
     /tmp/ccIZhkak.s:2608   .debug_str:00000000000004b9 .LASF75
     /tmp/ccIZhkak.s:2468   .debug_str:00000000000000c5 .LASF76
     /tmp/ccIZhkak.s:2448   .debug_str:0000000000000044 .LASF77
     /tmp/ccIZhkak.s:2674   .debug_str:00000000000006a2 .LASF78
     /tmp/ccIZhkak.s:2574   .debug_str:00000000000003f9 .LASF79
     /tmp/ccIZhkak.s:2470   .debug_str:00000000000000ca .LASF80
     /tmp/ccIZhkak.s:2702   .debug_str:00000000000007fa .LASF81
     /tmp/ccIZhkak.s:2624   .debug_str:0000000000000533 .LASF82
     /tmp/ccIZhkak.s:2544   .debug_str:000000000000032a .LASF83
     /tmp/ccIZhkak.s:2472   .debug_str:00000000000000cf .LASF84
     /tmp/ccIZhkak.s:2654   .debug_str:000000000000061b .LASF85
     /tmp/ccIZhkak.s:2678   .debug_str:00000000000006b6 .LASF86
     /tmp/ccIZhkak.s:2622   .debug_str:0000000000000522 .LASF87
     /tmp/ccIZhkak.s:2546   .debug_str:000000000000033b .LASF88
     /tmp/ccIZhkak.s:2636   .debug_str:0000000000000587 .LASF89
     /tmp/ccIZhkak.s:2692   .debug_str:0000000000000722 .LASF90
     /tmp/ccIZhkak.s:2556   .debug_str:000000000000036b .LASF92
     /tmp/ccIZhkak.s:2442   .debug_str:0000000000000021 .LASF91
     /tmp/ccIZhkak.s:2620   .debug_str:0000000000000500 .LASF93
     /tmp/ccIZhkak.s:2656   .debug_str:000000000000062c .LASF94
     /tmp/ccIZhkak.s:2450   .debug_str:0000000000000055 .LASF95
     /tmp/ccIZhkak.s:2446   .debug_str:000000000000003c .LASF136
     /tmp/ccIZhkak.s:2534   .debug_str:00000000000002cb .LASF97
     /tmp/ccIZhkak.s:2632   .debug_str:0000000000000573 .LASF99
     /tmp/ccIZhkak.s:2614   .debug_str:00000000000004eb .LASF101
     /tmp/ccIZhkak.s:2526   .debug_str:000000000000027c .LASF103
     /tmp/ccIZhkak.s:2572   .debug_str:00000000000003ed .LASF98
     /tmp/ccIZhkak.s:2716   .debug_str:000000000000085f .LASF100
     /tmp/ccIZhkak.s:2566   .debug_str:00000000000003c4 .LASF102
     /tmp/ccIZhkak.s:2456   .debug_str:0000000000000086 .LASF104
     /tmp/ccIZhkak.s:2680   .debug_str:00000000000006bb .LASF105
     /tmp/ccIZhkak.s:2492   .debug_str:0000000000000167 .LASF106
     /tmp/ccIZhkak.s:2486   .debug_str:0000000000000130 .LASF107
     /tmp/ccIZhkak.s:2564   .debug_str:00000000000003a8 .LASF108
     /tmp/ccIZhkak.s:2690   .debug_str:000000000000071d .LASF137
     /tmp/ccIZhkak.s:2444   .debug_str:0000000000000036 .LASF109
     /tmp/ccIZhkak.s:2578   .debug_str:0000000000000414 .LASF110
     /tmp/ccIZhkak.s:2700   .debug_str:00000000000007f2 .LASF138
     /tmp/ccIZhkak.s:2522   .debug_str:0000000000000265 .LASF139
     /tmp/ccIZhkak.s:2502   .debug_str:00000000000001c2 .LASF111
     /tmp/ccIZhkak.s:2592   .debug_str:0000000000000472 .LASF112
     /tmp/ccIZhkak.s:2554   .debug_str:0000000000000363 .LASF113
     /tmp/ccIZhkak.s:2596   .debug_str:000000000000047d .LASF114
     /tmp/ccIZhkak.s:2548   .debug_str:0000000000000340 .LASF115
     /tmp/ccIZhkak.s:2568   .debug_str:00000000000003d1 .LASF116
     /tmp/ccIZhkak.s:2630   .debug_str:000000000000055a .LASF117
     /tmp/ccIZhkak.s:2694   .debug_str:0000000000000737 .LASF140
     /tmp/ccIZhkak.s:2538   .debug_str:00000000000002e6 .LASF141
     /tmp/ccIZhkak.s:2590   .debug_str:0000000000000469 .LASF118
     /tmp/ccIZhkak.s:2510   .debug_str:0000000000000201 .LASF119
     /tmp/ccIZhkak.s:2648   .debug_str:00000000000005f4 .LASF120
     /tmp/ccIZhkak.s:2540   .debug_str:000000000000030e .LASF121
GAS LISTING /tmp/ccIZhkak.s 			page 19


     /tmp/ccIZhkak.s:2560   .debug_str:0000000000000398 .LASF122
     /tmp/ccIZhkak.s:2698   .debug_str:00000000000007e7 .LASF123
     /tmp/ccIZhkak.s:2478   .debug_str:0000000000000104 .LASF124
     /tmp/ccIZhkak.s:230    .text:00000000000000d8 .LFB53
     /tmp/ccIZhkak.s:386    .text:0000000000000190 .LFE53
     /tmp/ccIZhkak.s:290    .text:0000000000000130 .LBB46
     /tmp/ccIZhkak.s:374    .text:0000000000000180 .LBE46
     /tmp/ccIZhkak.s:2594   .debug_str:0000000000000478 .LASF125
     /tmp/ccIZhkak.s:2634   .debug_str:000000000000057f .LASF126
     /tmp/ccIZhkak.s:292    .text:0000000000000130 .LBB47
     /tmp/ccIZhkak.s:307    .text:000000000000013c .LBE47
     /tmp/ccIZhkak.s:311    .text:0000000000000140 .LBB49
     /tmp/ccIZhkak.s:326    .text:000000000000014c .LBE49
     /tmp/ccIZhkak.s:346    .text:0000000000000174 .LBB51
     /tmp/ccIZhkak.s:357    .text:0000000000000178 .LBE51
     /tmp/ccIZhkak.s:2359   .debug_loc:0000000000000000 .LLST5
     /tmp/ccIZhkak.s:362    .text:000000000000017c .LBB53
     /tmp/ccIZhkak.s:373    .text:0000000000000180 .LBE53
     /tmp/ccIZhkak.s:2366   .debug_loc:0000000000000023 .LLST6
     /tmp/ccIZhkak.s:341    .text:0000000000000170 .LVL16
     /tmp/ccIZhkak.s:235    .text:00000000000000d8 .LBB41
     /tmp/ccIZhkak.s:247    .text:00000000000000e0 .LBE41
     /tmp/ccIZhkak.s:2373   .debug_loc:0000000000000046 .LLST3
     /tmp/ccIZhkak.s:266    .text:0000000000000114 .LBB44
     /tmp/ccIZhkak.s:274    .text:0000000000000118 .LBE44
     /tmp/ccIZhkak.s:2381   .debug_loc:000000000000006a .LLST4
     /tmp/ccIZhkak.s:199    .text:00000000000000b0 .LFB52
     /tmp/ccIZhkak.s:224    .text:00000000000000d8 .LFE52
     /tmp/ccIZhkak.s:213    .text:00000000000000c8 .LVL11
     /tmp/ccIZhkak.s:46     .text:0000000000000020 .LFB51
     /tmp/ccIZhkak.s:193    .text:00000000000000b0 .LFE51
     /tmp/ccIZhkak.s:2514   .debug_str:0000000000000225 .LASF127
     /tmp/ccIZhkak.s:2388   .debug_loc:000000000000008d .LLST0
     /tmp/ccIZhkak.s:101    .text:0000000000000058 .LBB31
     /tmp/ccIZhkak.s:188    .text:00000000000000ac .LBE31
     /tmp/ccIZhkak.s:103    .text:0000000000000058 .LBB32
     /tmp/ccIZhkak.s:119    .text:0000000000000064 .LBE32
     /tmp/ccIZhkak.s:125    .text:000000000000006c .LBB34
     /tmp/ccIZhkak.s:140    .text:0000000000000078 .LBE34
     /tmp/ccIZhkak.s:160    .text:00000000000000a0 .LBB36
     /tmp/ccIZhkak.s:171    .text:00000000000000a4 .LBE36
     /tmp/ccIZhkak.s:2407   .debug_loc:00000000000000da .LLST1
     /tmp/ccIZhkak.s:176    .text:00000000000000a8 .LBB38
     /tmp/ccIZhkak.s:187    .text:00000000000000ac .LBE38
     /tmp/ccIZhkak.s:2414   .debug_loc:00000000000000fd .LLST2
     /tmp/ccIZhkak.s:151    .text:0000000000000094 .LVL5
     /tmp/ccIZhkak.s:155    .text:000000000000009c .LVL6
     /tmp/ccIZhkak.s:58     .text:0000000000000030 .LBB28
     /tmp/ccIZhkak.s:75     .text:000000000000003c .LBE28
     /tmp/ccIZhkak.s:10     .text:0000000000000000 .LFB50
     /tmp/ccIZhkak.s:40     .text:0000000000000020 .LFE50
     /tmp/ccIZhkak.s:2706   .debug_str:000000000000081e .LASF142
     /tmp/ccIZhkak.s:2718   .debug_str:0000000000000876 .LASF128
     /tmp/ccIZhkak.s:2496   .debug_str:0000000000000194 .LASF129
     /tmp/ccIZhkak.s:2684   .debug_str:00000000000006dd .LASF130
     /tmp/ccIZhkak.s:2582   .debug_str:0000000000000435 .LASF131
     /tmp/ccIZhkak.s:345    .text:0000000000000174 .LVL17
GAS LISTING /tmp/ccIZhkak.s 			page 20


     /tmp/ccIZhkak.s:354    .text:0000000000000178 .LVL18
     /tmp/ccIZhkak.s:361    .text:000000000000017c .LVL19
     /tmp/ccIZhkak.s:370    .text:0000000000000180 .LVL20
     /tmp/ccIZhkak.s:234    .text:00000000000000d8 .LVL12
     /tmp/ccIZhkak.s:244    .text:00000000000000e0 .LVL13
     /tmp/ccIZhkak.s:265    .text:0000000000000114 .LVL14
     /tmp/ccIZhkak.s:272    .text:0000000000000118 .LVL15
     /tmp/ccIZhkak.s:73     .text:000000000000003c .LVL0
     /tmp/ccIZhkak.s:80     .text:0000000000000040 .LVL1
     /tmp/ccIZhkak.s:84     .text:0000000000000048 .LVL2
     /tmp/ccIZhkak.s:97     .text:0000000000000058 .LVL3
     /tmp/ccIZhkak.s:112    .text:000000000000005c .LVL4
     /tmp/ccIZhkak.s:159    .text:00000000000000a0 .LVL7
     /tmp/ccIZhkak.s:168    .text:00000000000000a4 .LVL8
     /tmp/ccIZhkak.s:175    .text:00000000000000a8 .LVL9
     /tmp/ccIZhkak.s:184    .text:00000000000000ac .LVL10
     /tmp/ccIZhkak.s:393    .debug_info:0000000000000000 .Ldebug_info0

UNDEFINED SYMBOLS
_ZN3TCB16timeSliceCounterE
_Z12printIntegerm
_ZN3TCB8dispatchEv
console_handler
_ZN3TCB20timeSliceCounterTestE
_ZN3TCB7runningE
