GAS LISTING /tmp/ccwGv3PS.s 			page 1


   1              		.file	"syscall_cpp.cpp"
   2              		.option pic
   3              		.option norelax
   4              		.text
   5              	.Ltext0:
   6              		.align	2
   7              		.globl	_ZN6Thread3runEv
   9              	_ZN6Thread3runEv:
  10              	.LFB44:
  11              		.file 1 "src/syscall_cpp.cpp"
   1:src/syscall_cpp.cpp **** 
   2:src/syscall_cpp.cpp **** #include "../h/syscall_c.hpp"
   3:src/syscall_cpp.cpp **** #include "../h/syscall_cpp.hpp"
   4:src/syscall_cpp.cpp **** 
   5:src/syscall_cpp.cpp **** 
   6:src/syscall_cpp.cpp **** Semaphore::Semaphore(unsigned int init) {
   7:src/syscall_cpp.cpp ****     sem_open(&this->myHandle, init);
   8:src/syscall_cpp.cpp **** }
   9:src/syscall_cpp.cpp **** 
  10:src/syscall_cpp.cpp **** Semaphore::~Semaphore() {
  11:src/syscall_cpp.cpp ****     sem_close(this->myHandle);
  12:src/syscall_cpp.cpp **** }
  13:src/syscall_cpp.cpp **** 
  14:src/syscall_cpp.cpp **** int Semaphore::wait() {
  15:src/syscall_cpp.cpp ****     return sem_wait(this->myHandle);
  16:src/syscall_cpp.cpp **** }
  17:src/syscall_cpp.cpp **** 
  18:src/syscall_cpp.cpp **** int Semaphore::signal() {
  19:src/syscall_cpp.cpp ****     return sem_signal(this->myHandle);
  20:src/syscall_cpp.cpp **** }
  21:src/syscall_cpp.cpp **** 
  22:src/syscall_cpp.cpp **** //THREAD
  23:src/syscall_cpp.cpp **** void Thread::dispatch() {
  24:src/syscall_cpp.cpp ****     thread_dispatch();
  25:src/syscall_cpp.cpp **** }
  26:src/syscall_cpp.cpp **** 
  27:src/syscall_cpp.cpp **** Thread::Thread(void (*body)(void *), void *arg) {
  28:src/syscall_cpp.cpp ****     thread_create(&this->myHandle, body, arg);
  29:src/syscall_cpp.cpp **** }
  30:src/syscall_cpp.cpp **** 
  31:src/syscall_cpp.cpp **** void Thread::join() {
  32:src/syscall_cpp.cpp ****     thread_join(myHandle);
  33:src/syscall_cpp.cpp **** }
  34:src/syscall_cpp.cpp **** 
  35:src/syscall_cpp.cpp **** Thread::~Thread() {
  36:src/syscall_cpp.cpp ****     thread_exit(); //Da li ovo tako treba? Msm da ne
  37:src/syscall_cpp.cpp **** }
  38:src/syscall_cpp.cpp **** 
  39:src/syscall_cpp.cpp **** int Thread::start() {
  40:src/syscall_cpp.cpp ****     //todo
  41:src/syscall_cpp.cpp ****     return 0;
  42:src/syscall_cpp.cpp **** }
  43:src/syscall_cpp.cpp **** 
  44:src/syscall_cpp.cpp **** Thread::Thread() {
  45:src/syscall_cpp.cpp ****     //todo
  46:src/syscall_cpp.cpp **** }
  47:src/syscall_cpp.cpp **** 
GAS LISTING /tmp/ccwGv3PS.s 			page 2


  48:src/syscall_cpp.cpp **** void Thread::run() {
  12              		.loc 1 48 20
  13              		.cfi_startproc
  14              	.LVL0:
  15 0000 130101FF 		addi	sp,sp,-16
  16              		.cfi_def_cfa_offset 16
  17 0004 23348100 		sd	s0,8(sp)
  18              		.cfi_offset 8, -8
  19 0008 13040101 		addi	s0,sp,16
  20              		.cfi_def_cfa 8, 0
  49:src/syscall_cpp.cpp ****     //todo
  50:src/syscall_cpp.cpp **** }
  21              		.loc 1 50 1 is_stmt 0
  22 000c 03348100 		ld	s0,8(sp)
  23              		.cfi_restore 8
  24              		.cfi_def_cfa 2, 16
  25 0010 13010101 		addi	sp,sp,16
  26              		.cfi_def_cfa_offset 0
  27 0014 67800000 		jr	ra
  28              		.cfi_endproc
  29              	.LFE44:
  31              		.align	2
  32              		.globl	_ZN9SemaphoreD2Ev
  34              	_ZN9SemaphoreD2Ev:
  35              	.LFB26:
  10:src/syscall_cpp.cpp ****     sem_close(this->myHandle);
  36              		.loc 1 10 1 is_stmt 1
  37              		.cfi_startproc
  38              		.cfi_personality 0x9b,DW.ref.__gxx_personality_v0
  39              		.cfi_lsda 0x1b,.LLSDA26
  40              	.LVL1:
  41 0018 130101FF 		addi	sp,sp,-16
  42              		.cfi_def_cfa_offset 16
  43 001c 23341100 		sd	ra,8(sp)
  44 0020 23308100 		sd	s0,0(sp)
  45              		.cfi_offset 1, -8
  46              		.cfi_offset 8, -16
  47 0024 13040101 		addi	s0,sp,16
  48              		.cfi_def_cfa 8, 0
  49              	.LBB2:
  10:src/syscall_cpp.cpp ****     sem_close(this->myHandle);
  50              		.loc 1 10 23 is_stmt 0
  51 0028 97070000 		lla	a5,_ZTV9Semaphore+16
  51      93870700 
  52 0030 2330F500 		sd	a5,0(a0)
  11:src/syscall_cpp.cpp **** }
  53              		.loc 1 11 5 is_stmt 1
  11:src/syscall_cpp.cpp **** }
  54              		.loc 1 11 14 is_stmt 0
  55 0034 03358500 		ld	a0,8(a0)
  56              	.LVL2:
  57 0038 97000000 		call	_Z9sem_closeP11MySemaphore@plt
  57      E7800000 
  58              	.LVL3:
  59              	.LBE2:
  12:src/syscall_cpp.cpp **** 
  60              		.loc 1 12 1
GAS LISTING /tmp/ccwGv3PS.s 			page 3


  61 0040 83308100 		ld	ra,8(sp)
  62              		.cfi_restore 1
  63 0044 03340100 		ld	s0,0(sp)
  64              		.cfi_restore 8
  65              		.cfi_def_cfa 2, 16
  66 0048 13010101 		addi	sp,sp,16
  67              		.cfi_def_cfa_offset 0
  68 004c 67800000 		jr	ra
  69              		.cfi_endproc
  70              	.LFE26:
  71              		.globl	__gxx_personality_v0
  72              		.section	.gcc_except_table,"a",@progbits
  73              	.LLSDA26:
  74 0000 FF       		.byte	0xff
  75 0001 FF       		.byte	0xff
  76 0002 03       		.byte	0x3
  77 0003 00       		.byte	0
  78              		.text
  80              		.globl	_ZN9SemaphoreD1Ev
  81              		.set	_ZN9SemaphoreD1Ev,_ZN9SemaphoreD2Ev
  82              		.align	2
  83              		.globl	_ZN9SemaphoreD0Ev
  85              	_ZN9SemaphoreD0Ev:
  86              	.LFB28:
  10:src/syscall_cpp.cpp ****     sem_close(this->myHandle);
  87              		.loc 1 10 1 is_stmt 1
  88              		.cfi_startproc
  89              	.LVL4:
  90 0050 130101FE 		addi	sp,sp,-32
  91              		.cfi_def_cfa_offset 32
  92 0054 233C1100 		sd	ra,24(sp)
  93 0058 23388100 		sd	s0,16(sp)
  94 005c 23349100 		sd	s1,8(sp)
  95              		.cfi_offset 1, -8
  96              		.cfi_offset 8, -16
  97              		.cfi_offset 9, -24
  98 0060 13040102 		addi	s0,sp,32
  99              		.cfi_def_cfa 8, 0
 100 0064 93040500 		mv	s1,a0
  12:src/syscall_cpp.cpp **** 
 101              		.loc 1 12 1 is_stmt 0
 102 0068 97000000 		call	_ZN9SemaphoreD1Ev
 102      E7800000 
 103              	.LVL5:
 104 0070 13850400 		mv	a0,s1
 105 0074 97000000 		call	_ZdlPv@plt
 105      E7800000 
 106              	.LVL6:
 107 007c 83308101 		ld	ra,24(sp)
 108              		.cfi_restore 1
 109 0080 03340101 		ld	s0,16(sp)
 110              		.cfi_restore 8
 111              		.cfi_def_cfa 2, 32
 112 0084 83348100 		ld	s1,8(sp)
 113              		.cfi_restore 9
 114              	.LVL7:
 115 0088 13010102 		addi	sp,sp,32
GAS LISTING /tmp/ccwGv3PS.s 			page 4


 116              		.cfi_def_cfa_offset 0
 117 008c 67800000 		jr	ra
 118              		.cfi_endproc
 119              	.LFE28:
 121              		.align	2
 122              		.globl	_ZN6ThreadD2Ev
 124              	_ZN6ThreadD2Ev:
 125              	.LFB37:
  35:src/syscall_cpp.cpp ****     thread_exit(); //Da li ovo tako treba? Msm da ne
 126              		.loc 1 35 1 is_stmt 1
 127              		.cfi_startproc
 128              		.cfi_personality 0x9b,DW.ref.__gxx_personality_v0
 129              		.cfi_lsda 0x1b,.LLSDA37
 130              	.LVL8:
 131 0090 130101FF 		addi	sp,sp,-16
 132              		.cfi_def_cfa_offset 16
 133 0094 23341100 		sd	ra,8(sp)
 134 0098 23308100 		sd	s0,0(sp)
 135              		.cfi_offset 1, -8
 136              		.cfi_offset 8, -16
 137 009c 13040101 		addi	s0,sp,16
 138              		.cfi_def_cfa 8, 0
 139              	.LBB3:
  35:src/syscall_cpp.cpp ****     thread_exit(); //Da li ovo tako treba? Msm da ne
 140              		.loc 1 35 17 is_stmt 0
 141 00a0 97070000 		lla	a5,_ZTV6Thread+16
 141      93870700 
 142 00a8 2330F500 		sd	a5,0(a0)
  36:src/syscall_cpp.cpp **** }
 143              		.loc 1 36 5 is_stmt 1
  36:src/syscall_cpp.cpp **** }
 144              		.loc 1 36 16 is_stmt 0
 145 00ac 97000000 		call	_Z11thread_exitv@plt
 145      E7800000 
 146              	.LVL9:
 147              	.LBE3:
  37:src/syscall_cpp.cpp **** 
 148              		.loc 1 37 1
 149 00b4 83308100 		ld	ra,8(sp)
 150              		.cfi_restore 1
 151 00b8 03340100 		ld	s0,0(sp)
 152              		.cfi_restore 8
 153              		.cfi_def_cfa 2, 16
 154 00bc 13010101 		addi	sp,sp,16
 155              		.cfi_def_cfa_offset 0
 156 00c0 67800000 		jr	ra
 157              		.cfi_endproc
 158              	.LFE37:
 159              		.section	.gcc_except_table
 160              	.LLSDA37:
 161 0004 FF       		.byte	0xff
 162 0005 FF       		.byte	0xff
 163 0006 03       		.byte	0x3
 164 0007 00       		.byte	0
 165              		.text
 167              		.globl	_ZN6ThreadD1Ev
 168              		.set	_ZN6ThreadD1Ev,_ZN6ThreadD2Ev
GAS LISTING /tmp/ccwGv3PS.s 			page 5


 169              		.align	2
 170              		.globl	_ZN6ThreadD0Ev
 172              	_ZN6ThreadD0Ev:
 173              	.LFB39:
  35:src/syscall_cpp.cpp ****     thread_exit(); //Da li ovo tako treba? Msm da ne
 174              		.loc 1 35 1 is_stmt 1
 175              		.cfi_startproc
 176              	.LVL10:
 177 00c4 130101FE 		addi	sp,sp,-32
 178              		.cfi_def_cfa_offset 32
 179 00c8 233C1100 		sd	ra,24(sp)
 180 00cc 23388100 		sd	s0,16(sp)
 181 00d0 23349100 		sd	s1,8(sp)
 182              		.cfi_offset 1, -8
 183              		.cfi_offset 8, -16
 184              		.cfi_offset 9, -24
 185 00d4 13040102 		addi	s0,sp,32
 186              		.cfi_def_cfa 8, 0
 187 00d8 93040500 		mv	s1,a0
  37:src/syscall_cpp.cpp **** 
 188              		.loc 1 37 1 is_stmt 0
 189 00dc 97000000 		call	_ZN6ThreadD1Ev
 189      E7800000 
 190              	.LVL11:
 191 00e4 13850400 		mv	a0,s1
 192 00e8 97000000 		call	_ZdlPv@plt
 192      E7800000 
 193              	.LVL12:
 194 00f0 83308101 		ld	ra,24(sp)
 195              		.cfi_restore 1
 196 00f4 03340101 		ld	s0,16(sp)
 197              		.cfi_restore 8
 198              		.cfi_def_cfa 2, 32
 199 00f8 83348100 		ld	s1,8(sp)
 200              		.cfi_restore 9
 201              	.LVL13:
 202 00fc 13010102 		addi	sp,sp,32
 203              		.cfi_def_cfa_offset 0
 204 0100 67800000 		jr	ra
 205              		.cfi_endproc
 206              	.LFE39:
 208              		.align	2
 209              		.globl	_ZN9SemaphoreC2Ej
 211              	_ZN9SemaphoreC2Ej:
 212              	.LFB23:
   6:src/syscall_cpp.cpp ****     sem_open(&this->myHandle, init);
 213              		.loc 1 6 1 is_stmt 1
 214              		.cfi_startproc
 215              	.LVL14:
 216 0104 130101FF 		addi	sp,sp,-16
 217              		.cfi_def_cfa_offset 16
 218 0108 23341100 		sd	ra,8(sp)
 219 010c 23308100 		sd	s0,0(sp)
 220              		.cfi_offset 1, -8
 221              		.cfi_offset 8, -16
 222 0110 13040101 		addi	s0,sp,16
 223              		.cfi_def_cfa 8, 0
GAS LISTING /tmp/ccwGv3PS.s 			page 6


 224              	.LBB4:
   6:src/syscall_cpp.cpp ****     sem_open(&this->myHandle, init);
 225              		.loc 1 6 39 is_stmt 0
 226 0114 97070000 		lla	a5,_ZTV9Semaphore+16
 226      93870700 
 227 011c 2330F500 		sd	a5,0(a0)
   7:src/syscall_cpp.cpp **** }
 228              		.loc 1 7 5 is_stmt 1
   7:src/syscall_cpp.cpp **** }
 229              		.loc 1 7 13 is_stmt 0
 230 0120 13058500 		addi	a0,a0,8
 231              	.LVL15:
 232 0124 97000000 		call	_Z8sem_openPP11MySemaphorej@plt
 232      E7800000 
 233              	.LVL16:
 234              	.LBE4:
   8:src/syscall_cpp.cpp **** 
 235              		.loc 1 8 1
 236 012c 83308100 		ld	ra,8(sp)
 237              		.cfi_restore 1
 238 0130 03340100 		ld	s0,0(sp)
 239              		.cfi_restore 8
 240              		.cfi_def_cfa 2, 16
 241 0134 13010101 		addi	sp,sp,16
 242              		.cfi_def_cfa_offset 0
 243 0138 67800000 		jr	ra
 244              		.cfi_endproc
 245              	.LFE23:
 247              		.globl	_ZN9SemaphoreC1Ej
 248              		.set	_ZN9SemaphoreC1Ej,_ZN9SemaphoreC2Ej
 249              		.align	2
 250              		.globl	_ZN9Semaphore4waitEv
 252              	_ZN9Semaphore4waitEv:
 253              	.LFB29:
  14:src/syscall_cpp.cpp ****     return sem_wait(this->myHandle);
 254              		.loc 1 14 23 is_stmt 1
 255              		.cfi_startproc
 256              	.LVL17:
 257 013c 130101FF 		addi	sp,sp,-16
 258              		.cfi_def_cfa_offset 16
 259 0140 23341100 		sd	ra,8(sp)
 260 0144 23308100 		sd	s0,0(sp)
 261              		.cfi_offset 1, -8
 262              		.cfi_offset 8, -16
 263 0148 13040101 		addi	s0,sp,16
 264              		.cfi_def_cfa 8, 0
  15:src/syscall_cpp.cpp **** }
 265              		.loc 1 15 5
  15:src/syscall_cpp.cpp **** }
 266              		.loc 1 15 20 is_stmt 0
 267 014c 03358500 		ld	a0,8(a0)
 268              	.LVL18:
 269 0150 97000000 		call	_Z8sem_waitP11MySemaphore@plt
 269      E7800000 
 270              	.LVL19:
  16:src/syscall_cpp.cpp **** 
 271              		.loc 1 16 1
GAS LISTING /tmp/ccwGv3PS.s 			page 7


 272 0158 83308100 		ld	ra,8(sp)
 273              		.cfi_restore 1
 274 015c 03340100 		ld	s0,0(sp)
 275              		.cfi_restore 8
 276              		.cfi_def_cfa 2, 16
 277 0160 13010101 		addi	sp,sp,16
 278              		.cfi_def_cfa_offset 0
 279 0164 67800000 		jr	ra
 280              		.cfi_endproc
 281              	.LFE29:
 283              		.align	2
 284              		.globl	_ZN9Semaphore6signalEv
 286              	_ZN9Semaphore6signalEv:
 287              	.LFB30:
  18:src/syscall_cpp.cpp ****     return sem_signal(this->myHandle);
 288              		.loc 1 18 25 is_stmt 1
 289              		.cfi_startproc
 290              	.LVL20:
 291 0168 130101FF 		addi	sp,sp,-16
 292              		.cfi_def_cfa_offset 16
 293 016c 23341100 		sd	ra,8(sp)
 294 0170 23308100 		sd	s0,0(sp)
 295              		.cfi_offset 1, -8
 296              		.cfi_offset 8, -16
 297 0174 13040101 		addi	s0,sp,16
 298              		.cfi_def_cfa 8, 0
  19:src/syscall_cpp.cpp **** }
 299              		.loc 1 19 5
  19:src/syscall_cpp.cpp **** }
 300              		.loc 1 19 22 is_stmt 0
 301 0178 03358500 		ld	a0,8(a0)
 302              	.LVL21:
 303 017c 97000000 		call	_Z10sem_signalP11MySemaphore@plt
 303      E7800000 
 304              	.LVL22:
  20:src/syscall_cpp.cpp **** 
 305              		.loc 1 20 1
 306 0184 83308100 		ld	ra,8(sp)
 307              		.cfi_restore 1
 308 0188 03340100 		ld	s0,0(sp)
 309              		.cfi_restore 8
 310              		.cfi_def_cfa 2, 16
 311 018c 13010101 		addi	sp,sp,16
 312              		.cfi_def_cfa_offset 0
 313 0190 67800000 		jr	ra
 314              		.cfi_endproc
 315              	.LFE30:
 317              		.align	2
 318              		.globl	_ZN6Thread8dispatchEv
 320              	_ZN6Thread8dispatchEv:
 321              	.LFB31:
  23:src/syscall_cpp.cpp ****     thread_dispatch();
 322              		.loc 1 23 25 is_stmt 1
 323              		.cfi_startproc
 324 0194 130101FF 		addi	sp,sp,-16
 325              		.cfi_def_cfa_offset 16
 326 0198 23341100 		sd	ra,8(sp)
GAS LISTING /tmp/ccwGv3PS.s 			page 8


 327 019c 23308100 		sd	s0,0(sp)
 328              		.cfi_offset 1, -8
 329              		.cfi_offset 8, -16
 330 01a0 13040101 		addi	s0,sp,16
 331              		.cfi_def_cfa 8, 0
  24:src/syscall_cpp.cpp **** }
 332              		.loc 1 24 5
  24:src/syscall_cpp.cpp **** }
 333              		.loc 1 24 20 is_stmt 0
 334 01a4 97000000 		call	_Z15thread_dispatchv@plt
 334      E7800000 
 335              	.LVL23:
  25:src/syscall_cpp.cpp **** 
 336              		.loc 1 25 1
 337 01ac 83308100 		ld	ra,8(sp)
 338              		.cfi_restore 1
 339 01b0 03340100 		ld	s0,0(sp)
 340              		.cfi_restore 8
 341              		.cfi_def_cfa 2, 16
 342 01b4 13010101 		addi	sp,sp,16
 343              		.cfi_def_cfa_offset 0
 344 01b8 67800000 		jr	ra
 345              		.cfi_endproc
 346              	.LFE31:
 348              		.align	2
 349              		.globl	_ZN6ThreadC2EPFvPvES0_
 351              	_ZN6ThreadC2EPFvPvES0_:
 352              	.LFB33:
  27:src/syscall_cpp.cpp ****     thread_create(&this->myHandle, body, arg);
 353              		.loc 1 27 1 is_stmt 1
 354              		.cfi_startproc
 355              	.LVL24:
 356 01bc 130101FF 		addi	sp,sp,-16
 357              		.cfi_def_cfa_offset 16
 358 01c0 23341100 		sd	ra,8(sp)
 359 01c4 23308100 		sd	s0,0(sp)
 360              		.cfi_offset 1, -8
 361              		.cfi_offset 8, -16
 362 01c8 13040101 		addi	s0,sp,16
 363              		.cfi_def_cfa 8, 0
 364              	.LBB5:
  27:src/syscall_cpp.cpp ****     thread_create(&this->myHandle, body, arg);
 365              		.loc 1 27 47 is_stmt 0
 366 01cc 97070000 		lla	a5,_ZTV6Thread+16
 366      93870700 
 367 01d4 2330F500 		sd	a5,0(a0)
  28:src/syscall_cpp.cpp **** }
 368              		.loc 1 28 5 is_stmt 1
  28:src/syscall_cpp.cpp **** }
 369              		.loc 1 28 18 is_stmt 0
 370 01d8 13058500 		addi	a0,a0,8
 371              	.LVL25:
 372 01dc 97000000 		call	_Z13thread_createPP3TCBPFvPvES2_@plt
 372      E7800000 
 373              	.LVL26:
 374              	.LBE5:
  29:src/syscall_cpp.cpp **** 
GAS LISTING /tmp/ccwGv3PS.s 			page 9


 375              		.loc 1 29 1
 376 01e4 83308100 		ld	ra,8(sp)
 377              		.cfi_restore 1
 378 01e8 03340100 		ld	s0,0(sp)
 379              		.cfi_restore 8
 380              		.cfi_def_cfa 2, 16
 381 01ec 13010101 		addi	sp,sp,16
 382              		.cfi_def_cfa_offset 0
 383 01f0 67800000 		jr	ra
 384              		.cfi_endproc
 385              	.LFE33:
 387              		.globl	_ZN6ThreadC1EPFvPvES0_
 388              		.set	_ZN6ThreadC1EPFvPvES0_,_ZN6ThreadC2EPFvPvES0_
 389              		.align	2
 390              		.globl	_ZN6Thread4joinEv
 392              	_ZN6Thread4joinEv:
 393              	.LFB35:
  31:src/syscall_cpp.cpp ****     thread_join(myHandle);
 394              		.loc 1 31 21 is_stmt 1
 395              		.cfi_startproc
 396              	.LVL27:
 397 01f4 130101FF 		addi	sp,sp,-16
 398              		.cfi_def_cfa_offset 16
 399 01f8 23341100 		sd	ra,8(sp)
 400 01fc 23308100 		sd	s0,0(sp)
 401              		.cfi_offset 1, -8
 402              		.cfi_offset 8, -16
 403 0200 13040101 		addi	s0,sp,16
 404              		.cfi_def_cfa 8, 0
  32:src/syscall_cpp.cpp **** }
 405              		.loc 1 32 5
  32:src/syscall_cpp.cpp **** }
 406              		.loc 1 32 16 is_stmt 0
 407 0204 03358500 		ld	a0,8(a0)
 408              	.LVL28:
 409 0208 97000000 		call	_Z11thread_joinP3TCB@plt
 409      E7800000 
 410              	.LVL29:
  33:src/syscall_cpp.cpp **** 
 411              		.loc 1 33 1
 412 0210 83308100 		ld	ra,8(sp)
 413              		.cfi_restore 1
 414 0214 03340100 		ld	s0,0(sp)
 415              		.cfi_restore 8
 416              		.cfi_def_cfa 2, 16
 417 0218 13010101 		addi	sp,sp,16
 418              		.cfi_def_cfa_offset 0
 419 021c 67800000 		jr	ra
 420              		.cfi_endproc
 421              	.LFE35:
 423              		.align	2
 424              		.globl	_ZN6Thread5startEv
 426              	_ZN6Thread5startEv:
 427              	.LFB40:
  39:src/syscall_cpp.cpp ****     //todo
 428              		.loc 1 39 21 is_stmt 1
 429              		.cfi_startproc
GAS LISTING /tmp/ccwGv3PS.s 			page 10


 430              	.LVL30:
 431 0220 130101FF 		addi	sp,sp,-16
 432              		.cfi_def_cfa_offset 16
 433 0224 23348100 		sd	s0,8(sp)
 434              		.cfi_offset 8, -8
 435 0228 13040101 		addi	s0,sp,16
 436              		.cfi_def_cfa 8, 0
  41:src/syscall_cpp.cpp **** }
 437              		.loc 1 41 5
  42:src/syscall_cpp.cpp **** 
 438              		.loc 1 42 1 is_stmt 0
 439 022c 13050000 		li	a0,0
 440              	.LVL31:
 441 0230 03348100 		ld	s0,8(sp)
 442              		.cfi_restore 8
 443              		.cfi_def_cfa 2, 16
 444 0234 13010101 		addi	sp,sp,16
 445              		.cfi_def_cfa_offset 0
 446 0238 67800000 		jr	ra
 447              		.cfi_endproc
 448              	.LFE40:
 450              		.align	2
 451              		.globl	_ZN6ThreadC2Ev
 453              	_ZN6ThreadC2Ev:
 454              	.LFB42:
  44:src/syscall_cpp.cpp ****     //todo
 455              		.loc 1 44 1 is_stmt 1
 456              		.cfi_startproc
 457              	.LVL32:
 458 023c 130101FF 		addi	sp,sp,-16
 459              		.cfi_def_cfa_offset 16
 460 0240 23348100 		sd	s0,8(sp)
 461              		.cfi_offset 8, -8
 462 0244 13040101 		addi	s0,sp,16
 463              		.cfi_def_cfa 8, 0
 464              	.LBB6:
  44:src/syscall_cpp.cpp ****     //todo
 465              		.loc 1 44 16 is_stmt 0
 466 0248 97070000 		lla	a5,_ZTV6Thread+16
 466      93870700 
 467 0250 2330F500 		sd	a5,0(a0)
 468              	.LBE6:
  46:src/syscall_cpp.cpp **** 
 469              		.loc 1 46 1
 470 0254 03348100 		ld	s0,8(sp)
 471              		.cfi_restore 8
 472              		.cfi_def_cfa 2, 16
 473 0258 13010101 		addi	sp,sp,16
 474              		.cfi_def_cfa_offset 0
 475 025c 67800000 		jr	ra
 476              		.cfi_endproc
 477              	.LFE42:
 479              		.globl	_ZN6ThreadC1Ev
 480              		.set	_ZN6ThreadC1Ev,_ZN6ThreadC2Ev
 481              		.weak	_ZTV9Semaphore
 482              		.section	.data.rel.ro.local._ZTV9Semaphore,"awG",@progbits,_ZTV9Semaphore,comdat
 483              		.align	3
GAS LISTING /tmp/ccwGv3PS.s 			page 11


 486              	_ZTV9Semaphore:
 487 0000 00000000 		.dword	0
 487      00000000 
 488 0008 00000000 		.dword	0
 488      00000000 
 489 0010 00000000 		.dword	_ZN9SemaphoreD1Ev
 489      00000000 
 490 0018 00000000 		.dword	_ZN9SemaphoreD0Ev
 490      00000000 
 491              		.weak	_ZTV6Thread
 492              		.section	.data.rel.ro.local._ZTV6Thread,"awG",@progbits,_ZTV6Thread,comdat
 493              		.align	3
 496              	_ZTV6Thread:
 497 0000 00000000 		.dword	0
 497      00000000 
 498 0008 00000000 		.dword	0
 498      00000000 
 499 0010 00000000 		.dword	_ZN6ThreadD1Ev
 499      00000000 
 500 0018 00000000 		.dword	_ZN6ThreadD0Ev
 500      00000000 
 501 0020 00000000 		.dword	_ZN6Thread3runEv
 501      00000000 
 502              		.text
 503              	.Letext0:
 504              		.file 2 "src/../h/../lib/hw.h"
 505              		.file 3 "src/../h/list.hpp"
 506              		.file 4 "src/../h/tcb.hpp"
 507              		.file 5 "src/../h/mySemaphore.hpp"
 508              		.file 6 "src/../h/syscall_c.hpp"
 509              		.file 7 "src/../h/syscall_cpp.hpp"
 3290              		.align	3
 3293              	DW.ref.__gxx_personality_v0:
 3294 0000 00000000 		.dword	__gxx_personality_v0
 3294      00000000 
 3295              		.ident	"GCC: (Ubuntu 9.4.0-1ubuntu1~20.04) 9.4.0"
 3296              		.section	.note.GNU-stack,"",@progbits
GAS LISTING /tmp/ccwGv3PS.s 			page 12


DEFINED SYMBOLS
                            *ABS*:0000000000000000 syscall_cpp.cpp
     /tmp/ccwGv3PS.s:9      .text:0000000000000000 _ZN6Thread3runEv
     /tmp/ccwGv3PS.s:13     .text:0000000000000000 .L0 
     /tmp/ccwGv3PS.s:15     .text:0000000000000000 .L0 
     /tmp/ccwGv3PS.s:16     .text:0000000000000004 .L0 
     /tmp/ccwGv3PS.s:18     .text:0000000000000008 .L0 
     /tmp/ccwGv3PS.s:20     .text:000000000000000c .L0 
     /tmp/ccwGv3PS.s:22     .text:000000000000000c .L0 
     /tmp/ccwGv3PS.s:23     .text:0000000000000010 .L0 
     /tmp/ccwGv3PS.s:24     .text:0000000000000010 .L0 
     /tmp/ccwGv3PS.s:26     .text:0000000000000014 .L0 
     /tmp/ccwGv3PS.s:28     .text:0000000000000018 .L0 
     /tmp/ccwGv3PS.s:34     .text:0000000000000018 _ZN9SemaphoreD2Ev
     /tmp/ccwGv3PS.s:37     .text:0000000000000018 .L0 
     /tmp/ccwGv3PS.s:3293   .data.rel.local.DW.ref.__gxx_personality_v0:0000000000000000 DW.ref.__gxx_personality_v0
     /tmp/ccwGv3PS.s:41     .text:0000000000000018 .L0 
     /tmp/ccwGv3PS.s:42     .text:000000000000001c .L0 
     /tmp/ccwGv3PS.s:45     .text:0000000000000024 .L0 
     /tmp/ccwGv3PS.s:46     .text:0000000000000024 .L0 
     /tmp/ccwGv3PS.s:48     .text:0000000000000028 .L0 
     /tmp/ccwGv3PS.s:486    .data.rel.ro.local._ZTV9Semaphore:0000000000000000 _ZTV9Semaphore
     /tmp/ccwGv3PS.s:51     .text:0000000000000028 .L0 
     /tmp/ccwGv3PS.s:54     .text:0000000000000034 .L0 
     /tmp/ccwGv3PS.s:55     .text:0000000000000034 .L0 
     /tmp/ccwGv3PS.s:61     .text:0000000000000040 .L0 
     /tmp/ccwGv3PS.s:62     .text:0000000000000044 .L0 
     /tmp/ccwGv3PS.s:64     .text:0000000000000048 .L0 
     /tmp/ccwGv3PS.s:65     .text:0000000000000048 .L0 
     /tmp/ccwGv3PS.s:67     .text:000000000000004c .L0 
     /tmp/ccwGv3PS.s:69     .text:0000000000000050 .L0 
     /tmp/ccwGv3PS.s:34     .text:0000000000000018 _ZN9SemaphoreD1Ev
     /tmp/ccwGv3PS.s:85     .text:0000000000000050 _ZN9SemaphoreD0Ev
     /tmp/ccwGv3PS.s:88     .text:0000000000000050 .L0 
     /tmp/ccwGv3PS.s:90     .text:0000000000000050 .L0 
     /tmp/ccwGv3PS.s:91     .text:0000000000000054 .L0 
     /tmp/ccwGv3PS.s:95     .text:0000000000000060 .L0 
     /tmp/ccwGv3PS.s:96     .text:0000000000000060 .L0 
     /tmp/ccwGv3PS.s:97     .text:0000000000000060 .L0 
     /tmp/ccwGv3PS.s:99     .text:0000000000000064 .L0 
     /tmp/ccwGv3PS.s:102    .text:0000000000000068 .L0 
     /tmp/ccwGv3PS.s:108    .text:0000000000000080 .L0 
     /tmp/ccwGv3PS.s:110    .text:0000000000000084 .L0 
     /tmp/ccwGv3PS.s:111    .text:0000000000000084 .L0 
     /tmp/ccwGv3PS.s:113    .text:0000000000000088 .L0 
     /tmp/ccwGv3PS.s:116    .text:000000000000008c .L0 
     /tmp/ccwGv3PS.s:118    .text:0000000000000090 .L0 
     /tmp/ccwGv3PS.s:124    .text:0000000000000090 _ZN6ThreadD2Ev
     /tmp/ccwGv3PS.s:127    .text:0000000000000090 .L0 
     /tmp/ccwGv3PS.s:131    .text:0000000000000090 .L0 
     /tmp/ccwGv3PS.s:132    .text:0000000000000094 .L0 
     /tmp/ccwGv3PS.s:135    .text:000000000000009c .L0 
     /tmp/ccwGv3PS.s:136    .text:000000000000009c .L0 
     /tmp/ccwGv3PS.s:138    .text:00000000000000a0 .L0 
     /tmp/ccwGv3PS.s:496    .data.rel.ro.local._ZTV6Thread:0000000000000000 _ZTV6Thread
     /tmp/ccwGv3PS.s:141    .text:00000000000000a0 .L0 
     /tmp/ccwGv3PS.s:144    .text:00000000000000ac .L0 
GAS LISTING /tmp/ccwGv3PS.s 			page 13


     /tmp/ccwGv3PS.s:145    .text:00000000000000ac .L0 
     /tmp/ccwGv3PS.s:149    .text:00000000000000b4 .L0 
     /tmp/ccwGv3PS.s:150    .text:00000000000000b8 .L0 
     /tmp/ccwGv3PS.s:152    .text:00000000000000bc .L0 
     /tmp/ccwGv3PS.s:153    .text:00000000000000bc .L0 
     /tmp/ccwGv3PS.s:155    .text:00000000000000c0 .L0 
     /tmp/ccwGv3PS.s:157    .text:00000000000000c4 .L0 
     /tmp/ccwGv3PS.s:124    .text:0000000000000090 _ZN6ThreadD1Ev
     /tmp/ccwGv3PS.s:172    .text:00000000000000c4 _ZN6ThreadD0Ev
     /tmp/ccwGv3PS.s:175    .text:00000000000000c4 .L0 
     /tmp/ccwGv3PS.s:177    .text:00000000000000c4 .L0 
     /tmp/ccwGv3PS.s:178    .text:00000000000000c8 .L0 
     /tmp/ccwGv3PS.s:182    .text:00000000000000d4 .L0 
     /tmp/ccwGv3PS.s:183    .text:00000000000000d4 .L0 
     /tmp/ccwGv3PS.s:184    .text:00000000000000d4 .L0 
     /tmp/ccwGv3PS.s:186    .text:00000000000000d8 .L0 
     /tmp/ccwGv3PS.s:189    .text:00000000000000dc .L0 
     /tmp/ccwGv3PS.s:195    .text:00000000000000f4 .L0 
     /tmp/ccwGv3PS.s:197    .text:00000000000000f8 .L0 
     /tmp/ccwGv3PS.s:198    .text:00000000000000f8 .L0 
     /tmp/ccwGv3PS.s:200    .text:00000000000000fc .L0 
     /tmp/ccwGv3PS.s:203    .text:0000000000000100 .L0 
     /tmp/ccwGv3PS.s:205    .text:0000000000000104 .L0 
     /tmp/ccwGv3PS.s:211    .text:0000000000000104 _ZN9SemaphoreC2Ej
     /tmp/ccwGv3PS.s:214    .text:0000000000000104 .L0 
     /tmp/ccwGv3PS.s:216    .text:0000000000000104 .L0 
     /tmp/ccwGv3PS.s:217    .text:0000000000000108 .L0 
     /tmp/ccwGv3PS.s:220    .text:0000000000000110 .L0 
     /tmp/ccwGv3PS.s:221    .text:0000000000000110 .L0 
     /tmp/ccwGv3PS.s:223    .text:0000000000000114 .L0 
     /tmp/ccwGv3PS.s:226    .text:0000000000000114 .L0 
     /tmp/ccwGv3PS.s:229    .text:0000000000000120 .L0 
     /tmp/ccwGv3PS.s:230    .text:0000000000000120 .L0 
     /tmp/ccwGv3PS.s:236    .text:000000000000012c .L0 
     /tmp/ccwGv3PS.s:237    .text:0000000000000130 .L0 
     /tmp/ccwGv3PS.s:239    .text:0000000000000134 .L0 
     /tmp/ccwGv3PS.s:240    .text:0000000000000134 .L0 
     /tmp/ccwGv3PS.s:242    .text:0000000000000138 .L0 
     /tmp/ccwGv3PS.s:244    .text:000000000000013c .L0 
     /tmp/ccwGv3PS.s:211    .text:0000000000000104 _ZN9SemaphoreC1Ej
     /tmp/ccwGv3PS.s:252    .text:000000000000013c _ZN9Semaphore4waitEv
     /tmp/ccwGv3PS.s:255    .text:000000000000013c .L0 
     /tmp/ccwGv3PS.s:257    .text:000000000000013c .L0 
     /tmp/ccwGv3PS.s:258    .text:0000000000000140 .L0 
     /tmp/ccwGv3PS.s:261    .text:0000000000000148 .L0 
     /tmp/ccwGv3PS.s:262    .text:0000000000000148 .L0 
     /tmp/ccwGv3PS.s:264    .text:000000000000014c .L0 
     /tmp/ccwGv3PS.s:266    .text:000000000000014c .L0 
     /tmp/ccwGv3PS.s:267    .text:000000000000014c .L0 
     /tmp/ccwGv3PS.s:272    .text:0000000000000158 .L0 
     /tmp/ccwGv3PS.s:273    .text:000000000000015c .L0 
     /tmp/ccwGv3PS.s:275    .text:0000000000000160 .L0 
     /tmp/ccwGv3PS.s:276    .text:0000000000000160 .L0 
     /tmp/ccwGv3PS.s:278    .text:0000000000000164 .L0 
     /tmp/ccwGv3PS.s:280    .text:0000000000000168 .L0 
     /tmp/ccwGv3PS.s:286    .text:0000000000000168 _ZN9Semaphore6signalEv
     /tmp/ccwGv3PS.s:289    .text:0000000000000168 .L0 
GAS LISTING /tmp/ccwGv3PS.s 			page 14


     /tmp/ccwGv3PS.s:291    .text:0000000000000168 .L0 
     /tmp/ccwGv3PS.s:292    .text:000000000000016c .L0 
     /tmp/ccwGv3PS.s:295    .text:0000000000000174 .L0 
     /tmp/ccwGv3PS.s:296    .text:0000000000000174 .L0 
     /tmp/ccwGv3PS.s:298    .text:0000000000000178 .L0 
     /tmp/ccwGv3PS.s:300    .text:0000000000000178 .L0 
     /tmp/ccwGv3PS.s:301    .text:0000000000000178 .L0 
     /tmp/ccwGv3PS.s:306    .text:0000000000000184 .L0 
     /tmp/ccwGv3PS.s:307    .text:0000000000000188 .L0 
     /tmp/ccwGv3PS.s:309    .text:000000000000018c .L0 
     /tmp/ccwGv3PS.s:310    .text:000000000000018c .L0 
     /tmp/ccwGv3PS.s:312    .text:0000000000000190 .L0 
     /tmp/ccwGv3PS.s:314    .text:0000000000000194 .L0 
     /tmp/ccwGv3PS.s:320    .text:0000000000000194 _ZN6Thread8dispatchEv
     /tmp/ccwGv3PS.s:323    .text:0000000000000194 .L0 
     /tmp/ccwGv3PS.s:324    .text:0000000000000194 .L0 
     /tmp/ccwGv3PS.s:325    .text:0000000000000198 .L0 
     /tmp/ccwGv3PS.s:328    .text:00000000000001a0 .L0 
     /tmp/ccwGv3PS.s:329    .text:00000000000001a0 .L0 
     /tmp/ccwGv3PS.s:331    .text:00000000000001a4 .L0 
     /tmp/ccwGv3PS.s:333    .text:00000000000001a4 .L0 
     /tmp/ccwGv3PS.s:334    .text:00000000000001a4 .L0 
     /tmp/ccwGv3PS.s:337    .text:00000000000001ac .L0 
     /tmp/ccwGv3PS.s:338    .text:00000000000001b0 .L0 
     /tmp/ccwGv3PS.s:340    .text:00000000000001b4 .L0 
     /tmp/ccwGv3PS.s:341    .text:00000000000001b4 .L0 
     /tmp/ccwGv3PS.s:343    .text:00000000000001b8 .L0 
     /tmp/ccwGv3PS.s:345    .text:00000000000001bc .L0 
     /tmp/ccwGv3PS.s:351    .text:00000000000001bc _ZN6ThreadC2EPFvPvES0_
     /tmp/ccwGv3PS.s:354    .text:00000000000001bc .L0 
     /tmp/ccwGv3PS.s:356    .text:00000000000001bc .L0 
     /tmp/ccwGv3PS.s:357    .text:00000000000001c0 .L0 
     /tmp/ccwGv3PS.s:360    .text:00000000000001c8 .L0 
     /tmp/ccwGv3PS.s:361    .text:00000000000001c8 .L0 
     /tmp/ccwGv3PS.s:363    .text:00000000000001cc .L0 
     /tmp/ccwGv3PS.s:366    .text:00000000000001cc .L0 
     /tmp/ccwGv3PS.s:369    .text:00000000000001d8 .L0 
     /tmp/ccwGv3PS.s:370    .text:00000000000001d8 .L0 
     /tmp/ccwGv3PS.s:376    .text:00000000000001e4 .L0 
     /tmp/ccwGv3PS.s:377    .text:00000000000001e8 .L0 
     /tmp/ccwGv3PS.s:379    .text:00000000000001ec .L0 
     /tmp/ccwGv3PS.s:380    .text:00000000000001ec .L0 
     /tmp/ccwGv3PS.s:382    .text:00000000000001f0 .L0 
     /tmp/ccwGv3PS.s:384    .text:00000000000001f4 .L0 
     /tmp/ccwGv3PS.s:351    .text:00000000000001bc _ZN6ThreadC1EPFvPvES0_
     /tmp/ccwGv3PS.s:392    .text:00000000000001f4 _ZN6Thread4joinEv
     /tmp/ccwGv3PS.s:395    .text:00000000000001f4 .L0 
     /tmp/ccwGv3PS.s:397    .text:00000000000001f4 .L0 
     /tmp/ccwGv3PS.s:398    .text:00000000000001f8 .L0 
     /tmp/ccwGv3PS.s:401    .text:0000000000000200 .L0 
     /tmp/ccwGv3PS.s:402    .text:0000000000000200 .L0 
     /tmp/ccwGv3PS.s:404    .text:0000000000000204 .L0 
     /tmp/ccwGv3PS.s:406    .text:0000000000000204 .L0 
     /tmp/ccwGv3PS.s:407    .text:0000000000000204 .L0 
     /tmp/ccwGv3PS.s:412    .text:0000000000000210 .L0 
     /tmp/ccwGv3PS.s:413    .text:0000000000000214 .L0 
     /tmp/ccwGv3PS.s:415    .text:0000000000000218 .L0 
GAS LISTING /tmp/ccwGv3PS.s 			page 15


     /tmp/ccwGv3PS.s:416    .text:0000000000000218 .L0 
     /tmp/ccwGv3PS.s:418    .text:000000000000021c .L0 
     /tmp/ccwGv3PS.s:420    .text:0000000000000220 .L0 
     /tmp/ccwGv3PS.s:426    .text:0000000000000220 _ZN6Thread5startEv
     /tmp/ccwGv3PS.s:429    .text:0000000000000220 .L0 
     /tmp/ccwGv3PS.s:431    .text:0000000000000220 .L0 
     /tmp/ccwGv3PS.s:432    .text:0000000000000224 .L0 
     /tmp/ccwGv3PS.s:434    .text:0000000000000228 .L0 
     /tmp/ccwGv3PS.s:436    .text:000000000000022c .L0 
     /tmp/ccwGv3PS.s:438    .text:000000000000022c .L0 
     /tmp/ccwGv3PS.s:439    .text:000000000000022c .L0 
     /tmp/ccwGv3PS.s:442    .text:0000000000000234 .L0 
     /tmp/ccwGv3PS.s:443    .text:0000000000000234 .L0 
     /tmp/ccwGv3PS.s:445    .text:0000000000000238 .L0 
     /tmp/ccwGv3PS.s:447    .text:000000000000023c .L0 
     /tmp/ccwGv3PS.s:453    .text:000000000000023c _ZN6ThreadC2Ev
     /tmp/ccwGv3PS.s:456    .text:000000000000023c .L0 
     /tmp/ccwGv3PS.s:458    .text:000000000000023c .L0 
     /tmp/ccwGv3PS.s:459    .text:0000000000000240 .L0 
     /tmp/ccwGv3PS.s:461    .text:0000000000000244 .L0 
     /tmp/ccwGv3PS.s:463    .text:0000000000000248 .L0 
     /tmp/ccwGv3PS.s:466    .text:0000000000000248 .L0 
     /tmp/ccwGv3PS.s:470    .text:0000000000000254 .L0 
     /tmp/ccwGv3PS.s:471    .text:0000000000000258 .L0 
     /tmp/ccwGv3PS.s:472    .text:0000000000000258 .L0 
     /tmp/ccwGv3PS.s:474    .text:000000000000025c .L0 
     /tmp/ccwGv3PS.s:476    .text:0000000000000260 .L0 
     /tmp/ccwGv3PS.s:453    .text:000000000000023c _ZN6ThreadC1Ev
     /tmp/ccwGv3PS.s:510    .text:0000000000000260 .L0 
     /tmp/ccwGv3PS.s:51     .text:0000000000000028 .L0 
     /tmp/ccwGv3PS.s:141    .text:00000000000000a0 .L0 
     /tmp/ccwGv3PS.s:226    .text:0000000000000114 .L0 
     /tmp/ccwGv3PS.s:366    .text:00000000000001cc .L0 
     /tmp/ccwGv3PS.s:466    .text:0000000000000248 .L0 
     /tmp/ccwGv3PS.s:1844   .debug_abbrev:0000000000000000 .Ldebug_abbrev0
     /tmp/ccwGv3PS.s:3235   .debug_str:000000000000070f .LASF128
     /tmp/ccwGv3PS.s:3215   .debug_str:0000000000000675 .LASF129
     /tmp/ccwGv3PS.s:3051   .debug_str:0000000000000142 .LASF130
     /tmp/ccwGv3PS.s:5      .text:0000000000000000 .Ltext0
     /tmp/ccwGv3PS.s:503    .text:0000000000000260 .Letext0
     /tmp/ccwGv3PS.s:3003   .debug_line:0000000000000000 .Ldebug_line0
     /tmp/ccwGv3PS.s:3161   .debug_str:00000000000004a2 .LASF0
     /tmp/ccwGv3PS.s:3177   .debug_str:0000000000000524 .LASF1
     /tmp/ccwGv3PS.s:3143   .debug_str:0000000000000416 .LASF2
     /tmp/ccwGv3PS.s:3113   .debug_str:0000000000000372 .LASF4
     /tmp/ccwGv3PS.s:3221   .debug_str:00000000000006a5 .LASF3
     /tmp/ccwGv3PS.s:3029   .debug_str:00000000000000b3 .LASF5
     /tmp/ccwGv3PS.s:3183   .debug_str:000000000000055a .LASF6
     /tmp/ccwGv3PS.s:3159   .debug_str:000000000000048f .LASF7
     /tmp/ccwGv3PS.s:3255   .debug_str:0000000000000869 .LASF8
     /tmp/ccwGv3PS.s:3095   .debug_str:00000000000002c2 .LASF9
     /tmp/ccwGv3PS.s:3193   .debug_str:00000000000005cc .LASF10
     /tmp/ccwGv3PS.s:3241   .debug_str:00000000000007f6 .LASF11
     /tmp/ccwGv3PS.s:3033   .debug_str:00000000000000c5 .LASF12
     /tmp/ccwGv3PS.s:3011   .debug_str:000000000000002f .LASF13
     /tmp/ccwGv3PS.s:3043   .debug_str:0000000000000108 .LASF14
     /tmp/ccwGv3PS.s:3219   .debug_str:000000000000068f .LASF15
GAS LISTING /tmp/ccwGv3PS.s 			page 16


     /tmp/ccwGv3PS.s:3053   .debug_str:0000000000000178 .LASF16
     /tmp/ccwGv3PS.s:3133   .debug_str:00000000000003ee .LASF34
     /tmp/ccwGv3PS.s:3135   .debug_str:00000000000003f8 .LASF131
     /tmp/ccwGv3PS.s:3061   .debug_str:00000000000001b1 .LASF17
     /tmp/ccwGv3PS.s:3137   .debug_str:00000000000003fd .LASF18
     /tmp/ccwGv3PS.s:3111   .debug_str:000000000000036d .LASF19
     /tmp/ccwGv3PS.s:3231   .debug_str:00000000000006f3 .LASF21
     /tmp/ccwGv3PS.s:3211   .debug_str:0000000000000653 .LASF26
     /tmp/ccwGv3PS.s:3153   .debug_str:000000000000046d .LASF80
     /tmp/ccwGv3PS.s:3101   .debug_str:00000000000002f9 .LASF82
     /tmp/ccwGv3PS.s:3233   .debug_str:0000000000000706 .LASF20
     /tmp/ccwGv3PS.s:3065   .debug_str:00000000000001d2 .LASF22
     /tmp/ccwGv3PS.s:3093   .debug_str:00000000000002ba .LASF23
     /tmp/ccwGv3PS.s:3063   .debug_str:00000000000001b6 .LASF24
     /tmp/ccwGv3PS.s:3237   .debug_str:00000000000007d3 .LASF25
     /tmp/ccwGv3PS.s:3009   .debug_str:0000000000000011 .LASF27
     /tmp/ccwGv3PS.s:3039   .debug_str:00000000000000ec .LASF28
     /tmp/ccwGv3PS.s:3125   .debug_str:00000000000003a7 .LASF29
     /tmp/ccwGv3PS.s:3169   .debug_str:00000000000004d8 .LASF30
     /tmp/ccwGv3PS.s:3025   .debug_str:0000000000000090 .LASF31
     /tmp/ccwGv3PS.s:3129   .debug_str:00000000000003d7 .LASF32
     /tmp/ccwGv3PS.s:3269   .debug_str:00000000000008c9 .LASF33
     /tmp/ccwGv3PS.s:3017   .debug_str:0000000000000058 .LASF132
     /tmp/ccwGv3PS.s:3067   .debug_str:00000000000001ef .LASF35
     /tmp/ccwGv3PS.s:3203   .debug_str:000000000000061c .LASF36
     /tmp/ccwGv3PS.s:3185   .debug_str:000000000000056d .LASF37
     /tmp/ccwGv3PS.s:3047   .debug_str:0000000000000124 .LASF38
     /tmp/ccwGv3PS.s:3145   .debug_str:0000000000000424 .LASF39
     /tmp/ccwGv3PS.s:3107   .debug_str:000000000000032e .LASF40
     /tmp/ccwGv3PS.s:3015   .debug_str:000000000000004e .LASF41
     /tmp/ccwGv3PS.s:3127   .debug_str:00000000000003c2 .LASF42
     /tmp/ccwGv3PS.s:3115   .debug_str:0000000000000379 .LASF43
     /tmp/ccwGv3PS.s:3245   .debug_str:0000000000000817 .LASF44
     /tmp/ccwGv3PS.s:3123   .debug_str:000000000000039a .LASF45
     /tmp/ccwGv3PS.s:3175   .debug_str:0000000000000504 .LASF46
     /tmp/ccwGv3PS.s:3205   .debug_str:0000000000000628 .LASF133
     /tmp/ccwGv3PS.s:3217   .debug_str:0000000000000689 .LASF87
     /tmp/ccwGv3PS.s:3149   .debug_str:000000000000044d .LASF88
     /tmp/ccwGv3PS.s:3073   .debug_str:0000000000000206 .LASF134
     /tmp/ccwGv3PS.s:3097   .debug_str:00000000000002d0 .LASF135
     /tmp/ccwGv3PS.s:3119   .debug_str:000000000000038d .LASF47
     /tmp/ccwGv3PS.s:3167   .debug_str:00000000000004d2 .LASF48
     /tmp/ccwGv3PS.s:3121   .debug_str:0000000000000392 .LASF49
     /tmp/ccwGv3PS.s:3117   .debug_str:0000000000000384 .LASF50
     /tmp/ccwGv3PS.s:3007   .debug_str:0000000000000009 .LASF51
     /tmp/ccwGv3PS.s:3131   .debug_str:00000000000003e0 .LASF52
     /tmp/ccwGv3PS.s:3103   .debug_str:0000000000000310 .LASF54
     /tmp/ccwGv3PS.s:3265   .debug_str:00000000000008b2 .LASF56
     /tmp/ccwGv3PS.s:3109   .debug_str:0000000000000345 .LASF58
     /tmp/ccwGv3PS.s:3165   .debug_str:00000000000004c9 .LASF53
     /tmp/ccwGv3PS.s:3077   .debug_str:0000000000000217 .LASF55
     /tmp/ccwGv3PS.s:3223   .debug_str:00000000000006b7 .LASF57
     /tmp/ccwGv3PS.s:3197   .debug_str:00000000000005e5 .LASF59
     /tmp/ccwGv3PS.s:3031   .debug_str:00000000000000ba .LASF136
     /tmp/ccwGv3PS.s:3079   .debug_str:000000000000022a .LASF60
     /tmp/ccwGv3PS.s:3201   .debug_str:0000000000000610 .LASF61
     /tmp/ccwGv3PS.s:3251   .debug_str:0000000000000849 .LASF62
GAS LISTING /tmp/ccwGv3PS.s 			page 17


     /tmp/ccwGv3PS.s:3035   .debug_str:00000000000000d5 .LASF63
     /tmp/ccwGv3PS.s:3187   .debug_str:0000000000000578 .LASF64
     /tmp/ccwGv3PS.s:3049   .debug_str:000000000000013b .LASF65
     /tmp/ccwGv3PS.s:3199   .debug_str:00000000000005f6 .LASF66
     /tmp/ccwGv3PS.s:3271   .debug_str:00000000000008e3 .LASF67
     /tmp/ccwGv3PS.s:3081   .debug_str:000000000000022f .LASF68
     /tmp/ccwGv3PS.s:3267   .debug_str:00000000000008c0 .LASF69
     /tmp/ccwGv3PS.s:3225   .debug_str:00000000000006bc .LASF70
     /tmp/ccwGv3PS.s:3263   .debug_str:00000000000008ac .LASF71
     /tmp/ccwGv3PS.s:3259   .debug_str:0000000000000889 .LASF72
     /tmp/ccwGv3PS.s:3141   .debug_str:000000000000040f .LASF73
     /tmp/ccwGv3PS.s:3055   .debug_str:000000000000018e .LASF74
     /tmp/ccwGv3PS.s:3005   .debug_str:0000000000000000 .LASF75
     /tmp/ccwGv3PS.s:3071   .debug_str:0000000000000200 .LASF76
     /tmp/ccwGv3PS.s:3105   .debug_str:0000000000000329 .LASF77
     /tmp/ccwGv3PS.s:3247   .debug_str:000000000000082d .LASF78
     /tmp/ccwGv3PS.s:3179   .debug_str:0000000000000537 .LASF93
     /tmp/ccwGv3PS.s:3139   .debug_str:0000000000000402 .LASF95
     /tmp/ccwGv3PS.s:3239   .debug_str:00000000000007df .LASF79
     /tmp/ccwGv3PS.s:3023   .debug_str:0000000000000088 .LASF81
     /tmp/ccwGv3PS.s:3171   .debug_str:00000000000004e3 .LASF83
     /tmp/ccwGv3PS.s:3027   .debug_str:00000000000000ad .LASF84
     /tmp/ccwGv3PS.s:3091   .debug_str:00000000000002a7 .LASF85
     /tmp/ccwGv3PS.s:3173   .debug_str:00000000000004f2 .LASF86
     /tmp/ccwGv3PS.s:3087   .debug_str:000000000000027a .LASF89
     /tmp/ccwGv3PS.s:3207   .debug_str:000000000000062d .LASF90
     /tmp/ccwGv3PS.s:3277   .debug_str:000000000000090d .LASF137
     /tmp/ccwGv3PS.s:3281   .debug_str:0000000000000930 .LASF91
     /tmp/ccwGv3PS.s:3257   .debug_str:0000000000000879 .LASF138
     /tmp/ccwGv3PS.s:3261   .debug_str:00000000000008a2 .LASF92
     /tmp/ccwGv3PS.s:3275   .debug_str:00000000000008f8 .LASF94
     /tmp/ccwGv3PS.s:3151   .debug_str:000000000000045d .LASF96
     /tmp/ccwGv3PS.s:3243   .debug_str:0000000000000805 .LASF97
     /tmp/ccwGv3PS.s:3213   .debug_str:000000000000066a .LASF98
     /tmp/ccwGv3PS.s:3041   .debug_str:00000000000000f6 .LASF99
     /tmp/ccwGv3PS.s:3249   .debug_str:0000000000000834 .LASF100
     /tmp/ccwGv3PS.s:3209   .debug_str:000000000000063c .LASF101
     /tmp/ccwGv3PS.s:10     .text:0000000000000000 .LFB44
     /tmp/ccwGv3PS.s:29     .text:0000000000000018 .LFE44
     /tmp/ccwGv3PS.s:3273   .debug_str:00000000000008f3 .LASF102
     /tmp/ccwGv3PS.s:3059   .debug_str:00000000000001a2 .LASF104
     /tmp/ccwGv3PS.s:454    .text:000000000000023c .LFB42
     /tmp/ccwGv3PS.s:477    .text:0000000000000260 .LFE42
     /tmp/ccwGv3PS.s:427    .text:0000000000000220 .LFB40
     /tmp/ccwGv3PS.s:448    .text:000000000000023c .LFE40
     /tmp/ccwGv3PS.s:2788   .debug_loc:0000000000000000 .LLST12
     /tmp/ccwGv3PS.s:3195   .debug_str:00000000000005db .LASF103
     /tmp/ccwGv3PS.s:3155   .debug_str:0000000000000477 .LASF105
     /tmp/ccwGv3PS.s:173    .text:00000000000000c4 .LFB39
     /tmp/ccwGv3PS.s:206    .text:0000000000000104 .LFE39
     /tmp/ccwGv3PS.s:2802   .debug_loc:0000000000000039 .LLST3
     /tmp/ccwGv3PS.s:190    .text:00000000000000e4 .LVL11
     /tmp/ccwGv3PS.s:193    .text:00000000000000f0 .LVL12
     /tmp/ccwGv3PS.s:3013   .debug_str:000000000000003f .LASF106
     /tmp/ccwGv3PS.s:125    .text:0000000000000090 .LFB37
     /tmp/ccwGv3PS.s:158    .text:00000000000000c4 .LFE37
     /tmp/ccwGv3PS.s:2820   .debug_loc:0000000000000085 .LLST2
GAS LISTING /tmp/ccwGv3PS.s 			page 18


     /tmp/ccwGv3PS.s:146    .text:00000000000000b4 .LVL9
     /tmp/ccwGv3PS.s:393    .text:00000000000001f4 .LFB35
     /tmp/ccwGv3PS.s:421    .text:0000000000000220 .LFE35
     /tmp/ccwGv3PS.s:2834   .debug_loc:00000000000000be .LLST11
     /tmp/ccwGv3PS.s:410    .text:0000000000000210 .LVL29
     /tmp/ccwGv3PS.s:3089   .debug_str:0000000000000290 .LASF107
     /tmp/ccwGv3PS.s:352    .text:00000000000001bc .LFB33
     /tmp/ccwGv3PS.s:385    .text:00000000000001f4 .LFE33
     /tmp/ccwGv3PS.s:2848   .debug_loc:00000000000000f7 .LLST8
     /tmp/ccwGv3PS.s:2868   .debug_loc:0000000000000145 .LLST9
     /tmp/ccwGv3PS.s:2882   .debug_loc:000000000000017e .LLST10
     /tmp/ccwGv3PS.s:373    .text:00000000000001e4 .LVL26
     /tmp/ccwGv3PS.s:321    .text:0000000000000194 .LFB31
     /tmp/ccwGv3PS.s:346    .text:00000000000001bc .LFE31
     /tmp/ccwGv3PS.s:335    .text:00000000000001ac .LVL23
     /tmp/ccwGv3PS.s:287    .text:0000000000000168 .LFB30
     /tmp/ccwGv3PS.s:315    .text:0000000000000194 .LFE30
     /tmp/ccwGv3PS.s:2896   .debug_loc:00000000000001b7 .LLST7
     /tmp/ccwGv3PS.s:304    .text:0000000000000184 .LVL22
     /tmp/ccwGv3PS.s:253    .text:000000000000013c .LFB29
     /tmp/ccwGv3PS.s:281    .text:0000000000000168 .LFE29
     /tmp/ccwGv3PS.s:2910   .debug_loc:00000000000001f0 .LLST6
     /tmp/ccwGv3PS.s:270    .text:0000000000000158 .LVL19
     /tmp/ccwGv3PS.s:3085   .debug_str:0000000000000268 .LASF108
     /tmp/ccwGv3PS.s:86     .text:0000000000000050 .LFB28
     /tmp/ccwGv3PS.s:119    .text:0000000000000090 .LFE28
     /tmp/ccwGv3PS.s:2924   .debug_loc:0000000000000229 .LLST1
     /tmp/ccwGv3PS.s:103    .text:0000000000000070 .LVL5
     /tmp/ccwGv3PS.s:106    .text:000000000000007c .LVL6
     /tmp/ccwGv3PS.s:3037   .debug_str:00000000000000da .LASF109
     /tmp/ccwGv3PS.s:35     .text:0000000000000018 .LFB26
     /tmp/ccwGv3PS.s:70     .text:0000000000000050 .LFE26
     /tmp/ccwGv3PS.s:2942   .debug_loc:0000000000000275 .LLST0
     /tmp/ccwGv3PS.s:58     .text:0000000000000040 .LVL3
     /tmp/ccwGv3PS.s:3283   .debug_str:0000000000000939 .LASF110
     /tmp/ccwGv3PS.s:3279   .debug_str:000000000000091e .LASF111
     /tmp/ccwGv3PS.s:212    .text:0000000000000104 .LFB23
     /tmp/ccwGv3PS.s:245    .text:000000000000013c .LFE23
     /tmp/ccwGv3PS.s:2956   .debug_loc:00000000000002ae .LLST4
     /tmp/ccwGv3PS.s:2976   .debug_loc:00000000000002fc .LLST5
     /tmp/ccwGv3PS.s:233    .text:000000000000012c .LVL16
     /tmp/ccwGv3PS.s:3285   .debug_str:000000000000093e .LASF139
     /tmp/ccwGv3PS.s:3227   .debug_str:00000000000006d9 .LASF140
     /tmp/ccwGv3PS.s:3181   .debug_str:0000000000000549 .LASF112
     /tmp/ccwGv3PS.s:3021   .debug_str:000000000000007c .LASF114
     /tmp/ccwGv3PS.s:3099   .debug_str:00000000000002e4 .LASF113
     /tmp/ccwGv3PS.s:3069   .debug_str:00000000000001f4 .LASF115
     /tmp/ccwGv3PS.s:3189   .debug_str:0000000000000590 .LASF116
     /tmp/ccwGv3PS.s:3057   .debug_str:0000000000000194 .LASF117
     /tmp/ccwGv3PS.s:3083   .debug_str:0000000000000253 .LASF118
     /tmp/ccwGv3PS.s:3045   .debug_str:0000000000000114 .LASF119
     /tmp/ccwGv3PS.s:3147   .debug_str:0000000000000430 .LASF120
     /tmp/ccwGv3PS.s:3253   .debug_str:000000000000085e .LASF121
     /tmp/ccwGv3PS.s:3163   .debug_str:00000000000004af .LASF122
     /tmp/ccwGv3PS.s:3157   .debug_str:0000000000000486 .LASF123
     /tmp/ccwGv3PS.s:3191   .debug_str:00000000000005b1 .LASF124
     /tmp/ccwGv3PS.s:3229   .debug_str:00000000000006e9 .LASF125
GAS LISTING /tmp/ccwGv3PS.s 			page 19


     /tmp/ccwGv3PS.s:3019   .debug_str:0000000000000060 .LASF126
     /tmp/ccwGv3PS.s:3075   .debug_str:000000000000020e .LASF127
     /tmp/ccwGv3PS.s:430    .text:0000000000000220 .LVL30
     /tmp/ccwGv3PS.s:440    .text:0000000000000230 .LVL31
     /tmp/ccwGv3PS.s:176    .text:00000000000000c4 .LVL10
     /tmp/ccwGv3PS.s:201    .text:00000000000000fc .LVL13
     /tmp/ccwGv3PS.s:130    .text:0000000000000090 .LVL8
     /tmp/ccwGv3PS.s:396    .text:00000000000001f4 .LVL27
     /tmp/ccwGv3PS.s:408    .text:0000000000000208 .LVL28
     /tmp/ccwGv3PS.s:355    .text:00000000000001bc .LVL24
     /tmp/ccwGv3PS.s:371    .text:00000000000001dc .LVL25
     /tmp/ccwGv3PS.s:290    .text:0000000000000168 .LVL20
     /tmp/ccwGv3PS.s:302    .text:000000000000017c .LVL21
     /tmp/ccwGv3PS.s:256    .text:000000000000013c .LVL17
     /tmp/ccwGv3PS.s:268    .text:0000000000000150 .LVL18
     /tmp/ccwGv3PS.s:89     .text:0000000000000050 .LVL4
     /tmp/ccwGv3PS.s:114    .text:0000000000000088 .LVL7
     /tmp/ccwGv3PS.s:40     .text:0000000000000018 .LVL1
     /tmp/ccwGv3PS.s:56     .text:0000000000000038 .LVL2
     /tmp/ccwGv3PS.s:215    .text:0000000000000104 .LVL14
     /tmp/ccwGv3PS.s:231    .text:0000000000000124 .LVL15
     /tmp/ccwGv3PS.s:511    .debug_info:0000000000000000 .Ldebug_info0
     /tmp/ccwGv3PS.s:73     .gcc_except_table:0000000000000000 .LLSDA26
     /tmp/ccwGv3PS.s:160    .gcc_except_table:0000000000000004 .LLSDA37

UNDEFINED SYMBOLS
_Z9sem_closeP11MySemaphore
__gxx_personality_v0
_ZdlPv
_Z11thread_exitv
_Z8sem_openPP11MySemaphorej
_Z8sem_waitP11MySemaphore
_Z10sem_signalP11MySemaphore
_Z15thread_dispatchv
_Z13thread_createPP3TCBPFvPvES2_
_Z11thread_joinP3TCB
