GAS LISTING /tmp/ccnvvGqJ.s 			page 1


   1              		.file	"syscall_c.cpp"
   2              		.option pic
   3              		.option norelax
   4              		.text
   5              	.Ltext0:
   6              		.align	2
   7              		.globl	_Z9mem_allocm
   9              	_Z9mem_allocm:
  10              	.LFB55:
  11              		.file 1 "src/syscall_c.cpp"
   1:src/syscall_c.cpp **** #include "../h/syscall_c.hpp"
   2:src/syscall_c.cpp **** #include "../h/tcb.hpp"
   3:src/syscall_c.cpp **** #include "../h/mySemaphore.hpp"
   4:src/syscall_c.cpp **** #include "../h/riscv.hpp"
   5:src/syscall_c.cpp **** 
   6:src/syscall_c.cpp **** //void* mem_alloc(size_t size) {
   7:src/syscall_c.cpp **** //    Riscv::w_a0(size);
   8:src/syscall_c.cpp **** //    __asm__ volatile("ecall");
   9:src/syscall_c.cpp **** //}
  10:src/syscall_c.cpp **** 
  11:src/syscall_c.cpp **** void* mem_alloc(size_t size) {
  12              		.loc 1 11 30
  13              		.cfi_startproc
  14              	.LVL0:
  15 0000 130101FF 		addi	sp,sp,-16
  16              		.cfi_def_cfa_offset 16
  17 0004 23348100 		sd	s0,8(sp)
  18              		.cfi_offset 8, -8
  19 0008 13040101 		addi	s0,sp,16
  20              		.cfi_def_cfa 8, 0
  12:src/syscall_c.cpp ****     size_t newSize;
  21              		.loc 1 12 5
  13:src/syscall_c.cpp ****     if(size%MEM_BLOCK_SIZE != 0) {
  22              		.loc 1 13 5
  23              		.loc 1 13 12 is_stmt 0
  24 000c 9377F503 		andi	a5,a0,63
  25              		.loc 1 13 5
  26 0010 63860700 		beqz	a5,.L2
  14:src/syscall_c.cpp ****         newSize = ((size + MEM_BLOCK_SIZE - 1) / MEM_BLOCK_SIZE) * MEM_BLOCK_SIZE;
  27              		.loc 1 14 9 is_stmt 1
  28              		.loc 1 14 43 is_stmt 0
  29 0014 1305F503 		addi	a0,a0,63
  30              	.LVL1:
  31              		.loc 1 14 17
  32 0018 137505FC 		andi	a0,a0,-64
  33              	.LVL2:
  34              	.L2:
  15:src/syscall_c.cpp ****     }
  16:src/syscall_c.cpp ****     else {
  17:src/syscall_c.cpp ****         newSize = size;
  18:src/syscall_c.cpp ****     }
  19:src/syscall_c.cpp **** 
  20:src/syscall_c.cpp ****     __asm__ volatile("mv a1, %0" : : "r"(newSize));
  35              		.loc 1 20 5 is_stmt 1
  36              		.loc 1 20 51 is_stmt 0
  37              	#APP
  38              	# 20 "src/syscall_c.cpp" 1
GAS LISTING /tmp/ccnvvGqJ.s 			page 2


  21              	    __asm__ volatile("li a0, 0x01");
  39              		mv a1, a0
  40              	# 0 "" 2
  41              		.loc 1 21 5 is_stmt 1
  42              		.loc 1 21 36 is_stmt 0
  43              	# 21 "src/syscall_c.cpp" 1
  22              	    __asm__ volatile("ecall");
  44              		li a0, 0x01
  45              	# 0 "" 2
  46              		.loc 1 22 5 is_stmt 1
  47              		.loc 1 22 30 is_stmt 0
  48              	# 22 "src/syscall_c.cpp" 1
  23              	
  24:src/syscall_c.cpp ****     //check this
  25:src/syscall_c.cpp ****     void* returnValue;
  49              		ecall
  50              	# 0 "" 2
  51              		.loc 1 25 5 is_stmt 1
  26:src/syscall_c.cpp ****     __asm__ volatile("mv %0, a0" : "=r"(returnValue));
  52              		.loc 1 26 5
  53              		.loc 1 26 54 is_stmt 0
  54              	# 26 "src/syscall_c.cpp" 1
  27              	    return returnValue;
  55              		mv a0, a0
  56              	# 0 "" 2
  57              	.LVL3:
  58              		.loc 1 27 5 is_stmt 1
  28:src/syscall_c.cpp **** }
  59              		.loc 1 28 1 is_stmt 0
  60              	#NO_APP
  61 002c 03348100 		ld	s0,8(sp)
  62              		.cfi_restore 8
  63              		.cfi_def_cfa 2, 16
  64 0030 13010101 		addi	sp,sp,16
  65              		.cfi_def_cfa_offset 0
  66 0034 67800000 		jr	ra
  67              		.cfi_endproc
  68              	.LFE55:
  70              		.align	2
  71              		.globl	_Z8mem_freePv
  73              	_Z8mem_freePv:
  74              	.LFB56:
  29:src/syscall_c.cpp **** 
  30:src/syscall_c.cpp **** int mem_free (void* ptr) {
  75              		.loc 1 30 26 is_stmt 1
  76              		.cfi_startproc
  77              	.LVL4:
  78 0038 130101FF 		addi	sp,sp,-16
  79              		.cfi_def_cfa_offset 16
  80 003c 23348100 		sd	s0,8(sp)
  81              		.cfi_offset 8, -8
  82 0040 13040101 		addi	s0,sp,16
  83              		.cfi_def_cfa 8, 0
  31:src/syscall_c.cpp **** 
  32:src/syscall_c.cpp ****     __asm__ volatile("mv a1, %0" : : "r"(ptr));
  84              		.loc 1 32 5
  85              		.loc 1 32 47 is_stmt 0
GAS LISTING /tmp/ccnvvGqJ.s 			page 3


  86              	#APP
  87              	# 32 "src/syscall_c.cpp" 1
  33              	    __asm__ volatile("li a0, 0x02");
  88              		mv a1, a0
  89              	# 0 "" 2
  90              		.loc 1 33 5 is_stmt 1
  91              		.loc 1 33 36 is_stmt 0
  92              	# 33 "src/syscall_c.cpp" 1
  34              	    __asm__ volatile("ecall");
  93              		li a0, 0x02
  94              	# 0 "" 2
  95              		.loc 1 34 5 is_stmt 1
  96              		.loc 1 34 30 is_stmt 0
  97              	# 34 "src/syscall_c.cpp" 1
  35              	
  36:src/syscall_c.cpp **** 
  37:src/syscall_c.cpp ****     uint64 returnValue;
  98              		ecall
  99              	# 0 "" 2
 100              		.loc 1 37 5 is_stmt 1
  38:src/syscall_c.cpp ****     __asm__ volatile("mv %0, a0" : "=r"(returnValue));
 101              		.loc 1 38 5
 102              		.loc 1 38 54 is_stmt 0
 103              	# 38 "src/syscall_c.cpp" 1
  39              	    return (int)returnValue;
 104              		mv a0, a0
 105              	# 0 "" 2
 106              	.LVL5:
 107              		.loc 1 39 5 is_stmt 1
  40:src/syscall_c.cpp **** }
 108              		.loc 1 40 1 is_stmt 0
 109              	#NO_APP
 110 0054 1B050500 		sext.w	a0,a0
 111              	.LVL6:
 112 0058 03348100 		ld	s0,8(sp)
 113              		.cfi_restore 8
 114              		.cfi_def_cfa 2, 16
 115 005c 13010101 		addi	sp,sp,16
 116              		.cfi_def_cfa_offset 0
 117 0060 67800000 		jr	ra
 118              		.cfi_endproc
 119              	.LFE56:
 121              		.align	2
 122              		.globl	_Z12thread_startP3TCB
 124              	_Z12thread_startP3TCB:
 125              	.LFB57:
  41:src/syscall_c.cpp **** 
  42:src/syscall_c.cpp **** void thread_start(TCB* tcb) {
 126              		.loc 1 42 29 is_stmt 1
 127              		.cfi_startproc
 128              	.LVL7:
 129 0064 130101FF 		addi	sp,sp,-16
 130              		.cfi_def_cfa_offset 16
 131 0068 23348100 		sd	s0,8(sp)
 132              		.cfi_offset 8, -8
 133 006c 13040101 		addi	s0,sp,16
 134              		.cfi_def_cfa 8, 0
GAS LISTING /tmp/ccnvvGqJ.s 			page 4


  43:src/syscall_c.cpp ****     __asm__ volatile("mv a1, %0" : : "r"(tcb));
 135              		.loc 1 43 5
 136              		.loc 1 43 47 is_stmt 0
 137              	#APP
 138              	# 43 "src/syscall_c.cpp" 1
  44              	    __asm__ volatile("li a0, 0x09");
 139              		mv a1, a0
 140              	# 0 "" 2
 141              		.loc 1 44 5 is_stmt 1
 142              		.loc 1 44 36 is_stmt 0
 143              	# 44 "src/syscall_c.cpp" 1
  45              	    __asm__ volatile("ecall");
 144              		li a0, 0x09
 145              	# 0 "" 2
 146              		.loc 1 45 5 is_stmt 1
 147              		.loc 1 45 30 is_stmt 0
 148              	# 45 "src/syscall_c.cpp" 1
  46              	}
 149              		ecall
 150              	# 0 "" 2
 151              		.loc 1 46 1
 152              	#NO_APP
 153 007c 03348100 		ld	s0,8(sp)
 154              		.cfi_restore 8
 155              		.cfi_def_cfa 2, 16
 156 0080 13010101 		addi	sp,sp,16
 157              		.cfi_def_cfa_offset 0
 158 0084 67800000 		jr	ra
 159              		.cfi_endproc
 160              	.LFE57:
 162              		.align	2
 163              		.globl	_Z27thread_create_without_startPP3TCBPFvPvES2_
 165              	_Z27thread_create_without_startPP3TCBPFvPvES2_:
 166              	.LFB58:
  47:src/syscall_c.cpp **** 
  48:src/syscall_c.cpp **** int thread_create_without_start(thread_t* handle,
  49:src/syscall_c.cpp ****                                 void (*start_routine)(void*), void* arg) {
 167              		.loc 1 49 74 is_stmt 1
 168              		.cfi_startproc
 169              	.LVL8:
 170 0088 130101FF 		addi	sp,sp,-16
 171              		.cfi_def_cfa_offset 16
 172 008c 23348100 		sd	s0,8(sp)
 173              		.cfi_offset 8, -8
 174 0090 13040101 		addi	s0,sp,16
 175              		.cfi_def_cfa 8, 0
  50:src/syscall_c.cpp ****     __asm__ volatile("mv a7, %0" : : "r"(arg));
 176              		.loc 1 50 5
 177              		.loc 1 50 47 is_stmt 0
 178              	#APP
 179              	# 50 "src/syscall_c.cpp" 1
  51              	    __asm__ volatile("mv a2, %0" : : "r"(start_routine));
 180              		mv a7, a2
 181              	# 0 "" 2
 182              		.loc 1 51 5 is_stmt 1
 183              		.loc 1 51 57 is_stmt 0
 184              	# 51 "src/syscall_c.cpp" 1
GAS LISTING /tmp/ccnvvGqJ.s 			page 5


  52              	    __asm__ volatile("mv a1, %0" : : "r"(handle));
 185              		mv a2, a1
 186              	# 0 "" 2
 187              		.loc 1 52 5 is_stmt 1
 188              		.loc 1 52 50 is_stmt 0
 189              	# 52 "src/syscall_c.cpp" 1
  53              	    __asm__ volatile("li a0, 0x10");
 190              		mv a1, a0
 191              	# 0 "" 2
 192              		.loc 1 53 5 is_stmt 1
 193              		.loc 1 53 36 is_stmt 0
 194              	# 53 "src/syscall_c.cpp" 1
  54              	    __asm__ volatile("ecall");
 195              		li a0, 0x10
 196              	# 0 "" 2
 197              		.loc 1 54 5 is_stmt 1
 198              		.loc 1 54 30 is_stmt 0
 199              	# 54 "src/syscall_c.cpp" 1
  55              	
  56:src/syscall_c.cpp ****     uint64 returnValue;
 200              		ecall
 201              	# 0 "" 2
 202              		.loc 1 56 5 is_stmt 1
  57:src/syscall_c.cpp ****     __asm__ volatile("mv %0, a0" : "=r"(returnValue));
 203              		.loc 1 57 5
 204              		.loc 1 57 54 is_stmt 0
 205              	# 57 "src/syscall_c.cpp" 1
  58              	    return (int)returnValue;
 206              		mv a0, a0
 207              	# 0 "" 2
 208              	.LVL9:
 209              		.loc 1 58 5 is_stmt 1
  59:src/syscall_c.cpp **** }
 210              		.loc 1 59 1 is_stmt 0
 211              	#NO_APP
 212 00ac 1B050500 		sext.w	a0,a0
 213              	.LVL10:
 214 00b0 03348100 		ld	s0,8(sp)
 215              		.cfi_restore 8
 216              		.cfi_def_cfa 2, 16
 217 00b4 13010101 		addi	sp,sp,16
 218              		.cfi_def_cfa_offset 0
 219 00b8 67800000 		jr	ra
 220              		.cfi_endproc
 221              	.LFE58:
 223              		.align	2
 224              		.globl	_Z13thread_createPP3TCBPFvPvES2_
 226              	_Z13thread_createPP3TCBPFvPvES2_:
 227              	.LFB59:
  60:src/syscall_c.cpp **** 
  61:src/syscall_c.cpp **** 
  62:src/syscall_c.cpp **** int thread_create(thread_t* handle, void (*start_routine)(void*), void* arg) {
 228              		.loc 1 62 78 is_stmt 1
 229              		.cfi_startproc
 230              	.LVL11:
 231 00bc 130101FF 		addi	sp,sp,-16
 232              		.cfi_def_cfa_offset 16
GAS LISTING /tmp/ccnvvGqJ.s 			page 6


 233 00c0 23348100 		sd	s0,8(sp)
 234              		.cfi_offset 8, -8
 235 00c4 13040101 		addi	s0,sp,16
 236              		.cfi_def_cfa 8, 0
  63:src/syscall_c.cpp **** 
  64:src/syscall_c.cpp ****     __asm__ volatile("mv a7, %0" : : "r"(arg));
 237              		.loc 1 64 5
 238              		.loc 1 64 47 is_stmt 0
 239              	#APP
 240              	# 64 "src/syscall_c.cpp" 1
  65              	    __asm__ volatile("mv a2, %0" : : "r"(start_routine));
 241              		mv a7, a2
 242              	# 0 "" 2
 243              		.loc 1 65 5 is_stmt 1
 244              		.loc 1 65 57 is_stmt 0
 245              	# 65 "src/syscall_c.cpp" 1
  66              	    __asm__ volatile("mv a1, %0" : : "r"(handle));
 246              		mv a2, a1
 247              	# 0 "" 2
 248              		.loc 1 66 5 is_stmt 1
 249              		.loc 1 66 50 is_stmt 0
 250              	# 66 "src/syscall_c.cpp" 1
  67              	    __asm__ volatile("li a0, 0x11");
 251              		mv a1, a0
 252              	# 0 "" 2
 253              		.loc 1 67 5 is_stmt 1
 254              		.loc 1 67 36 is_stmt 0
 255              	# 67 "src/syscall_c.cpp" 1
  68              	    __asm__ volatile("ecall");
 256              		li a0, 0x11
 257              	# 0 "" 2
 258              		.loc 1 68 5 is_stmt 1
 259              		.loc 1 68 30 is_stmt 0
 260              	# 68 "src/syscall_c.cpp" 1
  69              	
  70:src/syscall_c.cpp ****     uint64 returnValue; //bio je uint64 ali vrednosti mogu da budu i negativne
 261              		ecall
 262              	# 0 "" 2
 263              		.loc 1 70 5 is_stmt 1
  71:src/syscall_c.cpp ****     __asm__ volatile("mv %0, a0" : "=r"(returnValue));
 264              		.loc 1 71 5
 265              		.loc 1 71 54 is_stmt 0
 266              	# 71 "src/syscall_c.cpp" 1
  72              	    //if(returnValue == (uint32)4294967295) { //maxint
 267              		mv a0, a0
 268              	# 0 "" 2
 269              	.LVL12:
  73:src/syscall_c.cpp ****       //  return -1;
  74:src/syscall_c.cpp ****     //} //Ne mora izgleda da se ovo radi
  75:src/syscall_c.cpp ****     return (int)returnValue;
 270              		.loc 1 75 5 is_stmt 1
  76:src/syscall_c.cpp **** }
 271              		.loc 1 76 1 is_stmt 0
 272              	#NO_APP
 273 00e0 1B050500 		sext.w	a0,a0
 274              	.LVL13:
 275 00e4 03348100 		ld	s0,8(sp)
GAS LISTING /tmp/ccnvvGqJ.s 			page 7


 276              		.cfi_restore 8
 277              		.cfi_def_cfa 2, 16
 278 00e8 13010101 		addi	sp,sp,16
 279              		.cfi_def_cfa_offset 0
 280 00ec 67800000 		jr	ra
 281              		.cfi_endproc
 282              	.LFE59:
 284              		.align	2
 285              		.globl	_Z11thread_exitv
 287              	_Z11thread_exitv:
 288              	.LFB60:
  77:src/syscall_c.cpp **** 
  78:src/syscall_c.cpp **** int thread_exit() {
 289              		.loc 1 78 19 is_stmt 1
 290              		.cfi_startproc
 291 00f0 130101FF 		addi	sp,sp,-16
 292              		.cfi_def_cfa_offset 16
 293 00f4 23348100 		sd	s0,8(sp)
 294              		.cfi_offset 8, -8
 295 00f8 13040101 		addi	s0,sp,16
 296              		.cfi_def_cfa 8, 0
  79:src/syscall_c.cpp ****     Riscv::w_a0(0x12);
 297              		.loc 1 79 5
 298              	.LVL14:
 299              	.LBB4:
 300              	.LBB5:
 301              		.file 2 "src/../h/riscv.hpp"
   1:src/../h/riscv.hpp **** //
   2:src/../h/riscv.hpp **** // Created by marko on 20.4.22..
   3:src/../h/riscv.hpp **** //
   4:src/../h/riscv.hpp **** 
   5:src/../h/riscv.hpp **** #ifndef OS1_VEZBE07_RISCV_CONTEXT_SWITCH_2_INTERRUPT_RISCV_HPP
   6:src/../h/riscv.hpp **** #define OS1_VEZBE07_RISCV_CONTEXT_SWITCH_2_INTERRUPT_RISCV_HPP
   7:src/../h/riscv.hpp **** 
   8:src/../h/riscv.hpp **** #include "../lib/hw.h"
   9:src/../h/riscv.hpp **** 
  10:src/../h/riscv.hpp **** class Riscv
  11:src/../h/riscv.hpp **** {
  12:src/../h/riscv.hpp **** public:
  13:src/../h/riscv.hpp **** 
  14:src/../h/riscv.hpp ****     // pop sstatus.spp and sstatus.spie bits (has to be a non inline function)
  15:src/../h/riscv.hpp ****     static void popSppSpie();
  16:src/../h/riscv.hpp **** 
  17:src/../h/riscv.hpp ****     // read register scause
  18:src/../h/riscv.hpp ****     static uint64 r_scause();
  19:src/../h/riscv.hpp **** 
  20:src/../h/riscv.hpp ****     // write register scause
  21:src/../h/riscv.hpp ****     static void w_scause(uint64 scause);
  22:src/../h/riscv.hpp **** 
  23:src/../h/riscv.hpp ****     // read register sepc
  24:src/../h/riscv.hpp ****     static uint64 r_sepc();
  25:src/../h/riscv.hpp **** 
  26:src/../h/riscv.hpp ****     // write register sepc
  27:src/../h/riscv.hpp ****     static void w_sepc(uint64 sepc);
  28:src/../h/riscv.hpp **** 
  29:src/../h/riscv.hpp ****     // read register stvec
  30:src/../h/riscv.hpp ****     static uint64 r_stvec();
GAS LISTING /tmp/ccnvvGqJ.s 			page 8


  31:src/../h/riscv.hpp **** 
  32:src/../h/riscv.hpp ****     // write register stvec
  33:src/../h/riscv.hpp ****     static void w_stvec(uint64 stvec);
  34:src/../h/riscv.hpp **** 
  35:src/../h/riscv.hpp ****     // read register stval
  36:src/../h/riscv.hpp ****     static uint64 r_stval();
  37:src/../h/riscv.hpp **** 
  38:src/../h/riscv.hpp ****     // write register stval
  39:src/../h/riscv.hpp ****     static void w_stval(uint64 stval);
  40:src/../h/riscv.hpp **** 
  41:src/../h/riscv.hpp ****     enum BitMaskSip
  42:src/../h/riscv.hpp ****     {
  43:src/../h/riscv.hpp ****         SIP_SSIP = (1 << 1),
  44:src/../h/riscv.hpp ****         SIP_STIP = (1 << 5),
  45:src/../h/riscv.hpp ****         SIP_SEIP = (1 << 9),
  46:src/../h/riscv.hpp ****     };
  47:src/../h/riscv.hpp **** 
  48:src/../h/riscv.hpp ****     // mask set register sip
  49:src/../h/riscv.hpp ****     static void ms_sip(uint64 mask);
  50:src/../h/riscv.hpp **** 
  51:src/../h/riscv.hpp ****     // mask clear register sip
  52:src/../h/riscv.hpp ****     static void mc_sip(uint64 mask);
  53:src/../h/riscv.hpp **** 
  54:src/../h/riscv.hpp ****     // read register sip
  55:src/../h/riscv.hpp ****     static uint64 r_sip();
  56:src/../h/riscv.hpp **** 
  57:src/../h/riscv.hpp ****     // write register sip
  58:src/../h/riscv.hpp ****     static void w_sip(uint64 sip);
  59:src/../h/riscv.hpp **** 
  60:src/../h/riscv.hpp ****     enum BitMaskSstatus
  61:src/../h/riscv.hpp ****     {
  62:src/../h/riscv.hpp ****         SSTATUS_SIE = (1 << 1),
  63:src/../h/riscv.hpp ****         SSTATUS_SPIE = (1 << 5),
  64:src/../h/riscv.hpp ****         SSTATUS_SPP = (1 << 8),
  65:src/../h/riscv.hpp ****     };
  66:src/../h/riscv.hpp **** 
  67:src/../h/riscv.hpp ****     // mask set register sstatus
  68:src/../h/riscv.hpp ****     static void ms_sstatus(uint64 mask);
  69:src/../h/riscv.hpp **** 
  70:src/../h/riscv.hpp ****     // mask clear register sstatus
  71:src/../h/riscv.hpp ****     static void mc_sstatus(uint64 mask);
  72:src/../h/riscv.hpp **** 
  73:src/../h/riscv.hpp ****     // read register sstatus
  74:src/../h/riscv.hpp ****     static uint64 r_sstatus();
  75:src/../h/riscv.hpp **** 
  76:src/../h/riscv.hpp ****     // write register sstatus
  77:src/../h/riscv.hpp ****     static void w_sstatus(uint64 sstatus);
  78:src/../h/riscv.hpp **** 
  79:src/../h/riscv.hpp ****     // supervisor trap
  80:src/../h/riscv.hpp ****     static void supervisorTrap();
  81:src/../h/riscv.hpp **** 
  82:src/../h/riscv.hpp ****     //stvec Vector "table"
  83:src/../h/riscv.hpp ****     static void stvecVectorTable();
  84:src/../h/riscv.hpp **** 
  85:src/../h/riscv.hpp ****     //read a0 register
  86:src/../h/riscv.hpp ****     static uint64 r_a0();
  87:src/../h/riscv.hpp **** 
GAS LISTING /tmp/ccnvvGqJ.s 			page 9


  88:src/../h/riscv.hpp ****     //write to a0 register
  89:src/../h/riscv.hpp ****     static void w_a0(uint64 writeValue);
  90:src/../h/riscv.hpp **** 
  91:src/../h/riscv.hpp ****     //read a1 register
  92:src/../h/riscv.hpp ****     static uint64 r_a1();
  93:src/../h/riscv.hpp **** 
  94:src/../h/riscv.hpp ****     //write to a1 register
  95:src/../h/riscv.hpp ****     static void w_a1(uint64 writeValue);
  96:src/../h/riscv.hpp **** 
  97:src/../h/riscv.hpp ****     //read a2 register
  98:src/../h/riscv.hpp ****     static uint64 r_a2();
  99:src/../h/riscv.hpp **** 
 100:src/../h/riscv.hpp ****     //write to a2 register
 101:src/../h/riscv.hpp ****     static void w_a2(uint64 writeValue);
 102:src/../h/riscv.hpp **** 
 103:src/../h/riscv.hpp ****     //read a3 register
 104:src/../h/riscv.hpp ****     static uint64 r_a3();
 105:src/../h/riscv.hpp **** 
 106:src/../h/riscv.hpp ****     //write to a3 register
 107:src/../h/riscv.hpp ****     static void w_a3(uint64 writeValue);
 108:src/../h/riscv.hpp **** 
 109:src/../h/riscv.hpp ****     //read a4 register
 110:src/../h/riscv.hpp ****     static uint64 r_a4();
 111:src/../h/riscv.hpp **** 
 112:src/../h/riscv.hpp ****     //write to a4 register
 113:src/../h/riscv.hpp ****     static void w_a4(uint64 writeValue);
 114:src/../h/riscv.hpp **** 
 115:src/../h/riscv.hpp ****     //read a5 register
 116:src/../h/riscv.hpp ****     static uint64 r_a5();
 117:src/../h/riscv.hpp **** 
 118:src/../h/riscv.hpp ****     //write to a5 register
 119:src/../h/riscv.hpp ****     static void w_a5(uint64 writeValue);
 120:src/../h/riscv.hpp **** 
 121:src/../h/riscv.hpp ****     //read a6 register
 122:src/../h/riscv.hpp ****     static uint64 r_a6();
 123:src/../h/riscv.hpp **** 
 124:src/../h/riscv.hpp ****     //write to a6 register
 125:src/../h/riscv.hpp ****     static void w_a6(uint64 writeValue);
 126:src/../h/riscv.hpp **** 
 127:src/../h/riscv.hpp ****     //read a7 register
 128:src/../h/riscv.hpp ****     static uint64 r_a7();
 129:src/../h/riscv.hpp **** 
 130:src/../h/riscv.hpp ****     //write to a7 register
 131:src/../h/riscv.hpp ****     static void w_a7(uint64 writeValue);
 132:src/../h/riscv.hpp **** 
 133:src/../h/riscv.hpp **** 
 134:src/../h/riscv.hpp **** private:
 135:src/../h/riscv.hpp **** 
 136:src/../h/riscv.hpp ****     // supervisor trap handler
 137:src/../h/riscv.hpp ****     static void handleSupervisorTrap();
 138:src/../h/riscv.hpp **** 
 139:src/../h/riscv.hpp ****     static void handleTimerInterrupt();
 140:src/../h/riscv.hpp **** 
 141:src/../h/riscv.hpp ****     static void handleConsoleInterrupt();
 142:src/../h/riscv.hpp **** };
 143:src/../h/riscv.hpp **** 
 144:src/../h/riscv.hpp **** 
GAS LISTING /tmp/ccnvvGqJ.s 			page 10


 145:src/../h/riscv.hpp **** inline uint64 Riscv::r_scause()
 146:src/../h/riscv.hpp **** {
 147:src/../h/riscv.hpp ****     uint64 volatile scause;
 148:src/../h/riscv.hpp ****     __asm__ volatile ("csrr %[scause], scause" : [scause] "=r"(scause));
 149:src/../h/riscv.hpp ****     return scause;
 150:src/../h/riscv.hpp **** }
 151:src/../h/riscv.hpp **** 
 152:src/../h/riscv.hpp **** inline void Riscv::w_scause(uint64 scause)
 153:src/../h/riscv.hpp **** {
 154:src/../h/riscv.hpp ****     __asm__ volatile ("csrw scause, %[scause]" : : [scause] "r"(scause));
 155:src/../h/riscv.hpp **** }
 156:src/../h/riscv.hpp **** 
 157:src/../h/riscv.hpp **** inline uint64 Riscv::r_sepc()
 158:src/../h/riscv.hpp **** {
 159:src/../h/riscv.hpp ****     uint64 volatile sepc;
 160:src/../h/riscv.hpp ****     __asm__ volatile ("csrr %[sepc], sepc" : [sepc] "=r"(sepc));
 161:src/../h/riscv.hpp ****     return sepc;
 162:src/../h/riscv.hpp **** }
 163:src/../h/riscv.hpp **** 
 164:src/../h/riscv.hpp **** inline void Riscv::w_sepc(uint64 sepc)
 165:src/../h/riscv.hpp **** {
 166:src/../h/riscv.hpp ****     __asm__ volatile ("csrw sepc, %[sepc]" : : [sepc] "r"(sepc));
 167:src/../h/riscv.hpp **** }
 168:src/../h/riscv.hpp **** 
 169:src/../h/riscv.hpp **** inline uint64 Riscv::r_stvec()
 170:src/../h/riscv.hpp **** {
 171:src/../h/riscv.hpp ****     uint64 volatile stvec;
 172:src/../h/riscv.hpp ****     __asm__ volatile ("csrr %[stvec], stvec" : [stvec] "=r"(stvec));
 173:src/../h/riscv.hpp ****     return stvec;
 174:src/../h/riscv.hpp **** }
 175:src/../h/riscv.hpp **** 
 176:src/../h/riscv.hpp **** inline void Riscv::w_stvec(uint64 stvec)
 177:src/../h/riscv.hpp **** {
 178:src/../h/riscv.hpp ****     __asm__ volatile ("csrw stvec, %[stvec]" : : [stvec] "r"(stvec));
 179:src/../h/riscv.hpp **** }
 180:src/../h/riscv.hpp **** 
 181:src/../h/riscv.hpp **** inline uint64 Riscv::r_stval()
 182:src/../h/riscv.hpp **** {
 183:src/../h/riscv.hpp ****     uint64 volatile stval;
 184:src/../h/riscv.hpp ****     __asm__ volatile ("csrr %[stval], stval" : [stval] "=r"(stval));
 185:src/../h/riscv.hpp ****     return stval;
 186:src/../h/riscv.hpp **** }
 187:src/../h/riscv.hpp **** 
 188:src/../h/riscv.hpp **** inline void Riscv::w_stval(uint64 stval)
 189:src/../h/riscv.hpp **** {
 190:src/../h/riscv.hpp ****     __asm__ volatile ("csrw stval, %[stval]" : : [stval] "r"(stval));
 191:src/../h/riscv.hpp **** }
 192:src/../h/riscv.hpp **** 
 193:src/../h/riscv.hpp **** inline void Riscv::ms_sip(uint64 mask)
 194:src/../h/riscv.hpp **** {
 195:src/../h/riscv.hpp ****     __asm__ volatile ("csrs sip, %[mask]" : : [mask] "r"(mask));
 196:src/../h/riscv.hpp **** }
 197:src/../h/riscv.hpp **** 
 198:src/../h/riscv.hpp **** inline void Riscv::mc_sip(uint64 mask)
 199:src/../h/riscv.hpp **** {
 200:src/../h/riscv.hpp ****     __asm__ volatile ("csrc sip, %[mask]" : : [mask] "r"(mask));
 201:src/../h/riscv.hpp **** }
GAS LISTING /tmp/ccnvvGqJ.s 			page 11


 202:src/../h/riscv.hpp **** 
 203:src/../h/riscv.hpp **** inline uint64 Riscv::r_sip()
 204:src/../h/riscv.hpp **** {
 205:src/../h/riscv.hpp ****     uint64 volatile sip;
 206:src/../h/riscv.hpp ****     __asm__ volatile ("csrr %[sip], sip" : [sip] "=r"(sip));
 207:src/../h/riscv.hpp ****     return sip;
 208:src/../h/riscv.hpp **** }
 209:src/../h/riscv.hpp **** 
 210:src/../h/riscv.hpp **** inline void Riscv::w_sip(uint64 sip)
 211:src/../h/riscv.hpp **** {
 212:src/../h/riscv.hpp ****     __asm__ volatile ("csrw sip, %[sip]" : : [sip] "r"(sip));
 213:src/../h/riscv.hpp **** }
 214:src/../h/riscv.hpp **** 
 215:src/../h/riscv.hpp **** inline void Riscv::ms_sstatus(uint64 mask)
 216:src/../h/riscv.hpp **** {
 217:src/../h/riscv.hpp ****     __asm__ volatile ("csrs sstatus, %[mask]" : : [mask] "r"(mask));
 218:src/../h/riscv.hpp **** }
 219:src/../h/riscv.hpp **** 
 220:src/../h/riscv.hpp **** inline void Riscv::mc_sstatus(uint64 mask)
 221:src/../h/riscv.hpp **** {
 222:src/../h/riscv.hpp ****     __asm__ volatile ("csrc sstatus, %[mask]" : : [mask] "r"(mask));
 223:src/../h/riscv.hpp **** }
 224:src/../h/riscv.hpp **** 
 225:src/../h/riscv.hpp **** inline uint64 Riscv::r_sstatus()
 226:src/../h/riscv.hpp **** {
 227:src/../h/riscv.hpp ****     uint64 volatile sstatus;
 228:src/../h/riscv.hpp ****     __asm__ volatile ("csrr %[sstatus], sstatus" : [sstatus] "=r"(sstatus));
 229:src/../h/riscv.hpp ****     return sstatus;
 230:src/../h/riscv.hpp **** }
 231:src/../h/riscv.hpp **** 
 232:src/../h/riscv.hpp **** inline void Riscv::w_sstatus(uint64 sstatus)
 233:src/../h/riscv.hpp **** {
 234:src/../h/riscv.hpp ****     __asm__ volatile ("csrw sstatus, %[sstatus]" : : [sstatus] "r"(sstatus));
 235:src/../h/riscv.hpp **** }
 236:src/../h/riscv.hpp **** 
 237:src/../h/riscv.hpp **** //a0
 238:src/../h/riscv.hpp **** inline uint64 Riscv::r_a0()
 239:src/../h/riscv.hpp **** {
 240:src/../h/riscv.hpp ****     uint64 volatile a0;
 241:src/../h/riscv.hpp ****     __asm__ volatile ("mv %0, a0" : "=r"(a0));
 242:src/../h/riscv.hpp ****     return a0;
 243:src/../h/riscv.hpp **** }
 244:src/../h/riscv.hpp **** 
 245:src/../h/riscv.hpp **** 
 246:src/../h/riscv.hpp **** inline void Riscv::w_a0(uint64 writeValue) {
 247:src/../h/riscv.hpp ****     __asm__ volatile ("mv a0, %0" : : "r"(writeValue));
 302              		.loc 2 247 5
 303              		.loc 2 247 55 is_stmt 0
 304 00fc 93072001 		li	a5,18
 305              	#APP
 306              	# 247 "src/../h/riscv.hpp" 1
 248              	}
 307              		mv a0, a5
 308              	# 0 "" 2
 309              	.LVL15:
 310              	#NO_APP
 311              	.LBE5:
GAS LISTING /tmp/ccnvvGqJ.s 			page 12


 312              	.LBE4:
  80:src/syscall_c.cpp ****     __asm__ volatile ("ecall");
 313              		.loc 1 80 5 is_stmt 1
 314              		.loc 1 80 31 is_stmt 0
 315              	#APP
 316              	# 80 "src/syscall_c.cpp" 1
  81              	
  82:src/syscall_c.cpp ****     uint64 returnValue;
 317              		ecall
 318              	# 0 "" 2
 319              		.loc 1 82 5 is_stmt 1
  83:src/syscall_c.cpp ****     __asm__ volatile("mv %0, a0" : "=r"(returnValue));
 320              		.loc 1 83 5
 321              		.loc 1 83 54 is_stmt 0
 322              	# 83 "src/syscall_c.cpp" 1
  84              	    return (int)returnValue;
 323              		mv a0, a0
 324              	# 0 "" 2
 325              	.LVL16:
 326              		.loc 1 84 5 is_stmt 1
  85:src/syscall_c.cpp **** }
 327              		.loc 1 85 1 is_stmt 0
 328              	#NO_APP
 329 010c 1B050500 		sext.w	a0,a0
 330              	.LVL17:
 331 0110 03348100 		ld	s0,8(sp)
 332              		.cfi_restore 8
 333              		.cfi_def_cfa 2, 16
 334 0114 13010101 		addi	sp,sp,16
 335              		.cfi_def_cfa_offset 0
 336 0118 67800000 		jr	ra
 337              		.cfi_endproc
 338              	.LFE60:
 340              		.align	2
 341              		.globl	_Z15thread_dispatchv
 343              	_Z15thread_dispatchv:
 344              	.LFB61:
  86:src/syscall_c.cpp **** 
  87:src/syscall_c.cpp **** void thread_dispatch() {
 345              		.loc 1 87 24 is_stmt 1
 346              		.cfi_startproc
 347 011c 130101FF 		addi	sp,sp,-16
 348              		.cfi_def_cfa_offset 16
 349 0120 23348100 		sd	s0,8(sp)
 350              		.cfi_offset 8, -8
 351 0124 13040101 		addi	s0,sp,16
 352              		.cfi_def_cfa 8, 0
  88:src/syscall_c.cpp ****     __asm__ volatile("li a0, 0x13");
 353              		.loc 1 88 5
 354              		.loc 1 88 36 is_stmt 0
 355              	#APP
 356              	# 88 "src/syscall_c.cpp" 1
  89              	    __asm__ volatile ("ecall");
 357              		li a0, 0x13
 358              	# 0 "" 2
 359              		.loc 1 89 5 is_stmt 1
 360              		.loc 1 89 31 is_stmt 0
GAS LISTING /tmp/ccnvvGqJ.s 			page 13


 361              	# 89 "src/syscall_c.cpp" 1
  90              	
  91:src/syscall_c.cpp **** }
 362              		ecall
 363              	# 0 "" 2
 364              		.loc 1 91 1
 365              	#NO_APP
 366 0130 03348100 		ld	s0,8(sp)
 367              		.cfi_restore 8
 368              		.cfi_def_cfa 2, 16
 369 0134 13010101 		addi	sp,sp,16
 370              		.cfi_def_cfa_offset 0
 371 0138 67800000 		jr	ra
 372              		.cfi_endproc
 373              	.LFE61:
 375              		.align	2
 376              		.globl	_Z11thread_joinP3TCB
 378              	_Z11thread_joinP3TCB:
 379              	.LFB62:
  92:src/syscall_c.cpp **** 
  93:src/syscall_c.cpp **** void thread_join(thread_t handle) {
 380              		.loc 1 93 35 is_stmt 1
 381              		.cfi_startproc
 382              	.LVL18:
 383 013c 130101FF 		addi	sp,sp,-16
 384              		.cfi_def_cfa_offset 16
 385 0140 23348100 		sd	s0,8(sp)
 386              		.cfi_offset 8, -8
 387 0144 13040101 		addi	s0,sp,16
 388              		.cfi_def_cfa 8, 0
  94:src/syscall_c.cpp ****     __asm__ volatile ("mv a1, %0" : : "r" (handle));
 389              		.loc 1 94 5
 390              		.loc 1 94 52 is_stmt 0
 391              	#APP
 392              	# 94 "src/syscall_c.cpp" 1
  95              	    __asm__ volatile("li a0, 0x14");
 393              		mv a1, a0
 394              	# 0 "" 2
 395              		.loc 1 95 5 is_stmt 1
 396              		.loc 1 95 36 is_stmt 0
 397              	# 95 "src/syscall_c.cpp" 1
  96              	    __asm__ volatile ("ecall");
 398              		li a0, 0x14
 399              	# 0 "" 2
 400              		.loc 1 96 5 is_stmt 1
 401              		.loc 1 96 31 is_stmt 0
 402              	# 96 "src/syscall_c.cpp" 1
  97              	}
 403              		ecall
 404              	# 0 "" 2
 405              		.loc 1 97 1
 406              	#NO_APP
 407 0154 03348100 		ld	s0,8(sp)
 408              		.cfi_restore 8
 409              		.cfi_def_cfa 2, 16
 410 0158 13010101 		addi	sp,sp,16
 411              		.cfi_def_cfa_offset 0
GAS LISTING /tmp/ccnvvGqJ.s 			page 14


 412 015c 67800000 		jr	ra
 413              		.cfi_endproc
 414              	.LFE62:
 416              		.align	2
 417              		.globl	_Z8sem_openPP11MySemaphorej
 419              	_Z8sem_openPP11MySemaphorej:
 420              	.LFB63:
  98:src/syscall_c.cpp **** 
  99:src/syscall_c.cpp **** 
 100:src/syscall_c.cpp **** int sem_open(sem_t* handle, unsigned init) {
 421              		.loc 1 100 44 is_stmt 1
 422              		.cfi_startproc
 423              	.LVL19:
 424 0160 130101FF 		addi	sp,sp,-16
 425              		.cfi_def_cfa_offset 16
 426 0164 23348100 		sd	s0,8(sp)
 427              		.cfi_offset 8, -8
 428 0168 13040101 		addi	s0,sp,16
 429              		.cfi_def_cfa 8, 0
 101:src/syscall_c.cpp ****     __asm__ volatile ("mv a2, %0" : : "r" (init));
 430              		.loc 1 101 5
 431              		.loc 1 101 50 is_stmt 0
 432              	#APP
 433              	# 101 "src/syscall_c.cpp" 1
 102              	    __asm__ volatile ("mv a1, %0" : : "r" (handle));
 434              		mv a2, a1
 435              	# 0 "" 2
 436              		.loc 1 102 5 is_stmt 1
 437              		.loc 1 102 52 is_stmt 0
 438              	# 102 "src/syscall_c.cpp" 1
 103              	    __asm__ volatile("li a0, 0x21");
 439              		mv a1, a0
 440              	# 0 "" 2
 441              		.loc 1 103 5 is_stmt 1
 442              		.loc 1 103 36 is_stmt 0
 443              	# 103 "src/syscall_c.cpp" 1
 104              	    __asm__ volatile ("ecall");
 444              		li a0, 0x21
 445              	# 0 "" 2
 446              		.loc 1 104 5 is_stmt 1
 447              		.loc 1 104 31 is_stmt 0
 448              	# 104 "src/syscall_c.cpp" 1
 105              	
 106:src/syscall_c.cpp ****     uint64 returnValue;
 449              		ecall
 450              	# 0 "" 2
 451              		.loc 1 106 5 is_stmt 1
 107:src/syscall_c.cpp ****     __asm__ volatile("mv %0, a0" : "=r"(returnValue));
 452              		.loc 1 107 5
 453              		.loc 1 107 54 is_stmt 0
 454              	# 107 "src/syscall_c.cpp" 1
 108              	    return (int)returnValue;
 455              		mv a0, a0
 456              	# 0 "" 2
 457              	.LVL20:
 458              		.loc 1 108 5 is_stmt 1
 109:src/syscall_c.cpp **** }
GAS LISTING /tmp/ccnvvGqJ.s 			page 15


 459              		.loc 1 109 1 is_stmt 0
 460              	#NO_APP
 461 0180 1B050500 		sext.w	a0,a0
 462              	.LVL21:
 463 0184 03348100 		ld	s0,8(sp)
 464              		.cfi_restore 8
 465              		.cfi_def_cfa 2, 16
 466 0188 13010101 		addi	sp,sp,16
 467              		.cfi_def_cfa_offset 0
 468 018c 67800000 		jr	ra
 469              		.cfi_endproc
 470              	.LFE63:
 472              		.align	2
 473              		.globl	_Z9sem_closeP11MySemaphore
 475              	_Z9sem_closeP11MySemaphore:
 476              	.LFB64:
 110:src/syscall_c.cpp **** 
 111:src/syscall_c.cpp **** int sem_close(sem_t handle) {
 477              		.loc 1 111 29 is_stmt 1
 478              		.cfi_startproc
 479              	.LVL22:
 480 0190 130101FF 		addi	sp,sp,-16
 481              		.cfi_def_cfa_offset 16
 482 0194 23348100 		sd	s0,8(sp)
 483              		.cfi_offset 8, -8
 484 0198 13040101 		addi	s0,sp,16
 485              		.cfi_def_cfa 8, 0
 112:src/syscall_c.cpp ****     __asm__ volatile ("mv a1, %0" : : "r" (handle));
 486              		.loc 1 112 5
 487              		.loc 1 112 52 is_stmt 0
 488              	#APP
 489              	# 112 "src/syscall_c.cpp" 1
 113              	    __asm__ volatile("li a0, 0x22");
 490              		mv a1, a0
 491              	# 0 "" 2
 492              		.loc 1 113 5 is_stmt 1
 493              		.loc 1 113 36 is_stmt 0
 494              	# 113 "src/syscall_c.cpp" 1
 114              	    __asm__ volatile ("ecall");
 495              		li a0, 0x22
 496              	# 0 "" 2
 497              		.loc 1 114 5 is_stmt 1
 498              		.loc 1 114 31 is_stmt 0
 499              	# 114 "src/syscall_c.cpp" 1
 115              	
 116:src/syscall_c.cpp ****     uint64 returnValue;
 500              		ecall
 501              	# 0 "" 2
 502              		.loc 1 116 5 is_stmt 1
 117:src/syscall_c.cpp ****     __asm__ volatile("mv %0, a0" : "=r"(returnValue));
 503              		.loc 1 117 5
 504              		.loc 1 117 54 is_stmt 0
 505              	# 117 "src/syscall_c.cpp" 1
 118              	    return (int)returnValue;
 506              		mv a0, a0
 507              	# 0 "" 2
 508              	.LVL23:
GAS LISTING /tmp/ccnvvGqJ.s 			page 16


 509              		.loc 1 118 5 is_stmt 1
 119:src/syscall_c.cpp **** }
 510              		.loc 1 119 1 is_stmt 0
 511              	#NO_APP
 512 01ac 1B050500 		sext.w	a0,a0
 513              	.LVL24:
 514 01b0 03348100 		ld	s0,8(sp)
 515              		.cfi_restore 8
 516              		.cfi_def_cfa 2, 16
 517 01b4 13010101 		addi	sp,sp,16
 518              		.cfi_def_cfa_offset 0
 519 01b8 67800000 		jr	ra
 520              		.cfi_endproc
 521              	.LFE64:
 523              		.align	2
 524              		.globl	_Z8sem_waitP11MySemaphore
 526              	_Z8sem_waitP11MySemaphore:
 527              	.LFB65:
 120:src/syscall_c.cpp **** 
 121:src/syscall_c.cpp **** int sem_wait(sem_t id) {
 528              		.loc 1 121 24 is_stmt 1
 529              		.cfi_startproc
 530              	.LVL25:
 531 01bc 130101FF 		addi	sp,sp,-16
 532              		.cfi_def_cfa_offset 16
 533 01c0 23348100 		sd	s0,8(sp)
 534              		.cfi_offset 8, -8
 535 01c4 13040101 		addi	s0,sp,16
 536              		.cfi_def_cfa 8, 0
 122:src/syscall_c.cpp ****     __asm__ volatile ("mv a1, %0" : : "r" (id));
 537              		.loc 1 122 5
 538              		.loc 1 122 48 is_stmt 0
 539              	#APP
 540              	# 122 "src/syscall_c.cpp" 1
 123              	    __asm__ volatile("li a0, 0x23");
 541              		mv a1, a0
 542              	# 0 "" 2
 543              		.loc 1 123 5 is_stmt 1
 544              		.loc 1 123 36 is_stmt 0
 545              	# 123 "src/syscall_c.cpp" 1
 124              	    __asm__ volatile ("ecall");
 546              		li a0, 0x23
 547              	# 0 "" 2
 548              		.loc 1 124 5 is_stmt 1
 549              		.loc 1 124 31 is_stmt 0
 550              	# 124 "src/syscall_c.cpp" 1
 125              	
 126:src/syscall_c.cpp ****     uint64 returnValue;
 551              		ecall
 552              	# 0 "" 2
 553              		.loc 1 126 5 is_stmt 1
 127:src/syscall_c.cpp ****     __asm__ volatile("mv %0, a0" : "=r"(returnValue));
 554              		.loc 1 127 5
 555              		.loc 1 127 54 is_stmt 0
 556              	# 127 "src/syscall_c.cpp" 1
 128              	    return (int)returnValue;
 557              		mv a0, a0
GAS LISTING /tmp/ccnvvGqJ.s 			page 17


 558              	# 0 "" 2
 559              	.LVL26:
 560              		.loc 1 128 5 is_stmt 1
 129:src/syscall_c.cpp **** }
 561              		.loc 1 129 1 is_stmt 0
 562              	#NO_APP
 563 01d8 1B050500 		sext.w	a0,a0
 564              	.LVL27:
 565 01dc 03348100 		ld	s0,8(sp)
 566              		.cfi_restore 8
 567              		.cfi_def_cfa 2, 16
 568 01e0 13010101 		addi	sp,sp,16
 569              		.cfi_def_cfa_offset 0
 570 01e4 67800000 		jr	ra
 571              		.cfi_endproc
 572              	.LFE65:
 574              		.align	2
 575              		.globl	_Z10sem_signalP11MySemaphore
 577              	_Z10sem_signalP11MySemaphore:
 578              	.LFB66:
 130:src/syscall_c.cpp **** 
 131:src/syscall_c.cpp **** int sem_signal(sem_t id) {
 579              		.loc 1 131 26 is_stmt 1
 580              		.cfi_startproc
 581              	.LVL28:
 582 01e8 130101FF 		addi	sp,sp,-16
 583              		.cfi_def_cfa_offset 16
 584 01ec 23348100 		sd	s0,8(sp)
 585              		.cfi_offset 8, -8
 586 01f0 13040101 		addi	s0,sp,16
 587              		.cfi_def_cfa 8, 0
 132:src/syscall_c.cpp ****     __asm__ volatile ("mv a1, %0" : : "r" (id));
 588              		.loc 1 132 5
 589              		.loc 1 132 48 is_stmt 0
 590              	#APP
 591              	# 132 "src/syscall_c.cpp" 1
 133              	    __asm__ volatile("li a0, 0x24");
 592              		mv a1, a0
 593              	# 0 "" 2
 594              		.loc 1 133 5 is_stmt 1
 595              		.loc 1 133 36 is_stmt 0
 596              	# 133 "src/syscall_c.cpp" 1
 134              	    __asm__ volatile ("ecall");
 597              		li a0, 0x24
 598              	# 0 "" 2
 599              		.loc 1 134 5 is_stmt 1
 600              		.loc 1 134 31 is_stmt 0
 601              	# 134 "src/syscall_c.cpp" 1
 135              	
 136:src/syscall_c.cpp ****     uint64 returnValue;
 602              		ecall
 603              	# 0 "" 2
 604              		.loc 1 136 5 is_stmt 1
 137:src/syscall_c.cpp ****     __asm__ volatile("mv %0, a0" : "=r"(returnValue));
 605              		.loc 1 137 5
 606              		.loc 1 137 54 is_stmt 0
 607              	# 137 "src/syscall_c.cpp" 1
GAS LISTING /tmp/ccnvvGqJ.s 			page 18


 138              	    return (int)returnValue;
 608              		mv a0, a0
 609              	# 0 "" 2
 610              	.LVL29:
 611              		.loc 1 138 5 is_stmt 1
 139:src/syscall_c.cpp **** }
 612              		.loc 1 139 1 is_stmt 0
 613              	#NO_APP
 614 0204 1B050500 		sext.w	a0,a0
 615              	.LVL30:
 616 0208 03348100 		ld	s0,8(sp)
 617              		.cfi_restore 8
 618              		.cfi_def_cfa 2, 16
 619 020c 13010101 		addi	sp,sp,16
 620              		.cfi_def_cfa_offset 0
 621 0210 67800000 		jr	ra
 622              		.cfi_endproc
 623              	.LFE66:
 625              		.align	2
 626              		.globl	_Z4getcv
 628              	_Z4getcv:
 629              	.LFB67:
 140:src/syscall_c.cpp **** 
 141:src/syscall_c.cpp **** char getc() {
 630              		.loc 1 141 13 is_stmt 1
 631              		.cfi_startproc
 632 0214 130101FF 		addi	sp,sp,-16
 633              		.cfi_def_cfa_offset 16
 634 0218 23348100 		sd	s0,8(sp)
 635              		.cfi_offset 8, -8
 636 021c 13040101 		addi	s0,sp,16
 637              		.cfi_def_cfa 8, 0
 142:src/syscall_c.cpp ****     __asm__ volatile("li a0, 0x41");
 638              		.loc 1 142 5
 639              		.loc 1 142 36 is_stmt 0
 640              	#APP
 641              	# 142 "src/syscall_c.cpp" 1
 143              	    __asm__ volatile ("ecall");
 642              		li a0, 0x41
 643              	# 0 "" 2
 644              		.loc 1 143 5 is_stmt 1
 645              		.loc 1 143 31 is_stmt 0
 646              	# 143 "src/syscall_c.cpp" 1
 144              	
 145:src/syscall_c.cpp ****     char returnValue;
 647              		ecall
 648              	# 0 "" 2
 649              		.loc 1 145 5 is_stmt 1
 146:src/syscall_c.cpp ****     __asm__ volatile("mv %0, a0" : "=r"(returnValue));
 650              		.loc 1 146 5
 651              		.loc 1 146 54 is_stmt 0
 652              	# 146 "src/syscall_c.cpp" 1
 147              	    return returnValue;
 653              		mv a0, a0
 654              	# 0 "" 2
 655              	.LVL31:
 656              		.loc 1 147 5 is_stmt 1
GAS LISTING /tmp/ccnvvGqJ.s 			page 19


 148:src/syscall_c.cpp **** }
 657              		.loc 1 148 1 is_stmt 0
 658              	#NO_APP
 659 022c 1375F50F 		andi	a0,a0,0xff
 660 0230 03348100 		ld	s0,8(sp)
 661              		.cfi_restore 8
 662              		.cfi_def_cfa 2, 16
 663 0234 13010101 		addi	sp,sp,16
 664              		.cfi_def_cfa_offset 0
 665 0238 67800000 		jr	ra
 666              		.cfi_endproc
 667              	.LFE67:
 669              		.align	2
 670              		.globl	_Z4putcc
 672              	_Z4putcc:
 673              	.LFB68:
 149:src/syscall_c.cpp **** 
 150:src/syscall_c.cpp **** void putc(char c) {
 674              		.loc 1 150 19 is_stmt 1
 675              		.cfi_startproc
 676              	.LVL32:
 677 023c 130101FF 		addi	sp,sp,-16
 678              		.cfi_def_cfa_offset 16
 679 0240 23348100 		sd	s0,8(sp)
 680              		.cfi_offset 8, -8
 681 0244 13040101 		addi	s0,sp,16
 682              		.cfi_def_cfa 8, 0
 151:src/syscall_c.cpp ****     __asm__ volatile ("mv a1, %0" : : "r" (c));
 683              		.loc 1 151 5
 684              		.loc 1 151 47 is_stmt 0
 685              	#APP
 686              	# 151 "src/syscall_c.cpp" 1
 152              	    __asm__ volatile("li a0, 0x42");
 687              		mv a1, a0
 688              	# 0 "" 2
 689              		.loc 1 152 5 is_stmt 1
 690              		.loc 1 152 36 is_stmt 0
 691              	# 152 "src/syscall_c.cpp" 1
 153              	    __asm__ volatile ("ecall");
 692              		li a0, 0x42
 693              	# 0 "" 2
 694              		.loc 1 153 5 is_stmt 1
 695              		.loc 1 153 31 is_stmt 0
 696              	# 153 "src/syscall_c.cpp" 1
 154              	}
 697              		ecall
 698              	# 0 "" 2
 699              		.loc 1 154 1
 700              	#NO_APP
 701 0254 03348100 		ld	s0,8(sp)
 702              		.cfi_restore 8
 703              		.cfi_def_cfa 2, 16
 704 0258 13010101 		addi	sp,sp,16
 705              		.cfi_def_cfa_offset 0
 706 025c 67800000 		jr	ra
 707              		.cfi_endproc
 708              	.LFE68:
GAS LISTING /tmp/ccnvvGqJ.s 			page 20


 710              		.align	2
 711              		.globl	_Z10time_sleepm
 713              	_Z10time_sleepm:
 714              	.LFB69:
 155:src/syscall_c.cpp **** 
 156:src/syscall_c.cpp **** int time_sleep(time_t time) {
 715              		.loc 1 156 29 is_stmt 1
 716              		.cfi_startproc
 717              	.LVL33:
 718 0260 130101FF 		addi	sp,sp,-16
 719              		.cfi_def_cfa_offset 16
 720 0264 23348100 		sd	s0,8(sp)
 721              		.cfi_offset 8, -8
 722 0268 13040101 		addi	s0,sp,16
 723              		.cfi_def_cfa 8, 0
 157:src/syscall_c.cpp ****     return 0;
 724              		.loc 1 157 5
 158:src/syscall_c.cpp **** }...
 725              		.loc 1 158 1 is_stmt 0
 726 026c 13050000 		li	a0,0
 727              	.LVL34:
 728 0270 03348100 		ld	s0,8(sp)
 729              		.cfi_restore 8
 730              		.cfi_def_cfa 2, 16
 731 0274 13010101 		addi	sp,sp,16
 732              		.cfi_def_cfa_offset 0
 733 0278 67800000 		jr	ra
 734              		.cfi_endproc
 735              	.LFE69:
 737              	.Letext0:
 738              		.file 3 "src/../h/../lib/hw.h"
 739              		.file 4 "src/../h/list.hpp"
 740              		.file 5 "src/../h/tcb.hpp"
 741              		.file 6 "src/../h/mySemaphore.hpp"
 742              		.file 7 "src/../h/syscall_c.hpp"
GAS LISTING /tmp/ccnvvGqJ.s 			page 21


DEFINED SYMBOLS
                            *ABS*:0000000000000000 syscall_c.cpp
     /tmp/ccnvvGqJ.s:9      .text:0000000000000000 _Z9mem_allocm
     /tmp/ccnvvGqJ.s:13     .text:0000000000000000 .L0 
     /tmp/ccnvvGqJ.s:15     .text:0000000000000000 .L0 
     /tmp/ccnvvGqJ.s:16     .text:0000000000000004 .L0 
     /tmp/ccnvvGqJ.s:18     .text:0000000000000008 .L0 
     /tmp/ccnvvGqJ.s:20     .text:000000000000000c .L0 
     /tmp/ccnvvGqJ.s:22     .text:000000000000000c .L0 
     /tmp/ccnvvGqJ.s:23     .text:000000000000000c .L0 
     /tmp/ccnvvGqJ.s:24     .text:000000000000000c .L0 
     /tmp/ccnvvGqJ.s:26     .text:0000000000000010 .L0 
     /tmp/ccnvvGqJ.s:28     .text:0000000000000014 .L0 
     /tmp/ccnvvGqJ.s:29     .text:0000000000000014 .L0 
     /tmp/ccnvvGqJ.s:32     .text:0000000000000018 .L0 
     /tmp/ccnvvGqJ.s:36     .text:000000000000001c .L0 
   src/syscall_c.cpp:20     .text:000000000000001c .L0 
     /tmp/ccnvvGqJ.s:42     .text:0000000000000020 .L0 
   src/syscall_c.cpp:21     .text:0000000000000020 .L0 
     /tmp/ccnvvGqJ.s:47     .text:0000000000000024 .L0 
   src/syscall_c.cpp:22     .text:0000000000000024 .L0 
     /tmp/ccnvvGqJ.s:52     .text:0000000000000028 .L0 
     /tmp/ccnvvGqJ.s:53     .text:0000000000000028 .L0 
   src/syscall_c.cpp:26     .text:0000000000000028 .L0 
     /tmp/ccnvvGqJ.s:59     .text:000000000000002c .L0 
     /tmp/ccnvvGqJ.s:61     .text:000000000000002c .L0 
     /tmp/ccnvvGqJ.s:62     .text:0000000000000030 .L0 
     /tmp/ccnvvGqJ.s:63     .text:0000000000000030 .L0 
     /tmp/ccnvvGqJ.s:65     .text:0000000000000034 .L0 
     /tmp/ccnvvGqJ.s:67     .text:0000000000000038 .L0 
     /tmp/ccnvvGqJ.s:73     .text:0000000000000038 _Z8mem_freePv
     /tmp/ccnvvGqJ.s:76     .text:0000000000000038 .L0 
     /tmp/ccnvvGqJ.s:78     .text:0000000000000038 .L0 
     /tmp/ccnvvGqJ.s:79     .text:000000000000003c .L0 
     /tmp/ccnvvGqJ.s:81     .text:0000000000000040 .L0 
     /tmp/ccnvvGqJ.s:83     .text:0000000000000044 .L0 
     /tmp/ccnvvGqJ.s:85     .text:0000000000000044 .L0 
   src/syscall_c.cpp:32     .text:0000000000000044 .L0 
     /tmp/ccnvvGqJ.s:91     .text:0000000000000048 .L0 
   src/syscall_c.cpp:33     .text:0000000000000048 .L0 
     /tmp/ccnvvGqJ.s:96     .text:000000000000004c .L0 
   src/syscall_c.cpp:34     .text:000000000000004c .L0 
     /tmp/ccnvvGqJ.s:101    .text:0000000000000050 .L0 
     /tmp/ccnvvGqJ.s:102    .text:0000000000000050 .L0 
   src/syscall_c.cpp:38     .text:0000000000000050 .L0 
     /tmp/ccnvvGqJ.s:108    .text:0000000000000054 .L0 
     /tmp/ccnvvGqJ.s:110    .text:0000000000000054 .L0 
     /tmp/ccnvvGqJ.s:113    .text:000000000000005c .L0 
     /tmp/ccnvvGqJ.s:114    .text:000000000000005c .L0 
     /tmp/ccnvvGqJ.s:116    .text:0000000000000060 .L0 
     /tmp/ccnvvGqJ.s:118    .text:0000000000000064 .L0 
     /tmp/ccnvvGqJ.s:124    .text:0000000000000064 _Z12thread_startP3TCB
     /tmp/ccnvvGqJ.s:127    .text:0000000000000064 .L0 
     /tmp/ccnvvGqJ.s:129    .text:0000000000000064 .L0 
     /tmp/ccnvvGqJ.s:130    .text:0000000000000068 .L0 
     /tmp/ccnvvGqJ.s:132    .text:000000000000006c .L0 
     /tmp/ccnvvGqJ.s:134    .text:0000000000000070 .L0 
GAS LISTING /tmp/ccnvvGqJ.s 			page 22


     /tmp/ccnvvGqJ.s:136    .text:0000000000000070 .L0 
   src/syscall_c.cpp:43     .text:0000000000000070 .L0 
     /tmp/ccnvvGqJ.s:142    .text:0000000000000074 .L0 
   src/syscall_c.cpp:44     .text:0000000000000074 .L0 
     /tmp/ccnvvGqJ.s:147    .text:0000000000000078 .L0 
   src/syscall_c.cpp:45     .text:0000000000000078 .L0 
     /tmp/ccnvvGqJ.s:153    .text:000000000000007c .L0 
     /tmp/ccnvvGqJ.s:154    .text:0000000000000080 .L0 
     /tmp/ccnvvGqJ.s:155    .text:0000000000000080 .L0 
     /tmp/ccnvvGqJ.s:157    .text:0000000000000084 .L0 
     /tmp/ccnvvGqJ.s:159    .text:0000000000000088 .L0 
     /tmp/ccnvvGqJ.s:165    .text:0000000000000088 _Z27thread_create_without_startPP3TCBPFvPvES2_
     /tmp/ccnvvGqJ.s:168    .text:0000000000000088 .L0 
     /tmp/ccnvvGqJ.s:170    .text:0000000000000088 .L0 
     /tmp/ccnvvGqJ.s:171    .text:000000000000008c .L0 
     /tmp/ccnvvGqJ.s:173    .text:0000000000000090 .L0 
     /tmp/ccnvvGqJ.s:175    .text:0000000000000094 .L0 
     /tmp/ccnvvGqJ.s:177    .text:0000000000000094 .L0 
   src/syscall_c.cpp:50     .text:0000000000000094 .L0 
     /tmp/ccnvvGqJ.s:183    .text:0000000000000098 .L0 
   src/syscall_c.cpp:51     .text:0000000000000098 .L0 
     /tmp/ccnvvGqJ.s:188    .text:000000000000009c .L0 
   src/syscall_c.cpp:52     .text:000000000000009c .L0 
     /tmp/ccnvvGqJ.s:193    .text:00000000000000a0 .L0 
   src/syscall_c.cpp:53     .text:00000000000000a0 .L0 
     /tmp/ccnvvGqJ.s:198    .text:00000000000000a4 .L0 
   src/syscall_c.cpp:54     .text:00000000000000a4 .L0 
     /tmp/ccnvvGqJ.s:203    .text:00000000000000a8 .L0 
     /tmp/ccnvvGqJ.s:204    .text:00000000000000a8 .L0 
   src/syscall_c.cpp:57     .text:00000000000000a8 .L0 
     /tmp/ccnvvGqJ.s:210    .text:00000000000000ac .L0 
     /tmp/ccnvvGqJ.s:212    .text:00000000000000ac .L0 
     /tmp/ccnvvGqJ.s:215    .text:00000000000000b4 .L0 
     /tmp/ccnvvGqJ.s:216    .text:00000000000000b4 .L0 
     /tmp/ccnvvGqJ.s:218    .text:00000000000000b8 .L0 
     /tmp/ccnvvGqJ.s:220    .text:00000000000000bc .L0 
     /tmp/ccnvvGqJ.s:226    .text:00000000000000bc _Z13thread_createPP3TCBPFvPvES2_
     /tmp/ccnvvGqJ.s:229    .text:00000000000000bc .L0 
     /tmp/ccnvvGqJ.s:231    .text:00000000000000bc .L0 
     /tmp/ccnvvGqJ.s:232    .text:00000000000000c0 .L0 
     /tmp/ccnvvGqJ.s:234    .text:00000000000000c4 .L0 
     /tmp/ccnvvGqJ.s:236    .text:00000000000000c8 .L0 
     /tmp/ccnvvGqJ.s:238    .text:00000000000000c8 .L0 
   src/syscall_c.cpp:64     .text:00000000000000c8 .L0 
     /tmp/ccnvvGqJ.s:244    .text:00000000000000cc .L0 
   src/syscall_c.cpp:65     .text:00000000000000cc .L0 
     /tmp/ccnvvGqJ.s:249    .text:00000000000000d0 .L0 
   src/syscall_c.cpp:66     .text:00000000000000d0 .L0 
     /tmp/ccnvvGqJ.s:254    .text:00000000000000d4 .L0 
   src/syscall_c.cpp:67     .text:00000000000000d4 .L0 
     /tmp/ccnvvGqJ.s:259    .text:00000000000000d8 .L0 
   src/syscall_c.cpp:68     .text:00000000000000d8 .L0 
     /tmp/ccnvvGqJ.s:264    .text:00000000000000dc .L0 
     /tmp/ccnvvGqJ.s:265    .text:00000000000000dc .L0 
   src/syscall_c.cpp:71     .text:00000000000000dc .L0 
     /tmp/ccnvvGqJ.s:271    .text:00000000000000e0 .L0 
     /tmp/ccnvvGqJ.s:273    .text:00000000000000e0 .L0 
GAS LISTING /tmp/ccnvvGqJ.s 			page 23


     /tmp/ccnvvGqJ.s:276    .text:00000000000000e8 .L0 
     /tmp/ccnvvGqJ.s:277    .text:00000000000000e8 .L0 
     /tmp/ccnvvGqJ.s:279    .text:00000000000000ec .L0 
     /tmp/ccnvvGqJ.s:281    .text:00000000000000f0 .L0 
     /tmp/ccnvvGqJ.s:287    .text:00000000000000f0 _Z11thread_exitv
     /tmp/ccnvvGqJ.s:290    .text:00000000000000f0 .L0 
     /tmp/ccnvvGqJ.s:291    .text:00000000000000f0 .L0 
     /tmp/ccnvvGqJ.s:292    .text:00000000000000f4 .L0 
     /tmp/ccnvvGqJ.s:294    .text:00000000000000f8 .L0 
     /tmp/ccnvvGqJ.s:296    .text:00000000000000fc .L0 
     /tmp/ccnvvGqJ.s:302    .text:00000000000000fc .L0 
     /tmp/ccnvvGqJ.s:303    .text:00000000000000fc .L0 
     /tmp/ccnvvGqJ.s:304    .text:00000000000000fc .L0 
     /tmp/ccnvvGqJ.s:314    .text:0000000000000104 .L0 
   src/syscall_c.cpp:80     .text:0000000000000104 .L0 
     /tmp/ccnvvGqJ.s:320    .text:0000000000000108 .L0 
     /tmp/ccnvvGqJ.s:321    .text:0000000000000108 .L0 
   src/syscall_c.cpp:83     .text:0000000000000108 .L0 
     /tmp/ccnvvGqJ.s:327    .text:000000000000010c .L0 
     /tmp/ccnvvGqJ.s:329    .text:000000000000010c .L0 
     /tmp/ccnvvGqJ.s:332    .text:0000000000000114 .L0 
     /tmp/ccnvvGqJ.s:333    .text:0000000000000114 .L0 
     /tmp/ccnvvGqJ.s:335    .text:0000000000000118 .L0 
     /tmp/ccnvvGqJ.s:337    .text:000000000000011c .L0 
     /tmp/ccnvvGqJ.s:343    .text:000000000000011c _Z15thread_dispatchv
     /tmp/ccnvvGqJ.s:346    .text:000000000000011c .L0 
     /tmp/ccnvvGqJ.s:347    .text:000000000000011c .L0 
     /tmp/ccnvvGqJ.s:348    .text:0000000000000120 .L0 
     /tmp/ccnvvGqJ.s:350    .text:0000000000000124 .L0 
     /tmp/ccnvvGqJ.s:352    .text:0000000000000128 .L0 
     /tmp/ccnvvGqJ.s:354    .text:0000000000000128 .L0 
   src/syscall_c.cpp:88     .text:0000000000000128 .L0 
     /tmp/ccnvvGqJ.s:360    .text:000000000000012c .L0 
   src/syscall_c.cpp:89     .text:000000000000012c .L0 
     /tmp/ccnvvGqJ.s:366    .text:0000000000000130 .L0 
     /tmp/ccnvvGqJ.s:367    .text:0000000000000134 .L0 
     /tmp/ccnvvGqJ.s:368    .text:0000000000000134 .L0 
     /tmp/ccnvvGqJ.s:370    .text:0000000000000138 .L0 
     /tmp/ccnvvGqJ.s:372    .text:000000000000013c .L0 
     /tmp/ccnvvGqJ.s:378    .text:000000000000013c _Z11thread_joinP3TCB
     /tmp/ccnvvGqJ.s:381    .text:000000000000013c .L0 
     /tmp/ccnvvGqJ.s:383    .text:000000000000013c .L0 
     /tmp/ccnvvGqJ.s:384    .text:0000000000000140 .L0 
     /tmp/ccnvvGqJ.s:386    .text:0000000000000144 .L0 
     /tmp/ccnvvGqJ.s:388    .text:0000000000000148 .L0 
     /tmp/ccnvvGqJ.s:390    .text:0000000000000148 .L0 
   src/syscall_c.cpp:94     .text:0000000000000148 .L0 
     /tmp/ccnvvGqJ.s:396    .text:000000000000014c .L0 
   src/syscall_c.cpp:95     .text:000000000000014c .L0 
     /tmp/ccnvvGqJ.s:401    .text:0000000000000150 .L0 
   src/syscall_c.cpp:96     .text:0000000000000150 .L0 
     /tmp/ccnvvGqJ.s:407    .text:0000000000000154 .L0 
     /tmp/ccnvvGqJ.s:408    .text:0000000000000158 .L0 
     /tmp/ccnvvGqJ.s:409    .text:0000000000000158 .L0 
     /tmp/ccnvvGqJ.s:411    .text:000000000000015c .L0 
     /tmp/ccnvvGqJ.s:413    .text:0000000000000160 .L0 
     /tmp/ccnvvGqJ.s:419    .text:0000000000000160 _Z8sem_openPP11MySemaphorej
GAS LISTING /tmp/ccnvvGqJ.s 			page 24


     /tmp/ccnvvGqJ.s:422    .text:0000000000000160 .L0 
     /tmp/ccnvvGqJ.s:424    .text:0000000000000160 .L0 
     /tmp/ccnvvGqJ.s:425    .text:0000000000000164 .L0 
     /tmp/ccnvvGqJ.s:427    .text:0000000000000168 .L0 
     /tmp/ccnvvGqJ.s:429    .text:000000000000016c .L0 
     /tmp/ccnvvGqJ.s:431    .text:000000000000016c .L0 
   src/syscall_c.cpp:101    .text:000000000000016c .L0 
     /tmp/ccnvvGqJ.s:437    .text:0000000000000170 .L0 
   src/syscall_c.cpp:102    .text:0000000000000170 .L0 
     /tmp/ccnvvGqJ.s:442    .text:0000000000000174 .L0 
   src/syscall_c.cpp:103    .text:0000000000000174 .L0 
     /tmp/ccnvvGqJ.s:447    .text:0000000000000178 .L0 
   src/syscall_c.cpp:104    .text:0000000000000178 .L0 
     /tmp/ccnvvGqJ.s:452    .text:000000000000017c .L0 
     /tmp/ccnvvGqJ.s:453    .text:000000000000017c .L0 
   src/syscall_c.cpp:107    .text:000000000000017c .L0 
     /tmp/ccnvvGqJ.s:459    .text:0000000000000180 .L0 
     /tmp/ccnvvGqJ.s:461    .text:0000000000000180 .L0 
     /tmp/ccnvvGqJ.s:464    .text:0000000000000188 .L0 
     /tmp/ccnvvGqJ.s:465    .text:0000000000000188 .L0 
     /tmp/ccnvvGqJ.s:467    .text:000000000000018c .L0 
     /tmp/ccnvvGqJ.s:469    .text:0000000000000190 .L0 
     /tmp/ccnvvGqJ.s:475    .text:0000000000000190 _Z9sem_closeP11MySemaphore
     /tmp/ccnvvGqJ.s:478    .text:0000000000000190 .L0 
     /tmp/ccnvvGqJ.s:480    .text:0000000000000190 .L0 
     /tmp/ccnvvGqJ.s:481    .text:0000000000000194 .L0 
     /tmp/ccnvvGqJ.s:483    .text:0000000000000198 .L0 
     /tmp/ccnvvGqJ.s:485    .text:000000000000019c .L0 
     /tmp/ccnvvGqJ.s:487    .text:000000000000019c .L0 
   src/syscall_c.cpp:112    .text:000000000000019c .L0 
     /tmp/ccnvvGqJ.s:493    .text:00000000000001a0 .L0 
   src/syscall_c.cpp:113    .text:00000000000001a0 .L0 
     /tmp/ccnvvGqJ.s:498    .text:00000000000001a4 .L0 
   src/syscall_c.cpp:114    .text:00000000000001a4 .L0 
     /tmp/ccnvvGqJ.s:503    .text:00000000000001a8 .L0 
     /tmp/ccnvvGqJ.s:504    .text:00000000000001a8 .L0 
   src/syscall_c.cpp:117    .text:00000000000001a8 .L0 
     /tmp/ccnvvGqJ.s:510    .text:00000000000001ac .L0 
     /tmp/ccnvvGqJ.s:512    .text:00000000000001ac .L0 
     /tmp/ccnvvGqJ.s:515    .text:00000000000001b4 .L0 
     /tmp/ccnvvGqJ.s:516    .text:00000000000001b4 .L0 
     /tmp/ccnvvGqJ.s:518    .text:00000000000001b8 .L0 
     /tmp/ccnvvGqJ.s:520    .text:00000000000001bc .L0 
     /tmp/ccnvvGqJ.s:526    .text:00000000000001bc _Z8sem_waitP11MySemaphore
     /tmp/ccnvvGqJ.s:529    .text:00000000000001bc .L0 
     /tmp/ccnvvGqJ.s:531    .text:00000000000001bc .L0 
     /tmp/ccnvvGqJ.s:532    .text:00000000000001c0 .L0 
     /tmp/ccnvvGqJ.s:534    .text:00000000000001c4 .L0 
     /tmp/ccnvvGqJ.s:536    .text:00000000000001c8 .L0 
     /tmp/ccnvvGqJ.s:538    .text:00000000000001c8 .L0 
   src/syscall_c.cpp:122    .text:00000000000001c8 .L0 
     /tmp/ccnvvGqJ.s:544    .text:00000000000001cc .L0 
   src/syscall_c.cpp:123    .text:00000000000001cc .L0 
     /tmp/ccnvvGqJ.s:549    .text:00000000000001d0 .L0 
   src/syscall_c.cpp:124    .text:00000000000001d0 .L0 
     /tmp/ccnvvGqJ.s:554    .text:00000000000001d4 .L0 
     /tmp/ccnvvGqJ.s:555    .text:00000000000001d4 .L0 
GAS LISTING /tmp/ccnvvGqJ.s 			page 25


   src/syscall_c.cpp:127    .text:00000000000001d4 .L0 
     /tmp/ccnvvGqJ.s:561    .text:00000000000001d8 .L0 
     /tmp/ccnvvGqJ.s:563    .text:00000000000001d8 .L0 
     /tmp/ccnvvGqJ.s:566    .text:00000000000001e0 .L0 
     /tmp/ccnvvGqJ.s:567    .text:00000000000001e0 .L0 
     /tmp/ccnvvGqJ.s:569    .text:00000000000001e4 .L0 
     /tmp/ccnvvGqJ.s:571    .text:00000000000001e8 .L0 
     /tmp/ccnvvGqJ.s:577    .text:00000000000001e8 _Z10sem_signalP11MySemaphore
     /tmp/ccnvvGqJ.s:580    .text:00000000000001e8 .L0 
     /tmp/ccnvvGqJ.s:582    .text:00000000000001e8 .L0 
     /tmp/ccnvvGqJ.s:583    .text:00000000000001ec .L0 
     /tmp/ccnvvGqJ.s:585    .text:00000000000001f0 .L0 
     /tmp/ccnvvGqJ.s:587    .text:00000000000001f4 .L0 
     /tmp/ccnvvGqJ.s:589    .text:00000000000001f4 .L0 
   src/syscall_c.cpp:132    .text:00000000000001f4 .L0 
     /tmp/ccnvvGqJ.s:595    .text:00000000000001f8 .L0 
   src/syscall_c.cpp:133    .text:00000000000001f8 .L0 
     /tmp/ccnvvGqJ.s:600    .text:00000000000001fc .L0 
   src/syscall_c.cpp:134    .text:00000000000001fc .L0 
     /tmp/ccnvvGqJ.s:605    .text:0000000000000200 .L0 
     /tmp/ccnvvGqJ.s:606    .text:0000000000000200 .L0 
   src/syscall_c.cpp:137    .text:0000000000000200 .L0 
     /tmp/ccnvvGqJ.s:612    .text:0000000000000204 .L0 
     /tmp/ccnvvGqJ.s:614    .text:0000000000000204 .L0 
     /tmp/ccnvvGqJ.s:617    .text:000000000000020c .L0 
     /tmp/ccnvvGqJ.s:618    .text:000000000000020c .L0 
     /tmp/ccnvvGqJ.s:620    .text:0000000000000210 .L0 
     /tmp/ccnvvGqJ.s:622    .text:0000000000000214 .L0 
     /tmp/ccnvvGqJ.s:628    .text:0000000000000214 _Z4getcv
     /tmp/ccnvvGqJ.s:631    .text:0000000000000214 .L0 
     /tmp/ccnvvGqJ.s:632    .text:0000000000000214 .L0 
     /tmp/ccnvvGqJ.s:633    .text:0000000000000218 .L0 
     /tmp/ccnvvGqJ.s:635    .text:000000000000021c .L0 
     /tmp/ccnvvGqJ.s:637    .text:0000000000000220 .L0 
     /tmp/ccnvvGqJ.s:639    .text:0000000000000220 .L0 
   src/syscall_c.cpp:142    .text:0000000000000220 .L0 
     /tmp/ccnvvGqJ.s:645    .text:0000000000000224 .L0 
   src/syscall_c.cpp:143    .text:0000000000000224 .L0 
     /tmp/ccnvvGqJ.s:650    .text:0000000000000228 .L0 
     /tmp/ccnvvGqJ.s:651    .text:0000000000000228 .L0 
   src/syscall_c.cpp:146    .text:0000000000000228 .L0 
     /tmp/ccnvvGqJ.s:657    .text:000000000000022c .L0 
     /tmp/ccnvvGqJ.s:659    .text:000000000000022c .L0 
     /tmp/ccnvvGqJ.s:661    .text:0000000000000234 .L0 
     /tmp/ccnvvGqJ.s:662    .text:0000000000000234 .L0 
     /tmp/ccnvvGqJ.s:664    .text:0000000000000238 .L0 
     /tmp/ccnvvGqJ.s:666    .text:000000000000023c .L0 
     /tmp/ccnvvGqJ.s:672    .text:000000000000023c _Z4putcc
     /tmp/ccnvvGqJ.s:675    .text:000000000000023c .L0 
     /tmp/ccnvvGqJ.s:677    .text:000000000000023c .L0 
     /tmp/ccnvvGqJ.s:678    .text:0000000000000240 .L0 
     /tmp/ccnvvGqJ.s:680    .text:0000000000000244 .L0 
     /tmp/ccnvvGqJ.s:682    .text:0000000000000248 .L0 
     /tmp/ccnvvGqJ.s:684    .text:0000000000000248 .L0 
   src/syscall_c.cpp:151    .text:0000000000000248 .L0 
     /tmp/ccnvvGqJ.s:690    .text:000000000000024c .L0 
   src/syscall_c.cpp:152    .text:000000000000024c .L0 
GAS LISTING /tmp/ccnvvGqJ.s 			page 26


     /tmp/ccnvvGqJ.s:695    .text:0000000000000250 .L0 
   src/syscall_c.cpp:153    .text:0000000000000250 .L0 
     /tmp/ccnvvGqJ.s:701    .text:0000000000000254 .L0 
     /tmp/ccnvvGqJ.s:702    .text:0000000000000258 .L0 
     /tmp/ccnvvGqJ.s:703    .text:0000000000000258 .L0 
     /tmp/ccnvvGqJ.s:705    .text:000000000000025c .L0 
     /tmp/ccnvvGqJ.s:707    .text:0000000000000260 .L0 
     /tmp/ccnvvGqJ.s:713    .text:0000000000000260 _Z10time_sleepm
     /tmp/ccnvvGqJ.s:716    .text:0000000000000260 .L0 
     /tmp/ccnvvGqJ.s:718    .text:0000000000000260 .L0 
     /tmp/ccnvvGqJ.s:719    .text:0000000000000264 .L0 
     /tmp/ccnvvGqJ.s:721    .text:0000000000000268 .L0 
     /tmp/ccnvvGqJ.s:723    .text:000000000000026c .L0 
     /tmp/ccnvvGqJ.s:725    .text:000000000000026c .L0 
     /tmp/ccnvvGqJ.s:726    .text:000000000000026c .L0 
     /tmp/ccnvvGqJ.s:729    .text:0000000000000274 .L0 
     /tmp/ccnvvGqJ.s:730    .text:0000000000000274 .L0 
     /tmp/ccnvvGqJ.s:732    .text:0000000000000278 .L0 
     /tmp/ccnvvGqJ.s:734    .text:000000000000027c .L0 
     /tmp/ccnvvGqJ.s:743    .text:000000000000027c .L0 
     /tmp/ccnvvGqJ.s:34     .text:000000000000001c .L2
     /tmp/ccnvvGqJ.s:2347   .debug_abbrev:0000000000000000 .Ldebug_abbrev0
     /tmp/ccnvvGqJ.s:3787   .debug_str:0000000000000af0 .LASF214
     /tmp/ccnvvGqJ.s:3617   .debug_str:00000000000005b8 .LASF215
     /tmp/ccnvvGqJ.s:3763   .debug_str:0000000000000a36 .LASF216
     /tmp/ccnvvGqJ.s:5      .text:0000000000000000 .Ltext0
     /tmp/ccnvvGqJ.s:737    .text:000000000000027c .Letext0
     /tmp/ccnvvGqJ.s:3427   .debug_line:0000000000000000 .Ldebug_line0
     /tmp/ccnvvGqJ.s:3551   .debug_str:00000000000003f0 .LASF0
     /tmp/ccnvvGqJ.s:3591   .debug_str:00000000000004ec .LASF1
     /tmp/ccnvvGqJ.s:3715   .debug_str:00000000000008c0 .LASF2
     /tmp/ccnvvGqJ.s:3725   .debug_str:0000000000000908 .LASF4
     /tmp/ccnvvGqJ.s:3561   .debug_str:0000000000000432 .LASF3
     /tmp/ccnvvGqJ.s:3445   .debug_str:000000000000009a .LASF5
     /tmp/ccnvvGqJ.s:3685   .debug_str:00000000000007c2 .LASF6
     /tmp/ccnvvGqJ.s:3675   .debug_str:0000000000000778 .LASF7
     /tmp/ccnvvGqJ.s:3579   .debug_str:0000000000000490 .LASF8
     /tmp/ccnvvGqJ.s:3527   .debug_str:000000000000033c .LASF9
     /tmp/ccnvvGqJ.s:3535   .debug_str:0000000000000385 .LASF10
     /tmp/ccnvvGqJ.s:3475   .debug_str:0000000000000171 .LASF11
     /tmp/ccnvvGqJ.s:3521   .debug_str:0000000000000310 .LASF12
     /tmp/ccnvvGqJ.s:3493   .debug_str:0000000000000220 .LASF13
     /tmp/ccnvvGqJ.s:3473   .debug_str:0000000000000161 .LASF14
     /tmp/ccnvvGqJ.s:3759   .debug_str:0000000000000a15 .LASF15
     /tmp/ccnvvGqJ.s:3513   .debug_str:00000000000002a5 .LASF16
     /tmp/ccnvvGqJ.s:3747   .debug_str:00000000000009bf .LASF17
     /tmp/ccnvvGqJ.s:3825   .debug_str:0000000000000cb6 .LASF35
     /tmp/ccnvvGqJ.s:3813   .debug_str:0000000000000c6a .LASF217
     /tmp/ccnvvGqJ.s:3751   .debug_str:00000000000009e8 .LASF18
     /tmp/ccnvvGqJ.s:3639   .debug_str:0000000000000671 .LASF19
     /tmp/ccnvvGqJ.s:3633   .debug_str:000000000000064d .LASF20
     /tmp/ccnvvGqJ.s:3749   .debug_str:00000000000009d5 .LASF22
     /tmp/ccnvvGqJ.s:3519   .debug_str:00000000000002f9 .LASF27
     /tmp/ccnvvGqJ.s:3719   .debug_str:00000000000008db .LASF176
     /tmp/ccnvvGqJ.s:3705   .debug_str:0000000000000867 .LASF178
     /tmp/ccnvvGqJ.s:3585   .debug_str:00000000000004d0 .LASF21
     /tmp/ccnvvGqJ.s:3467   .debug_str:0000000000000117 .LASF23
GAS LISTING /tmp/ccnvvGqJ.s 			page 27


     /tmp/ccnvvGqJ.s:3603   .debug_str:0000000000000545 .LASF24
     /tmp/ccnvvGqJ.s:3515   .debug_str:00000000000002bb .LASF25
     /tmp/ccnvvGqJ.s:3671   .debug_str:000000000000075b .LASF26
     /tmp/ccnvvGqJ.s:3827   .debug_str:0000000000000cc0 .LASF28
     /tmp/ccnvvGqJ.s:3879   .debug_str:0000000000000e14 .LASF29
     /tmp/ccnvvGqJ.s:3863   .debug_str:0000000000000da5 .LASF30
     /tmp/ccnvvGqJ.s:3739   .debug_str:000000000000097f .LASF31
     /tmp/ccnvvGqJ.s:3577   .debug_str:0000000000000473 .LASF32
     /tmp/ccnvvGqJ.s:3697   .debug_str:0000000000000834 .LASF33
     /tmp/ccnvvGqJ.s:3439   .debug_str:000000000000004c .LASF34
     /tmp/ccnvvGqJ.s:3769   .debug_str:0000000000000a8a .LASF218
     /tmp/ccnvvGqJ.s:3727   .debug_str:000000000000090f .LASF36
     /tmp/ccnvvGqJ.s:3443   .debug_str:000000000000008e .LASF37
     /tmp/ccnvvGqJ.s:3771   .debug_str:0000000000000a92 .LASF38
     /tmp/ccnvvGqJ.s:3635   .debug_str:0000000000000652 .LASF39
     /tmp/ccnvvGqJ.s:3459   .debug_str:00000000000000dc .LASF40
     /tmp/ccnvvGqJ.s:3807   .debug_str:0000000000000c41 .LASF41
     /tmp/ccnvvGqJ.s:3849   .debug_str:0000000000000d43 .LASF42
     /tmp/ccnvvGqJ.s:3469   .debug_str:0000000000000134 .LASF43
     /tmp/ccnvvGqJ.s:3773   .debug_str:0000000000000a9d .LASF44
     /tmp/ccnvvGqJ.s:3489   .debug_str:00000000000001f0 .LASF45
     /tmp/ccnvvGqJ.s:3501   .debug_str:0000000000000260 .LASF46
     /tmp/ccnvvGqJ.s:3843   .debug_str:0000000000000d1d .LASF47
     /tmp/ccnvvGqJ.s:3757   .debug_str:0000000000000a08 .LASF48
     /tmp/ccnvvGqJ.s:3817   .debug_str:0000000000000c7d .LASF49
     /tmp/ccnvvGqJ.s:3659   .debug_str:0000000000000708 .LASF219
     /tmp/ccnvvGqJ.s:3741   .debug_str:000000000000098a .LASF50
     /tmp/ccnvvGqJ.s:3485   .debug_str:00000000000001bc .LASF51
     /tmp/ccnvvGqJ.s:3781   .debug_str:0000000000000ac3 .LASF56
     /tmp/ccnvvGqJ.s:3783   .debug_str:0000000000000acf .LASF58
     /tmp/ccnvvGqJ.s:3593   .debug_str:00000000000004ff .LASF98
     /tmp/ccnvvGqJ.s:3791   .debug_str:0000000000000bc8 .LASF100
     /tmp/ccnvvGqJ.s:3785   .debug_str:0000000000000ae8 .LASF220
     /tmp/ccnvvGqJ.s:3869   .debug_str:0000000000000dd9 .LASF52
     /tmp/ccnvvGqJ.s:3531   .debug_str:000000000000035d .LASF53
     /tmp/ccnvvGqJ.s:3613   .debug_str:0000000000000597 .LASF54
     /tmp/ccnvvGqJ.s:3525   .debug_str:0000000000000330 .LASF55
     /tmp/ccnvvGqJ.s:3435   .debug_str:000000000000002b .LASF57
     /tmp/ccnvvGqJ.s:3607   .debug_str:0000000000000563 .LASF59
     /tmp/ccnvvGqJ.s:3745   .debug_str:00000000000009ac .LASF60
     /tmp/ccnvvGqJ.s:3717   .debug_str:00000000000008ce .LASF61
     /tmp/ccnvvGqJ.s:3789   .debug_str:0000000000000bb4 .LASF221
     /tmp/ccnvvGqJ.s:3433   .debug_str:0000000000000026 .LASF62
     /tmp/ccnvvGqJ.s:3743   .debug_str:00000000000009a6 .LASF63
     /tmp/ccnvvGqJ.s:3801   .debug_str:0000000000000c13 .LASF64
     /tmp/ccnvvGqJ.s:3767   .debug_str:0000000000000a81 .LASF65
     /tmp/ccnvvGqJ.s:3651   .debug_str:00000000000006c5 .LASF66
     /tmp/ccnvvGqJ.s:3867   .debug_str:0000000000000dd4 .LASF67
     /tmp/ccnvvGqJ.s:3465   .debug_str:0000000000000109 .LASF68
     /tmp/ccnvvGqJ.s:3595   .debug_str:0000000000000505 .LASF70
     /tmp/ccnvvGqJ.s:3497   .debug_str:000000000000023b .LASF72
     /tmp/ccnvvGqJ.s:3441   .debug_str:0000000000000066 .LASF74
     /tmp/ccnvvGqJ.s:3505   .debug_str:0000000000000279 .LASF69
     /tmp/ccnvvGqJ.s:3483   .debug_str:00000000000001a9 .LASF71
     /tmp/ccnvvGqJ.s:3779   .debug_str:0000000000000abe .LASF73
     /tmp/ccnvvGqJ.s:3523   .debug_str:000000000000031f .LASF75
     /tmp/ccnvvGqJ.s:3723   .debug_str:00000000000008fd .LASF222
GAS LISTING /tmp/ccnvvGqJ.s 			page 28


     /tmp/ccnvvGqJ.s:3701   .debug_str:000000000000084d .LASF76
     /tmp/ccnvvGqJ.s:3481   .debug_str:000000000000019d .LASF77
     /tmp/ccnvvGqJ.s:3429   .debug_str:0000000000000000 .LASF78
     /tmp/ccnvvGqJ.s:3507   .debug_str:0000000000000282 .LASF79
     /tmp/ccnvvGqJ.s:3471   .debug_str:0000000000000149 .LASF80
     /tmp/ccnvvGqJ.s:3765   .debug_str:0000000000000a7a .LASF81
     /tmp/ccnvvGqJ.s:3491   .debug_str:0000000000000206 .LASF82
     /tmp/ccnvvGqJ.s:3711   .debug_str:00000000000008a5 .LASF83
     /tmp/ccnvvGqJ.s:3857   .debug_str:0000000000000d62 .LASF84
     /tmp/ccnvvGqJ.s:3793   .debug_str:0000000000000bd8 .LASF85
     /tmp/ccnvvGqJ.s:3689   .debug_str:00000000000007e6 .LASF86
     /tmp/ccnvvGqJ.s:3451   .debug_str:00000000000000b5 .LASF87
     /tmp/ccnvvGqJ.s:3841   .debug_str:0000000000000d04 .LASF88
     /tmp/ccnvvGqJ.s:3681   .debug_str:000000000000079d .LASF89
     /tmp/ccnvvGqJ.s:3669   .debug_str:0000000000000746 .LASF90
     /tmp/ccnvvGqJ.s:3601   .debug_str:000000000000052f .LASF91
     /tmp/ccnvvGqJ.s:3707   .debug_str:000000000000087e .LASF92
     /tmp/ccnvvGqJ.s:3829   .debug_str:0000000000000cde .LASF93
     /tmp/ccnvvGqJ.s:3543   .debug_str:00000000000003b7 .LASF94
     /tmp/ccnvvGqJ.s:3823   .debug_str:0000000000000cad .LASF95
     /tmp/ccnvvGqJ.s:3855   .debug_str:0000000000000d5c .LASF96
     /tmp/ccnvvGqJ.s:3831   .debug_str:0000000000000ce5 .LASF97
     /tmp/ccnvvGqJ.s:3541   .debug_str:00000000000003ac .LASF99
     /tmp/ccnvvGqJ.s:3549   .debug_str:00000000000003d8 .LASF101
     /tmp/ccnvvGqJ.s:3811   .debug_str:0000000000000c61 .LASF104
     /tmp/ccnvvGqJ.s:3803   .debug_str:0000000000000c1b .LASF106
     /tmp/ccnvvGqJ.s:3873   .debug_str:0000000000000df2 .LASF102
     /tmp/ccnvvGqJ.s:3653   .debug_str:00000000000006cd .LASF103
     /tmp/ccnvvGqJ.s:3819   .debug_str:0000000000000c9d .LASF105
     /tmp/ccnvvGqJ.s:3691   .debug_str:0000000000000803 .LASF107
     /tmp/ccnvvGqJ.s:3641   .debug_str:0000000000000676 .LASF108
     /tmp/ccnvvGqJ.s:3581   .debug_str:00000000000004a3 .LASF109
     /tmp/ccnvvGqJ.s:3851   .debug_str:0000000000000d4d .LASF110
     /tmp/ccnvvGqJ.s:3755   .debug_str:00000000000009f4 .LASF111
     /tmp/ccnvvGqJ.s:3637   .debug_str:0000000000000669 .LASF112
     /tmp/ccnvvGqJ.s:3865   .debug_str:0000000000000dc0 .LASF113
     /tmp/ccnvvGqJ.s:3599   .debug_str:0000000000000527 .LASF114
     /tmp/ccnvvGqJ.s:3695   .debug_str:0000000000000820 .LASF115
     /tmp/ccnvvGqJ.s:3875   .debug_str:0000000000000dfb .LASF116
     /tmp/ccnvvGqJ.s:3557   .debug_str:0000000000000408 .LASF117
     /tmp/ccnvvGqJ.s:3753   .debug_str:00000000000009ed .LASF118
     /tmp/ccnvvGqJ.s:3729   .debug_str:0000000000000914 .LASF119
     /tmp/ccnvvGqJ.s:3731   .debug_str:0000000000000927 .LASF120
     /tmp/ccnvvGqJ.s:3479   .debug_str:000000000000018a .LASF121
     /tmp/ccnvvGqJ.s:3511   .debug_str:000000000000029f .LASF122
     /tmp/ccnvvGqJ.s:3545   .debug_str:00000000000003bd .LASF123
     /tmp/ccnvvGqJ.s:3555   .debug_str:0000000000000402 .LASF124
     /tmp/ccnvvGqJ.s:3503   .debug_str:0000000000000267 .LASF125
     /tmp/ccnvvGqJ.s:3447   .debug_str:00000000000000a1 .LASF126
     /tmp/ccnvvGqJ.s:3721   .debug_str:00000000000008e5 .LASF127
     /tmp/ccnvvGqJ.s:3713   .debug_str:00000000000008b5 .LASF128
     /tmp/ccnvvGqJ.s:3509   .debug_str:0000000000000287 .LASF129
     /tmp/ccnvvGqJ.s:3833   .debug_str:0000000000000ceb .LASF130
     /tmp/ccnvvGqJ.s:3559   .debug_str:000000000000041c .LASF131
     /tmp/ccnvvGqJ.s:3477   .debug_str:0000000000000180 .LASF132
     /tmp/ccnvvGqJ.s:3621   .debug_str:00000000000005db .LASF133
     /tmp/ccnvvGqJ.s:3845   .debug_str:0000000000000d2f .LASF134
GAS LISTING /tmp/ccnvvGqJ.s 			page 29


     /tmp/ccnvvGqJ.s:3533   .debug_str:0000000000000369 .LASF135
     /tmp/ccnvvGqJ.s:3733   .debug_str:000000000000092e .LASF136
     /tmp/ccnvvGqJ.s:3665   .debug_str:0000000000000723 .LASF137
     /tmp/ccnvvGqJ.s:3837   .debug_str:0000000000000cfa .LASF138
     /tmp/ccnvvGqJ.s:3661   .debug_str:000000000000070d .LASF139
     /tmp/ccnvvGqJ.s:3565   .debug_str:0000000000000455 .LASF140
     /tmp/ccnvvGqJ.s:3619   .debug_str:00000000000005ca .LASF141
     /tmp/ccnvvGqJ.s:3839   .debug_str:0000000000000cff .LASF142
     /tmp/ccnvvGqJ.s:3563   .debug_str:0000000000000444 .LASF143
     /tmp/ccnvvGqJ.s:3567   .debug_str:000000000000045a .LASF144
     /tmp/ccnvvGqJ.s:3673   .debug_str:0000000000000767 .LASF145
     /tmp/ccnvvGqJ.s:3649   .debug_str:00000000000006c0 .LASF146
     /tmp/ccnvvGqJ.s:3437   .debug_str:000000000000003b .LASF147
     /tmp/ccnvvGqJ.s:3569   .debug_str:000000000000045f .LASF148
     /tmp/ccnvvGqJ.s:3777   .debug_str:0000000000000aad .LASF149
     /tmp/ccnvvGqJ.s:3487   .debug_str:00000000000001eb .LASF150
     /tmp/ccnvvGqJ.s:3877   .debug_str:0000000000000e03 .LASF151
     /tmp/ccnvvGqJ.s:3571   .debug_str:0000000000000464 .LASF152
     /tmp/ccnvvGqJ.s:3735   .debug_str:000000000000093f .LASF153
     /tmp/ccnvvGqJ.s:3655   .debug_str:00000000000006e2 .LASF154
     /tmp/ccnvvGqJ.s:3797   .debug_str:0000000000000bfd .LASF155
     /tmp/ccnvvGqJ.s:3573   .debug_str:0000000000000469 .LASF156
     /tmp/ccnvvGqJ.s:3431   .debug_str:0000000000000015 .LASF157
     /tmp/ccnvvGqJ.s:3847   .debug_str:0000000000000d3e .LASF158
     /tmp/ccnvvGqJ.s:3709   .debug_str:0000000000000894 .LASF159
     /tmp/ccnvvGqJ.s:3575   .debug_str:000000000000046e .LASF160
     /tmp/ccnvvGqJ.s:3805   .debug_str:0000000000000c30 .LASF161
     /tmp/ccnvvGqJ.s:3663   .debug_str:000000000000071e .LASF162
     /tmp/ccnvvGqJ.s:3615   .debug_str:00000000000005a7 .LASF163
     /tmp/ccnvvGqJ.s:3463   .debug_str:0000000000000104 .LASF164
     /tmp/ccnvvGqJ.s:3455   .debug_str:00000000000000c6 .LASF165
     /tmp/ccnvvGqJ.s:3667   .debug_str:0000000000000741 .LASF166
     /tmp/ccnvvGqJ.s:3529   .debug_str:000000000000034c .LASF167
     /tmp/ccnvvGqJ.s:3799   .debug_str:0000000000000c0e .LASF168
     /tmp/ccnvvGqJ.s:3627   .debug_str:0000000000000603 .LASF169
     /tmp/ccnvvGqJ.s:3703   .debug_str:0000000000000852 .LASF170
     /tmp/ccnvvGqJ.s:3517   .debug_str:00000000000002d7 .LASF171
     /tmp/ccnvvGqJ.s:3761   .debug_str:0000000000000a21 .LASF172
     /tmp/ccnvvGqJ.s:3643   .debug_str:000000000000067d .LASF173
     /tmp/ccnvvGqJ.s:3499   .debug_str:0000000000000249 .LASF174
     /tmp/ccnvvGqJ.s:3631   .debug_str:0000000000000629 .LASF175
     /tmp/ccnvvGqJ.s:3495   .debug_str:0000000000000230 .LASF177
     /tmp/ccnvvGqJ.s:3683   .debug_str:00000000000007b2 .LASF179
     /tmp/ccnvvGqJ.s:714    .text:0000000000000260 .LFB69
     /tmp/ccnvvGqJ.s:735    .text:000000000000027c .LFE69
     /tmp/ccnvvGqJ.s:3679   .debug_str:0000000000000798 .LASF182
     /tmp/ccnvvGqJ.s:3211   .debug_loc:0000000000000000 .LLST18
     /tmp/ccnvvGqJ.s:3835   .debug_str:0000000000000cf5 .LASF180
     /tmp/ccnvvGqJ.s:3449   .debug_str:00000000000000ac .LASF181
     /tmp/ccnvvGqJ.s:673    .text:000000000000023c .LFB68
     /tmp/ccnvvGqJ.s:708    .text:0000000000000260 .LFE68
     /tmp/ccnvvGqJ.s:3775   .debug_str:0000000000000aa8 .LASF183
     /tmp/ccnvvGqJ.s:3553   .debug_str:00000000000003fd .LASF184
     /tmp/ccnvvGqJ.s:3821   .debug_str:0000000000000ca4 .LASF185
     /tmp/ccnvvGqJ.s:629    .text:0000000000000214 .LFB67
     /tmp/ccnvvGqJ.s:667    .text:000000000000023c .LFE67
     /tmp/ccnvvGqJ.s:3871   .debug_str:0000000000000de6 .LASF186
GAS LISTING /tmp/ccnvvGqJ.s 			page 30


     /tmp/ccnvvGqJ.s:3539   .debug_str:00000000000003a1 .LASF187
     /tmp/ccnvvGqJ.s:3687   .debug_str:00000000000007c9 .LASF188
     /tmp/ccnvvGqJ.s:578    .text:00000000000001e8 .LFB66
     /tmp/ccnvvGqJ.s:623    .text:0000000000000214 .LFE66
     /tmp/ccnvvGqJ.s:3225   .debug_loc:0000000000000039 .LLST16
     /tmp/ccnvvGqJ.s:3239   .debug_loc:0000000000000072 .LLST17
     /tmp/ccnvvGqJ.s:3597   .debug_str:000000000000051e .LASF189
     /tmp/ccnvvGqJ.s:3583   .debug_str:00000000000004b6 .LASF190
     /tmp/ccnvvGqJ.s:527    .text:00000000000001bc .LFB65
     /tmp/ccnvvGqJ.s:572    .text:00000000000001e8 .LFE65
     /tmp/ccnvvGqJ.s:3246   .debug_loc:0000000000000095 .LLST14
     /tmp/ccnvvGqJ.s:3260   .debug_loc:00000000000000ce .LLST15
     /tmp/ccnvvGqJ.s:3693   .debug_str:0000000000000816 .LASF191
     /tmp/ccnvvGqJ.s:3609   .debug_str:0000000000000570 .LASF192
     /tmp/ccnvvGqJ.s:476    .text:0000000000000190 .LFB64
     /tmp/ccnvvGqJ.s:521    .text:00000000000001bc .LFE64
     /tmp/ccnvvGqJ.s:3853   .debug_str:0000000000000d55 .LASF193
     /tmp/ccnvvGqJ.s:3267   .debug_loc:00000000000000f1 .LLST12
     /tmp/ccnvvGqJ.s:3281   .debug_loc:000000000000012a .LLST13
     /tmp/ccnvvGqJ.s:3809   .debug_str:0000000000000c58 .LASF194
     /tmp/ccnvvGqJ.s:3795   .debug_str:0000000000000be1 .LASF195
     /tmp/ccnvvGqJ.s:420    .text:0000000000000160 .LFB63
     /tmp/ccnvvGqJ.s:470    .text:0000000000000190 .LFE63
     /tmp/ccnvvGqJ.s:3288   .debug_loc:000000000000014d .LLST10
     /tmp/ccnvvGqJ.s:3457   .debug_str:00000000000000d7 .LASF196
     /tmp/ccnvvGqJ.s:3302   .debug_loc:0000000000000186 .LLST11
     /tmp/ccnvvGqJ.s:3645   .debug_str:000000000000069f .LASF197
     /tmp/ccnvvGqJ.s:3647   .debug_str:00000000000006ab .LASF198
     /tmp/ccnvvGqJ.s:379    .text:000000000000013c .LFB62
     /tmp/ccnvvGqJ.s:414    .text:0000000000000160 .LFE62
     /tmp/ccnvvGqJ.s:3699   .debug_str:000000000000083d .LASF223
     /tmp/ccnvvGqJ.s:3629   .debug_str:0000000000000614 .LASF224
     /tmp/ccnvvGqJ.s:344    .text:000000000000011c .LFB61
     /tmp/ccnvvGqJ.s:373    .text:000000000000013c .LFE61
     /tmp/ccnvvGqJ.s:3611   .debug_str:000000000000058b .LASF199
     /tmp/ccnvvGqJ.s:3861   .debug_str:0000000000000d94 .LASF200
     /tmp/ccnvvGqJ.s:288    .text:00000000000000f0 .LFB60
     /tmp/ccnvvGqJ.s:338    .text:000000000000011c .LFE60
     /tmp/ccnvvGqJ.s:3309   .debug_loc:00000000000001a9 .LLST8
     /tmp/ccnvvGqJ.s:299    .text:00000000000000fc .LBB4
     /tmp/ccnvvGqJ.s:312    .text:0000000000000104 .LBE4
     /tmp/ccnvvGqJ.s:3316   .debug_loc:00000000000001cc .LLST9
     /tmp/ccnvvGqJ.s:3815   .debug_str:0000000000000c6f .LASF201
     /tmp/ccnvvGqJ.s:3657   .debug_str:00000000000006e7 .LASF202
     /tmp/ccnvvGqJ.s:227    .text:00000000000000bc .LFB59
     /tmp/ccnvvGqJ.s:282    .text:00000000000000f0 .LFE59
     /tmp/ccnvvGqJ.s:3324   .debug_loc:00000000000001f0 .LLST6
     /tmp/ccnvvGqJ.s:3587   .debug_str:00000000000004d9 .LASF203
     /tmp/ccnvvGqJ.s:3338   .debug_loc:0000000000000229 .LLST7
     /tmp/ccnvvGqJ.s:3461   .debug_str:00000000000000e8 .LASF204
     /tmp/ccnvvGqJ.s:3737   .debug_str:0000000000000950 .LASF205
     /tmp/ccnvvGqJ.s:166    .text:0000000000000088 .LFB58
     /tmp/ccnvvGqJ.s:221    .text:00000000000000bc .LFE58
     /tmp/ccnvvGqJ.s:3345   .debug_loc:000000000000024c .LLST4
     /tmp/ccnvvGqJ.s:3359   .debug_loc:0000000000000285 .LLST5
     /tmp/ccnvvGqJ.s:3677   .debug_str:000000000000078b .LASF206
     /tmp/ccnvvGqJ.s:3605   .debug_str:000000000000054d .LASF207
GAS LISTING /tmp/ccnvvGqJ.s 			page 31


     /tmp/ccnvvGqJ.s:125    .text:0000000000000064 .LFB57
     /tmp/ccnvvGqJ.s:160    .text:0000000000000088 .LFE57
     /tmp/ccnvvGqJ.s:3547   .debug_str:00000000000003cf .LASF208
     /tmp/ccnvvGqJ.s:3859   .debug_str:0000000000000d86 .LASF209
     /tmp/ccnvvGqJ.s:74     .text:0000000000000038 .LFB56
     /tmp/ccnvvGqJ.s:119    .text:0000000000000064 .LFE56
     /tmp/ccnvvGqJ.s:3366   .debug_loc:00000000000002a8 .LLST2
     /tmp/ccnvvGqJ.s:3380   .debug_loc:00000000000002e1 .LLST3
     /tmp/ccnvvGqJ.s:3625   .debug_str:00000000000005f9 .LASF210
     /tmp/ccnvvGqJ.s:3537   .debug_str:0000000000000393 .LASF211
     /tmp/ccnvvGqJ.s:10     .text:0000000000000000 .LFB55
     /tmp/ccnvvGqJ.s:68     .text:0000000000000038 .LFE55
     /tmp/ccnvvGqJ.s:3589   .debug_str:00000000000004e7 .LASF212
     /tmp/ccnvvGqJ.s:3387   .debug_loc:0000000000000304 .LLST0
     /tmp/ccnvvGqJ.s:3623   .debug_str:00000000000005f1 .LASF213
     /tmp/ccnvvGqJ.s:3407   .debug_loc:0000000000000352 .LLST1
     /tmp/ccnvvGqJ.s:3453   .debug_str:00000000000000bb .LASF225
     /tmp/ccnvvGqJ.s:717    .text:0000000000000260 .LVL33
     /tmp/ccnvvGqJ.s:727    .text:0000000000000270 .LVL34
     /tmp/ccnvvGqJ.s:581    .text:00000000000001e8 .LVL28
     /tmp/ccnvvGqJ.s:610    .text:0000000000000204 .LVL29
     /tmp/ccnvvGqJ.s:615    .text:0000000000000208 .LVL30
     /tmp/ccnvvGqJ.s:530    .text:00000000000001bc .LVL25
     /tmp/ccnvvGqJ.s:559    .text:00000000000001d8 .LVL26
     /tmp/ccnvvGqJ.s:564    .text:00000000000001dc .LVL27
     /tmp/ccnvvGqJ.s:479    .text:0000000000000190 .LVL22
     /tmp/ccnvvGqJ.s:508    .text:00000000000001ac .LVL23
     /tmp/ccnvvGqJ.s:513    .text:00000000000001b0 .LVL24
     /tmp/ccnvvGqJ.s:423    .text:0000000000000160 .LVL19
     /tmp/ccnvvGqJ.s:457    .text:0000000000000180 .LVL20
     /tmp/ccnvvGqJ.s:462    .text:0000000000000184 .LVL21
     /tmp/ccnvvGqJ.s:325    .text:000000000000010c .LVL16
     /tmp/ccnvvGqJ.s:330    .text:0000000000000110 .LVL17
     /tmp/ccnvvGqJ.s:298    .text:00000000000000fc .LVL14
     /tmp/ccnvvGqJ.s:309    .text:0000000000000104 .LVL15
     /tmp/ccnvvGqJ.s:230    .text:00000000000000bc .LVL11
     /tmp/ccnvvGqJ.s:269    .text:00000000000000e0 .LVL12
     /tmp/ccnvvGqJ.s:274    .text:00000000000000e4 .LVL13
     /tmp/ccnvvGqJ.s:169    .text:0000000000000088 .LVL8
     /tmp/ccnvvGqJ.s:208    .text:00000000000000ac .LVL9
     /tmp/ccnvvGqJ.s:213    .text:00000000000000b0 .LVL10
     /tmp/ccnvvGqJ.s:77     .text:0000000000000038 .LVL4
     /tmp/ccnvvGqJ.s:106    .text:0000000000000054 .LVL5
     /tmp/ccnvvGqJ.s:111    .text:0000000000000058 .LVL6
     /tmp/ccnvvGqJ.s:14     .text:0000000000000000 .LVL0
     /tmp/ccnvvGqJ.s:30     .text:0000000000000018 .LVL1
     /tmp/ccnvvGqJ.s:33     .text:000000000000001c .LVL2
     /tmp/ccnvvGqJ.s:57     .text:000000000000002c .LVL3
     /tmp/ccnvvGqJ.s:744    .debug_info:0000000000000000 .Ldebug_info0

NO UNDEFINED SYMBOLS
