GAS LISTING /tmp/cclCgHHB.s 			page 1


   1              		.file	"tcb.cpp"
   2              		.option pic
   3              		.option norelax
   4              		.text
   5              	.Ltext0:
   6              		.align	2
   7              		.globl	_ZN3TCB12createThreadEPFvvE
   9              	_ZN3TCB12createThreadEPFvvE:
  10              	.LFB50:
  11              		.file 1 "src/tcb.cpp"
   1:src/tcb.cpp   **** //
   2:src/tcb.cpp   **** // Created by marko on 20.4.22..
   3:src/tcb.cpp   **** //
   4:src/tcb.cpp   **** 
   5:src/tcb.cpp   **** #include "../h/tcb.hpp"
   6:src/tcb.cpp   **** #include "../h/riscv.hpp"
   7:src/tcb.cpp   **** 
   8:src/tcb.cpp   **** TCB *TCB::running = nullptr;
   9:src/tcb.cpp   **** 
  10:src/tcb.cpp   **** uint64 TCB::timeSliceCounter = 0;
  11:src/tcb.cpp   **** uint64 TCB::timeSliceCounterTest = 0;
  12:src/tcb.cpp   **** 
  13:src/tcb.cpp   **** TCB *TCB::createThread(Body body)
  14:src/tcb.cpp   **** {
  12              		.loc 1 14 1
  13              		.cfi_startproc
  14              		.cfi_personality 0x9b,DW.ref.__gxx_personality_v0
  15              		.cfi_lsda 0x1b,.LLSDA50
  16              	.LVL0:
  17 0000 130101FE 		addi	sp,sp,-32
  18              		.cfi_def_cfa_offset 32
  19 0004 233C1100 		sd	ra,24(sp)
  20 0008 23388100 		sd	s0,16(sp)
  21 000c 23349100 		sd	s1,8(sp)
  22 0010 23302101 		sd	s2,0(sp)
  23              		.cfi_offset 1, -8
  24              		.cfi_offset 8, -16
  25              		.cfi_offset 9, -24
  26              		.cfi_offset 18, -32
  27 0014 13040102 		addi	s0,sp,32
  28              		.cfi_def_cfa 8, 0
  29 0018 13090500 		mv	s2,a0
  15:src/tcb.cpp   ****     return new TCB(body, TIME_SLICE);
  30              		.loc 1 15 5
  31              		.loc 1 15 36 is_stmt 0
  32 001c 13050003 		li	a0,48
  33              	.LVL1:
  34              	.LEHB0:
  35 0020 97000000 		call	_Znwm@plt
  35      E7800000 
  36              	.LVL2:
  37              	.LEHE0:
  38 0028 93040500 		mv	s1,a0
  39              	.LVL3:
  40              	.LBB9:
  41              	.LBB10:
  42              		.file 2 "src/../h/tcb.hpp"
GAS LISTING /tmp/cclCgHHB.s 			page 2


   1:src/../h/tcb.hpp **** //
   2:src/../h/tcb.hpp **** // Created by marko on 20.4.22..
   3:src/../h/tcb.hpp **** //
   4:src/../h/tcb.hpp **** 
   5:src/../h/tcb.hpp **** #ifndef OS1_VEZBE07_RISCV_CONTEXT_SWITCH_2_INTERRUPT_TCB_HPP
   6:src/../h/tcb.hpp **** #define OS1_VEZBE07_RISCV_CONTEXT_SWITCH_2_INTERRUPT_TCB_HPP
   7:src/../h/tcb.hpp **** 
   8:src/../h/tcb.hpp **** #include "../lib/hw.h"
   9:src/../h/tcb.hpp **** #include "scheduler.hpp"
  10:src/../h/tcb.hpp **** 
  11:src/../h/tcb.hpp **** // Thread Control Block
  12:src/../h/tcb.hpp **** class TCB
  13:src/../h/tcb.hpp **** {
  14:src/../h/tcb.hpp **** public:
  15:src/../h/tcb.hpp ****     ~TCB() { delete[] stack; }
  16:src/../h/tcb.hpp **** 
  17:src/../h/tcb.hpp ****     bool isFinished() const { return finished; }
  18:src/../h/tcb.hpp **** 
  19:src/../h/tcb.hpp ****     void setFinished(bool value) { finished = value; }
  20:src/../h/tcb.hpp **** 
  21:src/../h/tcb.hpp ****     uint64 getTimeSlice() const { return timeSlice; }
  22:src/../h/tcb.hpp **** 
  23:src/../h/tcb.hpp ****     static uint64 getTimeSliceTest() { return timeSliceCounterTest; }
  24:src/../h/tcb.hpp **** 
  25:src/../h/tcb.hpp ****     using Body = void (*)();
  26:src/../h/tcb.hpp **** 
  27:src/../h/tcb.hpp ****     static TCB *createThread(Body body);
  28:src/../h/tcb.hpp **** 
  29:src/../h/tcb.hpp ****     static void yield();
  30:src/../h/tcb.hpp **** 
  31:src/../h/tcb.hpp ****     static TCB *running;
  32:src/../h/tcb.hpp **** 
  33:src/../h/tcb.hpp **** private:
  34:src/../h/tcb.hpp ****     TCB(Body body, uint64 timeSlice) :
  35:src/../h/tcb.hpp ****             body(body),
  36:src/../h/tcb.hpp ****             stack(body != nullptr ? new uint64[STACK_SIZE] : nullptr),
  37:src/../h/tcb.hpp ****             context({(uint64) &threadWrapper,
  38:src/../h/tcb.hpp ****                      stack != nullptr ? (uint64) &stack[STACK_SIZE] : 0
  39:src/../h/tcb.hpp ****                     }),
  40:src/../h/tcb.hpp ****             timeSlice(timeSlice),
  41:src/../h/tcb.hpp ****             finished(false)
  43              		.loc 2 41 27
  44 002c 23302501 		sd	s2,0(a0)
  36:src/../h/tcb.hpp ****             context({(uint64) &threadWrapper,
  45              		.loc 2 36 35
  46 0030 630A0900 		beqz	s2,.L6
  36:src/../h/tcb.hpp ****             context({(uint64) &threadWrapper,
  47              		.loc 2 36 58
  48 0034 37250000 		li	a0,8192
  49              	.LEHB1:
  50 0038 97000000 		call	_Znam@plt
  50      E7800000 
  51              	.LVL4:
  52 0040 6F008000 		j	.L2
  53              	.L6:
  36:src/../h/tcb.hpp ****             context({(uint64) &threadWrapper,
  54              		.loc 2 36 35
GAS LISTING /tmp/cclCgHHB.s 			page 3


  55 0044 13050000 		li	a0,0
  56              	.L2:
  57              		.loc 2 41 27
  58 0048 23B4A400 		sd	a0,8(s1)
  59 004c 97070000 		lla	a5,_ZN3TCB13threadWrapperEv
  59      93870700 
  60 0054 23B8F400 		sd	a5,16(s1)
  38:src/../h/tcb.hpp ****                     }),
  61              		.loc 2 38 39
  62 0058 63080502 		beqz	a0,.L7
  38:src/../h/tcb.hpp ****                     }),
  63              		.loc 2 38 50
  64 005c B7270000 		li	a5,8192
  65 0060 B307F500 		add	a5,a0,a5
  66              	.L3:
  67              		.loc 2 41 27
  68 0064 23BCF400 		sd	a5,24(s1)
  69 0068 93072000 		li	a5,2
  70 006c 23B0F402 		sd	a5,32(s1)
  71 0070 23840402 		sb	zero,40(s1)
  42:src/../h/tcb.hpp ****     {
  43:src/../h/tcb.hpp ****         if (body != nullptr) { Scheduler::put(this); }
  72              		.loc 2 43 9 is_stmt 1
  73 0074 630C0902 		beqz	s2,.L1
  74              		.loc 2 43 32
  75              		.loc 2 43 46 is_stmt 0
  76 0078 13850400 		mv	a0,s1
  77 007c 97000000 		call	_ZN9Scheduler3putEP3TCB@plt
  77      E7800000 
  78              	.LVL5:
  79              	.LEHE1:
  80 0084 6F008002 		j	.L1
  81              	.L7:
  38:src/../h/tcb.hpp ****                     }),
  82              		.loc 2 38 39
  83 0088 93070000 		li	a5,0
  84 008c 6FF09FFD 		j	.L3
  85              	.L8:
  86 0090 13090500 		mv	s2,a0
  87              	.LVL6:
  88              	.LBE10:
  89              	.LBE9:
  90              		.loc 1 15 36
  91 0094 13850400 		mv	a0,s1
  92 0098 97000000 		call	_ZdlPv@plt
  92      E7800000 
  93              	.LVL7:
  94 00a0 13050900 		mv	a0,s2
  95              	.LEHB2:
  96 00a4 97000000 		call	_Unwind_Resume@plt
  96      E7800000 
  97              	.LVL8:
  98              	.LEHE2:
  99              	.L1:
  16:src/tcb.cpp   **** }
 100              		.loc 1 16 1
 101 00ac 13850400 		mv	a0,s1
GAS LISTING /tmp/cclCgHHB.s 			page 4


 102 00b0 83308101 		ld	ra,24(sp)
 103              		.cfi_restore 1
 104 00b4 03340101 		ld	s0,16(sp)
 105              		.cfi_restore 8
 106              		.cfi_def_cfa 2, 32
 107 00b8 83348100 		ld	s1,8(sp)
 108              		.cfi_restore 9
 109              	.LVL9:
 110 00bc 03390100 		ld	s2,0(sp)
 111              		.cfi_restore 18
 112              	.LVL10:
 113 00c0 13010102 		addi	sp,sp,32
 114              		.cfi_def_cfa_offset 0
 115 00c4 67800000 		jr	ra
 116              		.cfi_endproc
 117              	.LFE50:
 118              		.globl	__gxx_personality_v0
 119              		.section	.gcc_except_table,"a",@progbits
 120              	.LLSDA50:
 121 0000 FF       		.byte	0xff
 122 0001 FF       		.byte	0xff
 123 0002 03       		.byte	0x3
 124 0003 27       		.byte	0x27
 125 0004 00000000 		.4byte	.LEHB0-.LFB50
 126 0008 00000000 		.4byte	.LEHE0-.LEHB0
 127 000c 00000000 		.4byte	0
 128 0010 00       		.byte	0
 129 0011 00000000 		.4byte	.LEHB1-.LFB50
 130 0015 00000000 		.4byte	.LEHE1-.LEHB1
 131 0019 00000000 		.4byte	.L8-.LFB50
 132 001d 00       		.byte	0
 133 001e 00000000 		.4byte	.LEHB2-.LFB50
 134 0022 00000000 		.4byte	.LEHE2-.LEHB2
 135 0026 00000000 		.4byte	0
 136 002a 00       		.byte	0
 137              		.text
 139              		.align	2
 140              		.globl	_ZN3TCB5yieldEv
 142              	_ZN3TCB5yieldEv:
 143              	.LFB51:
  17:src/tcb.cpp   **** 
  18:src/tcb.cpp   **** void TCB::yield()
  19:src/tcb.cpp   **** {
 144              		.loc 1 19 1 is_stmt 1
 145              		.cfi_startproc
 146 00c8 130101FF 		addi	sp,sp,-16
 147              		.cfi_def_cfa_offset 16
 148 00cc 23348100 		sd	s0,8(sp)
 149              		.cfi_offset 8, -8
 150 00d0 13040101 		addi	s0,sp,16
 151              		.cfi_def_cfa 8, 0
  20:src/tcb.cpp   ****     __asm__ volatile ("ecall");
 152              		.loc 1 20 5
 153              		.loc 1 20 31 is_stmt 0
 154              	#APP
 155              	# 20 "src/tcb.cpp" 1
  21              	}
GAS LISTING /tmp/cclCgHHB.s 			page 5


 156              		ecall
 157              	# 0 "" 2
 158              		.loc 1 21 1
 159              	#NO_APP
 160 00d8 03348100 		ld	s0,8(sp)
 161              		.cfi_restore 8
 162              		.cfi_def_cfa 2, 16
 163 00dc 13010101 		addi	sp,sp,16
 164              		.cfi_def_cfa_offset 0
 165 00e0 67800000 		jr	ra
 166              		.cfi_endproc
 167              	.LFE51:
 169              		.align	2
 170              		.globl	_ZN3TCB13threadWrapperEv
 172              	_ZN3TCB13threadWrapperEv:
 173              	.LFB53:
  22:src/tcb.cpp   **** 
  23:src/tcb.cpp   **** void TCB::dispatch()
  24:src/tcb.cpp   **** {
  25:src/tcb.cpp   ****     TCB *old = running;
  26:src/tcb.cpp   ****     if (!old->isFinished()) { Scheduler::put(old); }
  27:src/tcb.cpp   ****     running = Scheduler::get();
  28:src/tcb.cpp   **** 
  29:src/tcb.cpp   ****     TCB::contextSwitch(&old->context, &running->context);
  30:src/tcb.cpp   **** }
  31:src/tcb.cpp   **** 
  32:src/tcb.cpp   **** void TCB::threadWrapper()
  33:src/tcb.cpp   **** {
 174              		.loc 1 33 1 is_stmt 1
 175              		.cfi_startproc
 176 00e4 130101FE 		addi	sp,sp,-32
 177              		.cfi_def_cfa_offset 32
 178 00e8 233C1100 		sd	ra,24(sp)
 179 00ec 23388100 		sd	s0,16(sp)
 180 00f0 23349100 		sd	s1,8(sp)
 181              		.cfi_offset 1, -8
 182              		.cfi_offset 8, -16
 183              		.cfi_offset 9, -24
 184 00f4 13040102 		addi	s0,sp,32
 185              		.cfi_def_cfa 8, 0
  34:src/tcb.cpp   ****     Riscv::popSppSpie();
 186              		.loc 1 34 5
 187              		.loc 1 34 22 is_stmt 0
 188 00f8 97000000 		call	_ZN5Riscv10popSppSpieEv@plt
 188      E7800000 
 189              	.LVL11:
  35:src/tcb.cpp   ****     running->body();
 190              		.loc 1 35 5 is_stmt 1
 191              		.loc 1 35 14 is_stmt 0
 192 0100 97040000 		lla	s1,.LANCHOR0
 192      93840400 
 193 0108 83B70400 		ld	a5,0(s1)
 194 010c 83B70700 		ld	a5,0(a5)
 195              		.loc 1 35 18
 196 0110 E7800700 		jalr	a5
 197              	.LVL12:
  36:src/tcb.cpp   ****     running->setFinished(true);
GAS LISTING /tmp/cclCgHHB.s 			page 6


 198              		.loc 1 36 5 is_stmt 1
 199              		.loc 1 36 25 is_stmt 0
 200 0114 83B70400 		ld	a5,0(s1)
 201              	.LVL13:
 202              	.LBB11:
 203              	.LBB12:
  19:src/../h/tcb.hpp **** 
 204              		.loc 2 19 36 is_stmt 1
  19:src/../h/tcb.hpp **** 
 205              		.loc 2 19 45 is_stmt 0
 206 0118 13071000 		li	a4,1
 207 011c 2384E702 		sb	a4,40(a5)
 208              	.LVL14:
 209              	.LBE12:
 210              	.LBE11:
  37:src/tcb.cpp   ****     TCB::yield();
 211              		.loc 1 37 5 is_stmt 1
 212              		.loc 1 37 15 is_stmt 0
 213 0120 97000000 		call	_ZN3TCB5yieldEv
 213      E7800000 
 214              	.LVL15:
  38:src/tcb.cpp   **** }
 215              		.loc 1 38 1
 216 0128 83308101 		ld	ra,24(sp)
 217              		.cfi_restore 1
 218 012c 03340101 		ld	s0,16(sp)
 219              		.cfi_restore 8
 220              		.cfi_def_cfa 2, 32
 221 0130 83348100 		ld	s1,8(sp)
 222              		.cfi_restore 9
 223 0134 13010102 		addi	sp,sp,32
 224              		.cfi_def_cfa_offset 0
 225 0138 67800000 		jr	ra
 226              		.cfi_endproc
 227              	.LFE53:
 229              		.align	2
 230              		.globl	_ZN3TCB8dispatchEv
 232              	_ZN3TCB8dispatchEv:
 233              	.LFB52:
  24:src/tcb.cpp   ****     TCB *old = running;
 234              		.loc 1 24 1 is_stmt 1
 235              		.cfi_startproc
 236 013c 130101FE 		addi	sp,sp,-32
 237              		.cfi_def_cfa_offset 32
 238 0140 233C1100 		sd	ra,24(sp)
 239 0144 23388100 		sd	s0,16(sp)
 240 0148 23349100 		sd	s1,8(sp)
 241              		.cfi_offset 1, -8
 242              		.cfi_offset 8, -16
 243              		.cfi_offset 9, -24
 244 014c 13040102 		addi	s0,sp,32
 245              		.cfi_def_cfa 8, 0
  25:src/tcb.cpp   ****     if (!old->isFinished()) { Scheduler::put(old); }
 246              		.loc 1 25 5
  25:src/tcb.cpp   ****     if (!old->isFinished()) { Scheduler::put(old); }
 247              		.loc 1 25 10 is_stmt 0
 248 0150 97040000 		ld	s1,.LANCHOR0
GAS LISTING /tmp/cclCgHHB.s 			page 7


 248      83B40400 
 249              	.LVL16:
  26:src/tcb.cpp   ****     running = Scheduler::get();
 250              		.loc 1 26 5 is_stmt 1
 251              	.LBB13:
 252              	.LBB14:
  17:src/../h/tcb.hpp **** 
 253              		.loc 2 17 31
  17:src/../h/tcb.hpp **** 
 254              		.loc 2 17 38 is_stmt 0
 255 0158 83C78402 		lbu	a5,40(s1)
 256              	.LVL17:
 257              	.LBE14:
 258              	.LBE13:
  26:src/tcb.cpp   ****     running = Scheduler::get();
 259              		.loc 1 26 5
 260 015c 638C0702 		beqz	a5,.L17
 261              	.L15:
  27:src/tcb.cpp   **** 
 262              		.loc 1 27 5 is_stmt 1
  27:src/tcb.cpp   **** 
 263              		.loc 1 27 29 is_stmt 0
 264 0160 97000000 		call	_ZN9Scheduler3getEv@plt
 264      E7800000 
 265              	.LVL18:
  27:src/tcb.cpp   **** 
 266              		.loc 1 27 13
 267 0168 97070000 		sd	a0,.LANCHOR0,a5
 267      23B0A700 
  29:src/tcb.cpp   **** }
 268              		.loc 1 29 5 is_stmt 1
  29:src/tcb.cpp   **** }
 269              		.loc 1 29 23 is_stmt 0
 270 0170 93050501 		addi	a1,a0,16
 271 0174 13850401 		addi	a0,s1,16
 272 0178 97000000 		call	_ZN3TCB13contextSwitchEPNS_7ContextES1_@plt
 272      E7800000 
 273              	.LVL19:
  30:src/tcb.cpp   **** 
 274              		.loc 1 30 1
 275 0180 83308101 		ld	ra,24(sp)
 276              		.cfi_remember_state
 277              		.cfi_restore 1
 278 0184 03340101 		ld	s0,16(sp)
 279              		.cfi_restore 8
 280              		.cfi_def_cfa 2, 32
 281 0188 83348100 		ld	s1,8(sp)
 282              		.cfi_restore 9
 283              	.LVL20:
 284 018c 13010102 		addi	sp,sp,32
 285              		.cfi_def_cfa_offset 0
 286 0190 67800000 		jr	ra
 287              	.LVL21:
 288              	.L17:
 289              		.cfi_restore_state
  26:src/tcb.cpp   ****     running = Scheduler::get();
 290              		.loc 1 26 31 is_stmt 1 discriminator 1
GAS LISTING /tmp/cclCgHHB.s 			page 8


  26:src/tcb.cpp   ****     running = Scheduler::get();
 291              		.loc 1 26 45 is_stmt 0 discriminator 1
 292 0194 13850400 		mv	a0,s1
 293 0198 97000000 		call	_ZN9Scheduler3putEP3TCB@plt
 293      E7800000 
 294              	.LVL22:
 295 01a0 6FF01FFC 		j	.L15
 296              		.cfi_endproc
 297              	.LFE52:
 299              		.globl	_ZN3TCB20timeSliceCounterTestE
 300              		.globl	_ZN3TCB16timeSliceCounterE
 301              		.globl	_ZN3TCB7runningE
 302              		.bss
 303              		.align	3
 304              		.set	.LANCHOR0,. + 0
 307              	_ZN3TCB7runningE:
 308 0000 00000000 		.zero	8
 308      00000000 
 311              	_ZN3TCB20timeSliceCounterTestE:
 312 0008 00000000 		.zero	8
 312      00000000 
 315              	_ZN3TCB16timeSliceCounterE:
 316 0010 00000000 		.zero	8
 316      00000000 
 317              		.text
 318              	.Letext0:
 319              		.file 3 "src/../h/../lib/hw.h"
 320              		.file 4 "src/../h/scheduler.hpp"
 321              		.file 5 "src/../h/riscv.hpp"
 2656              		.align	3
 2659              	DW.ref.__gxx_personality_v0:
 2660 0000 00000000 		.dword	__gxx_personality_v0
 2660      00000000 
 2661              		.ident	"GCC: (Ubuntu 9.4.0-1ubuntu1~20.04) 9.4.0"
 2662              		.section	.note.GNU-stack,"",@progbits
GAS LISTING /tmp/cclCgHHB.s 			page 9

