GAS LISTING /tmp/ccjtBBYr.s 			page 1


   1              		.file	"workers.cpp"
   2              		.option pic
   3              		.option norelax
   4              		.text
   5              	.Ltext0:
   6              		.align	2
   8              	_ZL9fibonaccim:
   9              	.LFB22:
  10              		.file 1 "src/workers.cpp"
   1:src/workers.cpp **** //
   2:src/workers.cpp **** // Created by marko on 20.4.22..
   3:src/workers.cpp **** //
   4:src/workers.cpp **** 
   5:src/workers.cpp **** #include "../lib/hw.h"
   6:src/workers.cpp **** #include "../h/tcb.hpp"
   7:src/workers.cpp **** #include "../h/print.hpp"
   8:src/workers.cpp **** #include "../h/syscall_c.hpp"
   9:src/workers.cpp **** 
  10:src/workers.cpp **** static uint64 fibonacci(uint64 n)
  11:src/workers.cpp **** {
  11              		.loc 1 11 1
  12              		.cfi_startproc
  13              	.LVL0:
  14 0000 130101FE 		addi	sp,sp,-32
  15              		.cfi_def_cfa_offset 32
  16 0004 233C1100 		sd	ra,24(sp)
  17 0008 23388100 		sd	s0,16(sp)
  18 000c 23349100 		sd	s1,8(sp)
  19 0010 23302101 		sd	s2,0(sp)
  20              		.cfi_offset 1, -8
  21              		.cfi_offset 8, -16
  22              		.cfi_offset 9, -24
  23              		.cfi_offset 18, -32
  24 0014 13040102 		addi	s0,sp,32
  25              		.cfi_def_cfa 8, 0
  26 0018 93040500 		mv	s1,a0
  12:src/workers.cpp ****     if (n == 0 || n == 1) { return n; }
  27              		.loc 1 12 5
  28 001c 93071000 		li	a5,1
  29 0020 63F6A702 		bleu	a0,a5,.L1
  13:src/workers.cpp ****     if (n % 4 == 0) {
  30              		.loc 1 13 5
  31              		.loc 1 13 11 is_stmt 0
  32 0024 93773500 		andi	a5,a0,3
  33              		.loc 1 13 5
  34 0028 638E0702 		beqz	a5,.L6
  35              	.LVL1:
  36              	.L3:
  14:src/workers.cpp ****         //printString("fibonacci yield\n");
  15:src/workers.cpp ****         thread_dispatch();
  16:src/workers.cpp ****     }
  17:src/workers.cpp ****     return fibonacci(n - 1) + fibonacci(n - 2);
  37              		.loc 1 17 5 is_stmt 1
  38              		.loc 1 17 21 is_stmt 0
  39 002c 1385F4FF 		addi	a0,s1,-1
  40 0030 97000000 		call	_ZL9fibonaccim
  40      E7800000 
GAS LISTING /tmp/ccjtBBYr.s 			page 2


  41              	.LVL2:
  42 0038 13090500 		mv	s2,a0
  43              		.loc 1 17 40
  44 003c 1385E4FF 		addi	a0,s1,-2
  45 0040 97000000 		call	_ZL9fibonaccim
  45      E7800000 
  46              	.LVL3:
  47              		.loc 1 17 46
  48 0048 3305A900 		add	a0,s2,a0
  49              	.L1:
  18:src/workers.cpp **** }
  50              		.loc 1 18 1
  51 004c 83308101 		ld	ra,24(sp)
  52              		.cfi_remember_state
  53              		.cfi_restore 1
  54 0050 03340101 		ld	s0,16(sp)
  55              		.cfi_restore 8
  56              		.cfi_def_cfa 2, 32
  57 0054 83348100 		ld	s1,8(sp)
  58              		.cfi_restore 9
  59              	.LVL4:
  60 0058 03390100 		ld	s2,0(sp)
  61              		.cfi_restore 18
  62 005c 13010102 		addi	sp,sp,32
  63              		.cfi_def_cfa_offset 0
  64 0060 67800000 		jr	ra
  65              	.LVL5:
  66              	.L6:
  67              		.cfi_restore_state
  15:src/workers.cpp ****     }
  68              		.loc 1 15 9 is_stmt 1
  15:src/workers.cpp ****     }
  69              		.loc 1 15 24 is_stmt 0
  70 0064 97000000 		call	_Z15thread_dispatchv@plt
  70      E7800000 
  71              	.LVL6:
  72 006c 6FF01FFC 		j	.L3
  73              		.cfi_endproc
  74              	.LFE22:
  76              		.section	.rodata.str1.8,"aMS",@progbits,1
  77              		.align	3
  78              	.LC0:
  79 0000 413A2069 		.string	"A: i="
  79      3D00
  80 0006 0000     		.align	3
  81              	.LC1:
  82 0008 0A00     		.string	"\n"
  83 000a 00000000 		.align	3
  83      0000
  84              	.LC2:
  85 0010 413A2079 		.string	"A: yield\n"
  85      69656C64 
  85      0A00
  86 001a 00000000 		.align	3
  86      0000
  87              	.LC3:
  88 0020 413A2074 		.string	"A: t1="
GAS LISTING /tmp/ccjtBBYr.s 			page 3


  88      313D00
  89 0027 00       		.align	3
  90              	.LC4:
  91 0028 413A2066 		.string	"A: fibonaci="
  91      69626F6E 
  91      6163693D 
  91      00
  92              		.text
  93              		.align	2
  94              		.globl	_Z11workerBodyAPv
  96              	_Z11workerBodyAPv:
  97              	.LFB23:
  19:src/workers.cpp **** 
  20:src/workers.cpp **** void workerBodyA(void* arg)
  21:src/workers.cpp **** {
  98              		.loc 1 21 1 is_stmt 1
  99              		.cfi_startproc
 100              	.LVL7:
 101 0070 130101FE 		addi	sp,sp,-32
 102              		.cfi_def_cfa_offset 32
 103 0074 233C1100 		sd	ra,24(sp)
 104 0078 23388100 		sd	s0,16(sp)
 105 007c 23349100 		sd	s1,8(sp)
 106 0080 23302101 		sd	s2,0(sp)
 107              		.cfi_offset 1, -8
 108              		.cfi_offset 8, -16
 109              		.cfi_offset 9, -24
 110              		.cfi_offset 18, -32
 111 0084 13040102 		addi	s0,sp,32
 112              		.cfi_def_cfa 8, 0
  22:src/workers.cpp ****     uint8 i = 0;
 113              		.loc 1 22 5
 114              	.LVL8:
 115              		.loc 1 22 11 is_stmt 0
 116 0088 93040000 		li	s1,0
 117 008c 6F008003 		j	.L9
 118              	.LVL9:
 119              	.L13:
  23:src/workers.cpp ****     for (; i < 3; i++)
  24:src/workers.cpp ****     {
  25:src/workers.cpp ****         printString("A: i=");
 120              		.loc 1 25 9 is_stmt 1 discriminator 1
 121              		.loc 1 25 20 is_stmt 0 discriminator 1
 122 0090 17050000 		lla	a0,.LC0
 122      13050500 
 123 0098 97000000 		call	_Z11printStringPKc@plt
 123      E7800000 
 124              	.LVL10:
  26:src/workers.cpp ****         printInteger(i);
 125              		.loc 1 26 9 is_stmt 1 discriminator 1
 126              		.loc 1 26 21 is_stmt 0 discriminator 1
 127 00a0 13850400 		mv	a0,s1
 128 00a4 97000000 		call	_Z12printIntegerm@plt
 128      E7800000 
 129              	.LVL11:
  27:src/workers.cpp ****         printString("\n");
 130              		.loc 1 27 9 is_stmt 1 discriminator 1
GAS LISTING /tmp/ccjtBBYr.s 			page 4


 131              		.loc 1 27 20 is_stmt 0 discriminator 1
 132 00ac 17050000 		lla	a0,.LC1
 132      13050500 
 133 00b4 97000000 		call	_Z11printStringPKc@plt
 133      E7800000 
 134              	.LVL12:
  23:src/workers.cpp ****     for (; i < 3; i++)
 135              		.loc 1 23 5 is_stmt 1 discriminator 1
 136 00bc 9B841400 		addiw	s1,s1,1
 137              	.LVL13:
 138 00c0 93F4F40F 		andi	s1,s1,0xff
 139              	.LVL14:
 140              	.L9:
  23:src/workers.cpp ****     for (; i < 3; i++)
 141              		.loc 1 23 5 discriminator 2
  23:src/workers.cpp ****     for (; i < 3; i++)
 142              		.loc 1 23 14 discriminator 2
 143 00c4 93072000 		li	a5,2
 144 00c8 E3F497FC 		bleu	s1,a5,.L13
  28:src/workers.cpp ****     }
  29:src/workers.cpp **** 
  30:src/workers.cpp ****     printString("A: yield\n");
 145              		.loc 1 30 5
 146              		.loc 1 30 16 is_stmt 0
 147 00cc 17050000 		lla	a0,.LC2
 147      13050500 
 148 00d4 97000000 		call	_Z11printStringPKc@plt
 148      E7800000 
 149              	.LVL15:
  31:src/workers.cpp ****     __asm__ ("li t1, 7");
 150              		.loc 1 31 5 is_stmt 1
 151              		.loc 1 31 25 is_stmt 0
 152              	#APP
 153              	# 31 "src/workers.cpp" 1
  32              	    thread_dispatch();
 154              		li t1, 7
 155              	# 0 "" 2
 156              		.loc 1 32 5 is_stmt 1
 157              		.loc 1 32 20 is_stmt 0
 158              	#NO_APP
 159 00e0 97000000 		call	_Z15thread_dispatchv@plt
 159      E7800000 
 160              	.LVL16:
  33:src/workers.cpp **** 
  34:src/workers.cpp ****     uint64 t1 = 0;
 161              		.loc 1 34 5 is_stmt 1
  35:src/workers.cpp ****     __asm__ ("mv %[t1], t1" : [t1] "=r"(t1));
 162              		.loc 1 35 5
 163              		.loc 1 35 45 is_stmt 0
 164              	#APP
 165              	# 35 "src/workers.cpp" 1
  36              	
 166              		mv s2, t1
 167              	# 0 "" 2
 168              	.LVL17:
  37:src/workers.cpp ****     printString("A: t1=");
 169              		.loc 1 37 5 is_stmt 1
GAS LISTING /tmp/ccjtBBYr.s 			page 5


 170              		.loc 1 37 16 is_stmt 0
 171              	#NO_APP
 172 00ec 17050000 		lla	a0,.LC3
 172      13050500 
 173 00f4 97000000 		call	_Z11printStringPKc@plt
 173      E7800000 
 174              	.LVL18:
  38:src/workers.cpp ****     printInteger(t1);
 175              		.loc 1 38 5 is_stmt 1
 176              		.loc 1 38 17 is_stmt 0
 177 00fc 13050900 		mv	a0,s2
 178 0100 97000000 		call	_Z12printIntegerm@plt
 178      E7800000 
 179              	.LVL19:
  39:src/workers.cpp ****     printString("\n");
 180              		.loc 1 39 5 is_stmt 1
 181              		.loc 1 39 16 is_stmt 0
 182 0108 17050000 		lla	a0,.LC1
 182      13050500 
 183 0110 97000000 		call	_Z11printStringPKc@plt
 183      E7800000 
 184              	.LVL20:
  40:src/workers.cpp **** 
  41:src/workers.cpp **** 
  42:src/workers.cpp **** 
  43:src/workers.cpp ****     uint64 result = fibonacci(20);
 185              		.loc 1 43 5 is_stmt 1
 186              		.loc 1 43 30 is_stmt 0
 187 0118 13054001 		li	a0,20
 188 011c 97000000 		call	_ZL9fibonaccim
 188      E7800000 
 189              	.LVL21:
 190 0124 13090500 		mv	s2,a0
 191              	.LVL22:
  44:src/workers.cpp ****     printString("A: fibonaci=");
 192              		.loc 1 44 5 is_stmt 1
 193              		.loc 1 44 16 is_stmt 0
 194 0128 17050000 		lla	a0,.LC4
 194      13050500 
 195              	.LVL23:
 196 0130 97000000 		call	_Z11printStringPKc@plt
 196      E7800000 
 197              	.LVL24:
  45:src/workers.cpp ****     printInteger(result);
 198              		.loc 1 45 5 is_stmt 1
 199              		.loc 1 45 17 is_stmt 0
 200 0138 13050900 		mv	a0,s2
 201 013c 97000000 		call	_Z12printIntegerm@plt
 201      E7800000 
 202              	.LVL25:
  46:src/workers.cpp ****     printString("\n");
 203              		.loc 1 46 5 is_stmt 1
 204              		.loc 1 46 16 is_stmt 0
 205 0144 17050000 		lla	a0,.LC1
 205      13050500 
 206 014c 97000000 		call	_Z11printStringPKc@plt
 206      E7800000 
GAS LISTING /tmp/ccjtBBYr.s 			page 6


 207              	.LVL26:
 208 0154 6F008003 		j	.L11
 209              	.L14:
  47:src/workers.cpp **** 
  48:src/workers.cpp ****     for (; i < 6; i++)
  49:src/workers.cpp ****     {
  50:src/workers.cpp ****         printString("A: i=");
 210              		.loc 1 50 9 is_stmt 1 discriminator 1
 211              		.loc 1 50 20 is_stmt 0 discriminator 1
 212 0158 17050000 		lla	a0,.LC0
 212      13050500 
 213 0160 97000000 		call	_Z11printStringPKc@plt
 213      E7800000 
 214              	.LVL27:
  51:src/workers.cpp ****         printInteger(i);
 215              		.loc 1 51 9 is_stmt 1 discriminator 1
 216              		.loc 1 51 21 is_stmt 0 discriminator 1
 217 0168 13850400 		mv	a0,s1
 218 016c 97000000 		call	_Z12printIntegerm@plt
 218      E7800000 
 219              	.LVL28:
  52:src/workers.cpp ****         printString("\n");
 220              		.loc 1 52 9 is_stmt 1 discriminator 1
 221              		.loc 1 52 20 is_stmt 0 discriminator 1
 222 0174 17050000 		lla	a0,.LC1
 222      13050500 
 223 017c 97000000 		call	_Z11printStringPKc@plt
 223      E7800000 
 224              	.LVL29:
  48:src/workers.cpp ****     {
 225              		.loc 1 48 5 is_stmt 1 discriminator 1
 226 0184 9B841400 		addiw	s1,s1,1
 227              	.LVL30:
 228 0188 93F4F40F 		andi	s1,s1,0xff
 229              	.LVL31:
 230              	.L11:
  48:src/workers.cpp ****     {
 231              		.loc 1 48 5 discriminator 2
  48:src/workers.cpp ****     {
 232              		.loc 1 48 14 discriminator 2
 233 018c 93075000 		li	a5,5
 234 0190 E3F497FC 		bleu	s1,a5,.L14
  53:src/workers.cpp ****     }
  54:src/workers.cpp **** 
  55:src/workers.cpp ****     thread_dispatch();
 235              		.loc 1 55 5
 236              		.loc 1 55 20 is_stmt 0
 237 0194 97000000 		call	_Z15thread_dispatchv@plt
 237      E7800000 
 238              	.LVL32:
  56:src/workers.cpp **** }
 239              		.loc 1 56 1
 240 019c 83308101 		ld	ra,24(sp)
 241              		.cfi_restore 1
 242 01a0 03340101 		ld	s0,16(sp)
 243              		.cfi_restore 8
 244              		.cfi_def_cfa 2, 32
GAS LISTING /tmp/ccjtBBYr.s 			page 7


 245 01a4 83348100 		ld	s1,8(sp)
 246              		.cfi_restore 9
 247              	.LVL33:
 248 01a8 03390100 		ld	s2,0(sp)
 249              		.cfi_restore 18
 250              	.LVL34:
 251 01ac 13010102 		addi	sp,sp,32
 252              		.cfi_def_cfa_offset 0
 253 01b0 67800000 		jr	ra
 254              		.cfi_endproc
 255              	.LFE23:
 257              		.section	.rodata.str1.8
 258 0035 000000   		.align	3
 259              	.LC5:
 260 0038 423A2069 		.string	"B: i="
 260      3D00
 261 003e 0000     		.align	3
 262              	.LC6:
 263 0040 423A2079 		.string	"B: yield\n"
 263      69656C64 
 263      0A00
 264 004a 00000000 		.align	3
 264      0000
 265              	.LC7:
 266 0050 423A2066 		.string	"B: fibonaci="
 266      69626F6E 
 266      6163693D 
 266      00
 267              		.text
 268              		.align	2
 269              		.globl	_Z11workerBodyBPv
 271              	_Z11workerBodyBPv:
 272              	.LFB24:
  57:src/workers.cpp **** 
  58:src/workers.cpp **** void workerBodyB(void* arg)
  59:src/workers.cpp **** {
 273              		.loc 1 59 1 is_stmt 1
 274              		.cfi_startproc
 275              	.LVL35:
 276 01b4 130101FE 		addi	sp,sp,-32
 277              		.cfi_def_cfa_offset 32
 278 01b8 233C1100 		sd	ra,24(sp)
 279 01bc 23388100 		sd	s0,16(sp)
 280 01c0 23349100 		sd	s1,8(sp)
 281 01c4 23302101 		sd	s2,0(sp)
 282              		.cfi_offset 1, -8
 283              		.cfi_offset 8, -16
 284              		.cfi_offset 9, -24
 285              		.cfi_offset 18, -32
 286 01c8 13040102 		addi	s0,sp,32
 287              		.cfi_def_cfa 8, 0
  60:src/workers.cpp ****     uint8 i = 10;
 288              		.loc 1 60 5
 289              	.LVL36:
  61:src/workers.cpp ****     thread_join((thread_t) arg);
 290              		.loc 1 61 5
 291              		.loc 1 61 16 is_stmt 0
GAS LISTING /tmp/ccjtBBYr.s 			page 8


 292 01cc 97000000 		call	_Z11thread_joinP3TCB@plt
 292      E7800000 
 293              	.LVL37:
  60:src/workers.cpp ****     uint8 i = 10;
 294              		.loc 1 60 11
 295 01d4 9304A000 		li	s1,10
 296 01d8 6F008003 		j	.L17
 297              	.LVL38:
 298              	.L21:
  62:src/workers.cpp ****     for (; i < 13; i++)
  63:src/workers.cpp ****     {
  64:src/workers.cpp ****         printString("B: i=");
 299              		.loc 1 64 9 is_stmt 1 discriminator 1
 300              		.loc 1 64 20 is_stmt 0 discriminator 1
 301 01dc 17050000 		lla	a0,.LC5
 301      13050500 
 302 01e4 97000000 		call	_Z11printStringPKc@plt
 302      E7800000 
 303              	.LVL39:
  65:src/workers.cpp ****         printInteger(i);
 304              		.loc 1 65 9 is_stmt 1 discriminator 1
 305              		.loc 1 65 21 is_stmt 0 discriminator 1
 306 01ec 13850400 		mv	a0,s1
 307 01f0 97000000 		call	_Z12printIntegerm@plt
 307      E7800000 
 308              	.LVL40:
  66:src/workers.cpp ****         printString("\n");
 309              		.loc 1 66 9 is_stmt 1 discriminator 1
 310              		.loc 1 66 20 is_stmt 0 discriminator 1
 311 01f8 17050000 		lla	a0,.LC1
 311      13050500 
 312 0200 97000000 		call	_Z11printStringPKc@plt
 312      E7800000 
 313              	.LVL41:
  62:src/workers.cpp ****     for (; i < 13; i++)
 314              		.loc 1 62 5 is_stmt 1 discriminator 1
 315 0208 9B841400 		addiw	s1,s1,1
 316              	.LVL42:
 317 020c 93F4F40F 		andi	s1,s1,0xff
 318              	.LVL43:
 319              	.L17:
  62:src/workers.cpp ****     for (; i < 13; i++)
 320              		.loc 1 62 5 discriminator 2
  62:src/workers.cpp ****     for (; i < 13; i++)
 321              		.loc 1 62 14 discriminator 2
 322 0210 9307C000 		li	a5,12
 323 0214 E3F497FC 		bleu	s1,a5,.L21
  67:src/workers.cpp ****     }
  68:src/workers.cpp **** 
  69:src/workers.cpp ****     printString("B: yield\n");
 324              		.loc 1 69 5
 325              		.loc 1 69 16 is_stmt 0
 326 0218 17050000 		lla	a0,.LC6
 326      13050500 
 327 0220 97000000 		call	_Z11printStringPKc@plt
 327      E7800000 
 328              	.LVL44:
GAS LISTING /tmp/ccjtBBYr.s 			page 9


  70:src/workers.cpp ****     __asm__ ("li t1, 5");
 329              		.loc 1 70 5 is_stmt 1
 330              		.loc 1 70 25 is_stmt 0
 331              	#APP
 332              	# 70 "src/workers.cpp" 1
  71              	    thread_dispatch();
 333              		li t1, 5
 334              	# 0 "" 2
 335              		.loc 1 71 5 is_stmt 1
 336              		.loc 1 71 20 is_stmt 0
 337              	#NO_APP
 338 022c 97000000 		call	_Z15thread_dispatchv@plt
 338      E7800000 
 339              	.LVL45:
  72:src/workers.cpp **** 
  73:src/workers.cpp **** 
  74:src/workers.cpp ****     uint64 result = fibonacci(23);
 340              		.loc 1 74 5 is_stmt 1
 341              		.loc 1 74 30 is_stmt 0
 342 0234 13057001 		li	a0,23
 343 0238 97000000 		call	_ZL9fibonaccim
 343      E7800000 
 344              	.LVL46:
 345 0240 13090500 		mv	s2,a0
 346              	.LVL47:
  75:src/workers.cpp ****     printString("B: fibonaci=");
 347              		.loc 1 75 5 is_stmt 1
 348              		.loc 1 75 16 is_stmt 0
 349 0244 17050000 		lla	a0,.LC7
 349      13050500 
 350              	.LVL48:
 351 024c 97000000 		call	_Z11printStringPKc@plt
 351      E7800000 
 352              	.LVL49:
  76:src/workers.cpp ****     printInteger(result);
 353              		.loc 1 76 5 is_stmt 1
 354              		.loc 1 76 17 is_stmt 0
 355 0254 13050900 		mv	a0,s2
 356 0258 97000000 		call	_Z12printIntegerm@plt
 356      E7800000 
 357              	.LVL50:
  77:src/workers.cpp ****     printString("\n");
 358              		.loc 1 77 5 is_stmt 1
 359              		.loc 1 77 16 is_stmt 0
 360 0260 17050000 		lla	a0,.LC1
 360      13050500 
 361 0268 97000000 		call	_Z11printStringPKc@plt
 361      E7800000 
 362              	.LVL51:
 363 0270 6F008003 		j	.L19
 364              	.L22:
  78:src/workers.cpp **** 
  79:src/workers.cpp ****     for (; i < 16; i++)
  80:src/workers.cpp ****     {
  81:src/workers.cpp ****         printString("B: i=");
 365              		.loc 1 81 9 is_stmt 1 discriminator 1
 366              		.loc 1 81 20 is_stmt 0 discriminator 1
GAS LISTING /tmp/ccjtBBYr.s 			page 10


 367 0274 17050000 		lla	a0,.LC5
 367      13050500 
 368 027c 97000000 		call	_Z11printStringPKc@plt
 368      E7800000 
 369              	.LVL52:
  82:src/workers.cpp ****         printInteger(i);
 370              		.loc 1 82 9 is_stmt 1 discriminator 1
 371              		.loc 1 82 21 is_stmt 0 discriminator 1
 372 0284 13850400 		mv	a0,s1
 373 0288 97000000 		call	_Z12printIntegerm@plt
 373      E7800000 
 374              	.LVL53:
  83:src/workers.cpp ****         printString("\n");
 375              		.loc 1 83 9 is_stmt 1 discriminator 1
 376              		.loc 1 83 20 is_stmt 0 discriminator 1
 377 0290 17050000 		lla	a0,.LC1
 377      13050500 
 378 0298 97000000 		call	_Z11printStringPKc@plt
 378      E7800000 
 379              	.LVL54:
  79:src/workers.cpp ****     {
 380              		.loc 1 79 5 is_stmt 1 discriminator 1
 381 02a0 9B841400 		addiw	s1,s1,1
 382              	.LVL55:
 383 02a4 93F4F40F 		andi	s1,s1,0xff
 384              	.LVL56:
 385              	.L19:
  79:src/workers.cpp ****     {
 386              		.loc 1 79 5 discriminator 2
  79:src/workers.cpp ****     {
 387              		.loc 1 79 14 discriminator 2
 388 02a8 9307F000 		li	a5,15
 389 02ac E3F497FC 		bleu	s1,a5,.L22
  84:src/workers.cpp ****     }
  85:src/workers.cpp **** 
  86:src/workers.cpp ****     thread_dispatch();
 390              		.loc 1 86 5
 391              		.loc 1 86 20 is_stmt 0
 392 02b0 97000000 		call	_Z15thread_dispatchv@plt
 392      E7800000 
 393              	.LVL57:
  87:src/workers.cpp **** }
 394              		.loc 1 87 1
 395 02b8 83308101 		ld	ra,24(sp)
 396              		.cfi_restore 1
 397 02bc 03340101 		ld	s0,16(sp)
 398              		.cfi_restore 8
 399              		.cfi_def_cfa 2, 32
 400 02c0 83348100 		ld	s1,8(sp)
 401              		.cfi_restore 9
 402              	.LVL58:
 403 02c4 03390100 		ld	s2,0(sp)
 404              		.cfi_restore 18
 405              	.LVL59:
 406 02c8 13010102 		addi	sp,sp,32
 407              		.cfi_def_cfa_offset 0
 408 02cc 67800000 		jr	ra
GAS LISTING /tmp/ccjtBBYr.s 			page 11


 409              		.cfi_endproc
 410              	.LFE24:
 412              		.section	.rodata.str1.8
 413 005d 000000   		.align	3
 414              	.LC8:
 415 0060 433A2070 		.string	"C: poziva se dispatch1.\n"
 415      6F7A6976 
 415      61207365 
 415      20646973 
 415      70617463 
 416 0079 00000000 		.align	3
 416      000000
 417              	.LC9:
 418 0080 433A2070 		.string	"C: poziva se dispatch2..\n"
 418      6F7A6976 
 418      61207365 
 418      20646973 
 418      70617463 
 419 009a 00000000 		.align	3
 419      0000
 420              	.LC10:
 421 00a0 433A2070 		.string	"C: poziva se dispatch3...\n"
 421      6F7A6976 
 421      61207365 
 421      20646973 
 421      70617463 
 422 00bb 00000000 		.align	3
 422      00
 423              	.LC11:
 424 00c0 433A2070 		.string	"C: poziva se dispatch4....\n"
 424      6F7A6976 
 424      61207365 
 424      20646973 
 424      70617463 
 425 00dc 00000000 		.align	3
 426              	.LC12:
 427 00e0 433A2053 		.string	"C: Signal semafora!\n"
 427      69676E61 
 427      6C207365 
 427      6D61666F 
 427      7261210A 
 428 00f5 000000   		.align	3
 429              	.LC13:
 430 00f8 433A2070 		.string	"C: posle signala..\n"
 430      6F736C65 
 430      20736967 
 430      6E616C61 
 430      2E2E0A00 
 431 010c 00000000 		.align	3
 432              	.LC14:
 433 0110 433A2070 		.string	"C: posle signala.2.\n"
 433      6F736C65 
 433      20736967 
 433      6E616C61 
 433      2E322E0A 
 434              		.text
 435              		.align	2
GAS LISTING /tmp/ccjtBBYr.s 			page 12


 436              		.globl	_Z11workerBodyCPv
 438              	_Z11workerBodyCPv:
 439              	.LFB25:
  88:src/workers.cpp **** 
  89:src/workers.cpp **** //test semafora
  90:src/workers.cpp **** void workerBodyC(void* arg) {
 440              		.loc 1 90 29 is_stmt 1
 441              		.cfi_startproc
 442              	.LVL60:
 443 02d0 130101FE 		addi	sp,sp,-32
 444              		.cfi_def_cfa_offset 32
 445 02d4 233C1100 		sd	ra,24(sp)
 446 02d8 23388100 		sd	s0,16(sp)
 447 02dc 23349100 		sd	s1,8(sp)
 448              		.cfi_offset 1, -8
 449              		.cfi_offset 8, -16
 450              		.cfi_offset 9, -24
 451 02e0 13040102 		addi	s0,sp,32
 452              		.cfi_def_cfa 8, 0
 453 02e4 93040500 		mv	s1,a0
  91:src/workers.cpp ****     printString("C: poziva se dispatch1.\n");
 454              		.loc 1 91 5
 455              		.loc 1 91 16 is_stmt 0
 456 02e8 17050000 		lla	a0,.LC8
 456      13050500 
 457              	.LVL61:
 458 02f0 97000000 		call	_Z11printStringPKc@plt
 458      E7800000 
 459              	.LVL62:
  92:src/workers.cpp ****     thread_dispatch();
 460              		.loc 1 92 5 is_stmt 1
 461              		.loc 1 92 20 is_stmt 0
 462 02f8 97000000 		call	_Z15thread_dispatchv@plt
 462      E7800000 
 463              	.LVL63:
  93:src/workers.cpp ****     printString("C: poziva se dispatch2..\n");
 464              		.loc 1 93 5 is_stmt 1
 465              		.loc 1 93 16 is_stmt 0
 466 0300 17050000 		lla	a0,.LC9
 466      13050500 
 467 0308 97000000 		call	_Z11printStringPKc@plt
 467      E7800000 
 468              	.LVL64:
  94:src/workers.cpp ****     thread_dispatch();
 469              		.loc 1 94 5 is_stmt 1
 470              		.loc 1 94 20 is_stmt 0
 471 0310 97000000 		call	_Z15thread_dispatchv@plt
 471      E7800000 
 472              	.LVL65:
  95:src/workers.cpp ****     printString("C: poziva se dispatch3...\n");
 473              		.loc 1 95 5 is_stmt 1
 474              		.loc 1 95 16 is_stmt 0
 475 0318 17050000 		lla	a0,.LC10
 475      13050500 
 476 0320 97000000 		call	_Z11printStringPKc@plt
 476      E7800000 
 477              	.LVL66:
GAS LISTING /tmp/ccjtBBYr.s 			page 13


  96:src/workers.cpp ****     thread_dispatch();
 478              		.loc 1 96 5 is_stmt 1
 479              		.loc 1 96 20 is_stmt 0
 480 0328 97000000 		call	_Z15thread_dispatchv@plt
 480      E7800000 
 481              	.LVL67:
  97:src/workers.cpp ****     printString("C: poziva se dispatch4....\n");
 482              		.loc 1 97 5 is_stmt 1
 483              		.loc 1 97 16 is_stmt 0
 484 0330 17050000 		lla	a0,.LC11
 484      13050500 
 485 0338 97000000 		call	_Z11printStringPKc@plt
 485      E7800000 
 486              	.LVL68:
  98:src/workers.cpp ****     printString("C: Signal semafora!\n");
 487              		.loc 1 98 5 is_stmt 1
 488              		.loc 1 98 16 is_stmt 0
 489 0340 17050000 		lla	a0,.LC12
 489      13050500 
 490 0348 97000000 		call	_Z11printStringPKc@plt
 490      E7800000 
 491              	.LVL69:
  99:src/workers.cpp ****     sem_close((sem_t) arg);
 492              		.loc 1 99 5 is_stmt 1
 493              		.loc 1 99 14 is_stmt 0
 494 0350 13850400 		mv	a0,s1
 495 0354 97000000 		call	_Z9sem_closeP11MySemaphore@plt
 495      E7800000 
 496              	.LVL70:
 100:src/workers.cpp ****     thread_dispatch();
 497              		.loc 1 100 5 is_stmt 1
 498              		.loc 1 100 20 is_stmt 0
 499 035c 97000000 		call	_Z15thread_dispatchv@plt
 499      E7800000 
 500              	.LVL71:
 101:src/workers.cpp ****     printString("C: posle signala..\n");
 501              		.loc 1 101 5 is_stmt 1
 502              		.loc 1 101 16 is_stmt 0
 503 0364 17050000 		lla	a0,.LC13
 503      13050500 
 504 036c 97000000 		call	_Z11printStringPKc@plt
 504      E7800000 
 505              	.LVL72:
 102:src/workers.cpp ****     printString("C: posle signala.2.\n");
 506              		.loc 1 102 5 is_stmt 1
 507              		.loc 1 102 16 is_stmt 0
 508 0374 17050000 		lla	a0,.LC14
 508      13050500 
 509 037c 97000000 		call	_Z11printStringPKc@plt
 509      E7800000 
 510              	.LVL73:
 103:src/workers.cpp **** }
 511              		.loc 1 103 1
 512 0384 83308101 		ld	ra,24(sp)
 513              		.cfi_restore 1
 514 0388 03340101 		ld	s0,16(sp)
 515              		.cfi_restore 8
GAS LISTING /tmp/ccjtBBYr.s 			page 14


 516              		.cfi_def_cfa 2, 32
 517 038c 83348100 		ld	s1,8(sp)
 518              		.cfi_restore 9
 519              	.LVL74:
 520 0390 13010102 		addi	sp,sp,32
 521              		.cfi_def_cfa_offset 0
 522 0394 67800000 		jr	ra
 523              		.cfi_endproc
 524              	.LFE25:
 526              		.section	.rodata.str1.8
 527 0125 000000   		.align	3
 528              	.LC15:
 529 0128 443A2055 		.string	"D: Usli smo u D 1. put\n"
 529      736C6920 
 529      736D6F20 
 529      75204420 
 529      312E2070 
 530              		.align	3
 531              	.LC16:
 532 0140 443A2043 		.string	"D: Cekamo na semaforu..\n"
 532      656B616D 
 532      6F206E61 
 532      2073656D 
 532      61666F72 
 533 0159 00000000 		.align	3
 533      000000
 534              	.LC17:
 535 0160 443A2072 		.string	"D: rezultat: "
 535      657A756C 
 535      7461743A 
 535      2000
 536 016e 0000     		.align	3
 537              	.LC18:
 538 0170 0A443A20 		.string	"\nD: izlazim automatski, pozdrav!\n"
 538      697A6C61 
 538      7A696D20 
 538      6175746F 
 538      6D617473 
 539              		.text
 540              		.align	2
 541              		.globl	_Z11workerBodyDPv
 543              	_Z11workerBodyDPv:
 544              	.LFB26:
 104:src/workers.cpp **** 
 105:src/workers.cpp **** 
 106:src/workers.cpp **** void workerBodyD(void *arg) {
 545              		.loc 1 106 29 is_stmt 1
 546              		.cfi_startproc
 547              	.LVL75:
 548 0398 130101FE 		addi	sp,sp,-32
 549              		.cfi_def_cfa_offset 32
 550 039c 233C1100 		sd	ra,24(sp)
 551 03a0 23388100 		sd	s0,16(sp)
 552 03a4 23349100 		sd	s1,8(sp)
 553              		.cfi_offset 1, -8
 554              		.cfi_offset 8, -16
 555              		.cfi_offset 9, -24
GAS LISTING /tmp/ccjtBBYr.s 			page 15


 556 03a8 13040102 		addi	s0,sp,32
 557              		.cfi_def_cfa 8, 0
 558 03ac 93040500 		mv	s1,a0
 107:src/workers.cpp ****     printString("D: Usli smo u D 1. put\n");
 559              		.loc 1 107 5
 560              		.loc 1 107 16 is_stmt 0
 561 03b0 17050000 		lla	a0,.LC15
 561      13050500 
 562              	.LVL76:
 563 03b8 97000000 		call	_Z11printStringPKc@plt
 563      E7800000 
 564              	.LVL77:
 108:src/workers.cpp ****     printString("D: Cekamo na semaforu..\n");
 565              		.loc 1 108 5 is_stmt 1
 566              		.loc 1 108 16 is_stmt 0
 567 03c0 17050000 		lla	a0,.LC16
 567      13050500 
 568 03c8 97000000 		call	_Z11printStringPKc@plt
 568      E7800000 
 569              	.LVL78:
 109:src/workers.cpp **** 
 110:src/workers.cpp ****     int returnValue = sem_wait((sem_t) arg);
 570              		.loc 1 110 5 is_stmt 1
 571              		.loc 1 110 31 is_stmt 0
 572 03d0 13850400 		mv	a0,s1
 573 03d4 97000000 		call	_Z8sem_waitP11MySemaphore@plt
 573      E7800000 
 574              	.LVL79:
 575 03dc 93040500 		mv	s1,a0
 576              	.LVL80:
 111:src/workers.cpp **** 
 112:src/workers.cpp ****     printString("D: rezultat: ");
 577              		.loc 1 112 5 is_stmt 1
 578              		.loc 1 112 16 is_stmt 0
 579 03e0 17050000 		lla	a0,.LC17
 579      13050500 
 580 03e8 97000000 		call	_Z11printStringPKc@plt
 580      E7800000 
 581              	.LVL81:
 113:src/workers.cpp ****     printInteger(returnValue);
 582              		.loc 1 113 5 is_stmt 1
 583              		.loc 1 113 17 is_stmt 0
 584 03f0 13850400 		mv	a0,s1
 585 03f4 97000000 		call	_Z12printIntegerm@plt
 585      E7800000 
 586              	.LVL82:
 114:src/workers.cpp ****     printString("\nD: izlazim automatski, pozdrav!\n");
 587              		.loc 1 114 5 is_stmt 1
 588              		.loc 1 114 16 is_stmt 0
 589 03fc 17050000 		lla	a0,.LC18
 589      13050500 
 590 0404 97000000 		call	_Z11printStringPKc@plt
 590      E7800000 
 591              	.LVL83:
 115:src/workers.cpp **** }...
 592              		.loc 1 115 1
 593 040c 83308101 		ld	ra,24(sp)
GAS LISTING /tmp/ccjtBBYr.s 			page 16


 594              		.cfi_restore 1
 595 0410 03340101 		ld	s0,16(sp)
 596              		.cfi_restore 8
 597              		.cfi_def_cfa 2, 32
 598 0414 83348100 		ld	s1,8(sp)
 599              		.cfi_restore 9
 600              	.LVL84:
 601 0418 13010102 		addi	sp,sp,32
 602              		.cfi_def_cfa_offset 0
 603 041c 67800000 		jr	ra
 604              		.cfi_endproc
 605              	.LFE26:
 607              	.Letext0:
 608              		.file 2 "src/../lib/hw.h"
 609              		.file 3 "src/../h/list.hpp"
 610              		.file 4 "src/../h/tcb.hpp"
 611              		.file 5 "src/../h/mySemaphore.hpp"
 612              		.file 6 "src/../h/syscall_c.hpp"
 613              		.file 7 "src/../h/print.hpp"
GAS LISTING /tmp/ccjtBBYr.s 			page 17


DEFINED SYMBOLS
                            *ABS*:0000000000000000 workers.cpp
     /tmp/ccjtBBYr.s:8      .text:0000000000000000 _ZL9fibonaccim
     /tmp/ccjtBBYr.s:12     .text:0000000000000000 .L0 
     /tmp/ccjtBBYr.s:14     .text:0000000000000000 .L0 
     /tmp/ccjtBBYr.s:15     .text:0000000000000004 .L0 
     /tmp/ccjtBBYr.s:20     .text:0000000000000014 .L0 
     /tmp/ccjtBBYr.s:21     .text:0000000000000014 .L0 
     /tmp/ccjtBBYr.s:22     .text:0000000000000014 .L0 
     /tmp/ccjtBBYr.s:23     .text:0000000000000014 .L0 
     /tmp/ccjtBBYr.s:25     .text:0000000000000018 .L0 
     /tmp/ccjtBBYr.s:28     .text:000000000000001c .L0 
     /tmp/ccjtBBYr.s:31     .text:0000000000000024 .L0 
     /tmp/ccjtBBYr.s:32     .text:0000000000000024 .L0 
     /tmp/ccjtBBYr.s:34     .text:0000000000000028 .L0 
     /tmp/ccjtBBYr.s:38     .text:000000000000002c .L0 
     /tmp/ccjtBBYr.s:39     .text:000000000000002c .L0 
     /tmp/ccjtBBYr.s:44     .text:000000000000003c .L0 
     /tmp/ccjtBBYr.s:48     .text:0000000000000048 .L0 
     /tmp/ccjtBBYr.s:51     .text:000000000000004c .L0 
     /tmp/ccjtBBYr.s:52     .text:0000000000000050 .L0 
     /tmp/ccjtBBYr.s:53     .text:0000000000000050 .L0 
     /tmp/ccjtBBYr.s:55     .text:0000000000000054 .L0 
     /tmp/ccjtBBYr.s:56     .text:0000000000000054 .L0 
     /tmp/ccjtBBYr.s:58     .text:0000000000000058 .L0 
     /tmp/ccjtBBYr.s:61     .text:000000000000005c .L0 
     /tmp/ccjtBBYr.s:63     .text:0000000000000060 .L0 
     /tmp/ccjtBBYr.s:67     .text:0000000000000064 .L0 
     /tmp/ccjtBBYr.s:69     .text:0000000000000064 .L0 
     /tmp/ccjtBBYr.s:70     .text:0000000000000064 .L0 
     /tmp/ccjtBBYr.s:73     .text:0000000000000070 .L0 
     /tmp/ccjtBBYr.s:96     .text:0000000000000070 _Z11workerBodyAPv
     /tmp/ccjtBBYr.s:99     .text:0000000000000070 .L0 
     /tmp/ccjtBBYr.s:101    .text:0000000000000070 .L0 
     /tmp/ccjtBBYr.s:102    .text:0000000000000074 .L0 
     /tmp/ccjtBBYr.s:107    .text:0000000000000084 .L0 
     /tmp/ccjtBBYr.s:108    .text:0000000000000084 .L0 
     /tmp/ccjtBBYr.s:109    .text:0000000000000084 .L0 
     /tmp/ccjtBBYr.s:110    .text:0000000000000084 .L0 
     /tmp/ccjtBBYr.s:112    .text:0000000000000088 .L0 
     /tmp/ccjtBBYr.s:115    .text:0000000000000088 .L0 
     /tmp/ccjtBBYr.s:116    .text:0000000000000088 .L0 
     /tmp/ccjtBBYr.s:121    .text:0000000000000090 .L0 
     /tmp/ccjtBBYr.s:122    .text:0000000000000090 .L0 
     /tmp/ccjtBBYr.s:126    .text:00000000000000a0 .L0 
     /tmp/ccjtBBYr.s:127    .text:00000000000000a0 .L0 
     /tmp/ccjtBBYr.s:131    .text:00000000000000ac .L0 
     /tmp/ccjtBBYr.s:132    .text:00000000000000ac .L0 
     /tmp/ccjtBBYr.s:136    .text:00000000000000bc .L0 
     /tmp/ccjtBBYr.s:142    .text:00000000000000c4 .L0 
     /tmp/ccjtBBYr.s:143    .text:00000000000000c4 .L0 
     /tmp/ccjtBBYr.s:146    .text:00000000000000cc .L0 
     /tmp/ccjtBBYr.s:147    .text:00000000000000cc .L0 
     /tmp/ccjtBBYr.s:151    .text:00000000000000dc .L0 
     src/workers.cpp:31     .text:00000000000000dc .L0 
     /tmp/ccjtBBYr.s:157    .text:00000000000000e0 .L0 
     /tmp/ccjtBBYr.s:159    .text:00000000000000e0 .L0 
GAS LISTING /tmp/ccjtBBYr.s 			page 18


     /tmp/ccjtBBYr.s:162    .text:00000000000000e8 .L0 
     /tmp/ccjtBBYr.s:163    .text:00000000000000e8 .L0 
     src/workers.cpp:35     .text:00000000000000e8 .L0 
     /tmp/ccjtBBYr.s:170    .text:00000000000000ec .L0 
     /tmp/ccjtBBYr.s:172    .text:00000000000000ec .L0 
     /tmp/ccjtBBYr.s:176    .text:00000000000000fc .L0 
     /tmp/ccjtBBYr.s:177    .text:00000000000000fc .L0 
     /tmp/ccjtBBYr.s:181    .text:0000000000000108 .L0 
     /tmp/ccjtBBYr.s:182    .text:0000000000000108 .L0 
     /tmp/ccjtBBYr.s:186    .text:0000000000000118 .L0 
     /tmp/ccjtBBYr.s:187    .text:0000000000000118 .L0 
     /tmp/ccjtBBYr.s:193    .text:0000000000000128 .L0 
     /tmp/ccjtBBYr.s:194    .text:0000000000000128 .L0 
     /tmp/ccjtBBYr.s:199    .text:0000000000000138 .L0 
     /tmp/ccjtBBYr.s:200    .text:0000000000000138 .L0 
     /tmp/ccjtBBYr.s:204    .text:0000000000000144 .L0 
     /tmp/ccjtBBYr.s:205    .text:0000000000000144 .L0 
     /tmp/ccjtBBYr.s:211    .text:0000000000000158 .L0 
     /tmp/ccjtBBYr.s:212    .text:0000000000000158 .L0 
     /tmp/ccjtBBYr.s:216    .text:0000000000000168 .L0 
     /tmp/ccjtBBYr.s:217    .text:0000000000000168 .L0 
     /tmp/ccjtBBYr.s:221    .text:0000000000000174 .L0 
     /tmp/ccjtBBYr.s:222    .text:0000000000000174 .L0 
     /tmp/ccjtBBYr.s:226    .text:0000000000000184 .L0 
     /tmp/ccjtBBYr.s:232    .text:000000000000018c .L0 
     /tmp/ccjtBBYr.s:233    .text:000000000000018c .L0 
     /tmp/ccjtBBYr.s:236    .text:0000000000000194 .L0 
     /tmp/ccjtBBYr.s:237    .text:0000000000000194 .L0 
     /tmp/ccjtBBYr.s:240    .text:000000000000019c .L0 
     /tmp/ccjtBBYr.s:241    .text:00000000000001a0 .L0 
     /tmp/ccjtBBYr.s:243    .text:00000000000001a4 .L0 
     /tmp/ccjtBBYr.s:244    .text:00000000000001a4 .L0 
     /tmp/ccjtBBYr.s:246    .text:00000000000001a8 .L0 
     /tmp/ccjtBBYr.s:249    .text:00000000000001ac .L0 
     /tmp/ccjtBBYr.s:252    .text:00000000000001b0 .L0 
     /tmp/ccjtBBYr.s:254    .text:00000000000001b4 .L0 
     /tmp/ccjtBBYr.s:271    .text:00000000000001b4 _Z11workerBodyBPv
     /tmp/ccjtBBYr.s:274    .text:00000000000001b4 .L0 
     /tmp/ccjtBBYr.s:276    .text:00000000000001b4 .L0 
     /tmp/ccjtBBYr.s:277    .text:00000000000001b8 .L0 
     /tmp/ccjtBBYr.s:282    .text:00000000000001c8 .L0 
     /tmp/ccjtBBYr.s:283    .text:00000000000001c8 .L0 
     /tmp/ccjtBBYr.s:284    .text:00000000000001c8 .L0 
     /tmp/ccjtBBYr.s:285    .text:00000000000001c8 .L0 
     /tmp/ccjtBBYr.s:287    .text:00000000000001cc .L0 
     /tmp/ccjtBBYr.s:290    .text:00000000000001cc .L0 
     /tmp/ccjtBBYr.s:291    .text:00000000000001cc .L0 
     /tmp/ccjtBBYr.s:292    .text:00000000000001cc .L0 
     /tmp/ccjtBBYr.s:295    .text:00000000000001d4 .L0 
     /tmp/ccjtBBYr.s:300    .text:00000000000001dc .L0 
     /tmp/ccjtBBYr.s:301    .text:00000000000001dc .L0 
     /tmp/ccjtBBYr.s:305    .text:00000000000001ec .L0 
     /tmp/ccjtBBYr.s:306    .text:00000000000001ec .L0 
     /tmp/ccjtBBYr.s:310    .text:00000000000001f8 .L0 
     /tmp/ccjtBBYr.s:311    .text:00000000000001f8 .L0 
     /tmp/ccjtBBYr.s:315    .text:0000000000000208 .L0 
     /tmp/ccjtBBYr.s:321    .text:0000000000000210 .L0 
GAS LISTING /tmp/ccjtBBYr.s 			page 19


     /tmp/ccjtBBYr.s:322    .text:0000000000000210 .L0 
     /tmp/ccjtBBYr.s:325    .text:0000000000000218 .L0 
     /tmp/ccjtBBYr.s:326    .text:0000000000000218 .L0 
     /tmp/ccjtBBYr.s:330    .text:0000000000000228 .L0 
     src/workers.cpp:70     .text:0000000000000228 .L0 
     /tmp/ccjtBBYr.s:336    .text:000000000000022c .L0 
     /tmp/ccjtBBYr.s:338    .text:000000000000022c .L0 
     /tmp/ccjtBBYr.s:341    .text:0000000000000234 .L0 
     /tmp/ccjtBBYr.s:342    .text:0000000000000234 .L0 
     /tmp/ccjtBBYr.s:348    .text:0000000000000244 .L0 
     /tmp/ccjtBBYr.s:349    .text:0000000000000244 .L0 
     /tmp/ccjtBBYr.s:354    .text:0000000000000254 .L0 
     /tmp/ccjtBBYr.s:355    .text:0000000000000254 .L0 
     /tmp/ccjtBBYr.s:359    .text:0000000000000260 .L0 
     /tmp/ccjtBBYr.s:360    .text:0000000000000260 .L0 
     /tmp/ccjtBBYr.s:366    .text:0000000000000274 .L0 
     /tmp/ccjtBBYr.s:367    .text:0000000000000274 .L0 
     /tmp/ccjtBBYr.s:371    .text:0000000000000284 .L0 
     /tmp/ccjtBBYr.s:372    .text:0000000000000284 .L0 
     /tmp/ccjtBBYr.s:376    .text:0000000000000290 .L0 
     /tmp/ccjtBBYr.s:377    .text:0000000000000290 .L0 
     /tmp/ccjtBBYr.s:381    .text:00000000000002a0 .L0 
     /tmp/ccjtBBYr.s:387    .text:00000000000002a8 .L0 
     /tmp/ccjtBBYr.s:388    .text:00000000000002a8 .L0 
     /tmp/ccjtBBYr.s:391    .text:00000000000002b0 .L0 
     /tmp/ccjtBBYr.s:392    .text:00000000000002b0 .L0 
     /tmp/ccjtBBYr.s:395    .text:00000000000002b8 .L0 
     /tmp/ccjtBBYr.s:396    .text:00000000000002bc .L0 
     /tmp/ccjtBBYr.s:398    .text:00000000000002c0 .L0 
     /tmp/ccjtBBYr.s:399    .text:00000000000002c0 .L0 
     /tmp/ccjtBBYr.s:401    .text:00000000000002c4 .L0 
     /tmp/ccjtBBYr.s:404    .text:00000000000002c8 .L0 
     /tmp/ccjtBBYr.s:407    .text:00000000000002cc .L0 
     /tmp/ccjtBBYr.s:409    .text:00000000000002d0 .L0 
     /tmp/ccjtBBYr.s:438    .text:00000000000002d0 _Z11workerBodyCPv
     /tmp/ccjtBBYr.s:441    .text:00000000000002d0 .L0 
     /tmp/ccjtBBYr.s:443    .text:00000000000002d0 .L0 
     /tmp/ccjtBBYr.s:444    .text:00000000000002d4 .L0 
     /tmp/ccjtBBYr.s:448    .text:00000000000002e0 .L0 
     /tmp/ccjtBBYr.s:449    .text:00000000000002e0 .L0 
     /tmp/ccjtBBYr.s:450    .text:00000000000002e0 .L0 
     /tmp/ccjtBBYr.s:452    .text:00000000000002e4 .L0 
     /tmp/ccjtBBYr.s:455    .text:00000000000002e8 .L0 
     /tmp/ccjtBBYr.s:456    .text:00000000000002e8 .L0 
     /tmp/ccjtBBYr.s:461    .text:00000000000002f8 .L0 
     /tmp/ccjtBBYr.s:462    .text:00000000000002f8 .L0 
     /tmp/ccjtBBYr.s:465    .text:0000000000000300 .L0 
     /tmp/ccjtBBYr.s:466    .text:0000000000000300 .L0 
     /tmp/ccjtBBYr.s:470    .text:0000000000000310 .L0 
     /tmp/ccjtBBYr.s:471    .text:0000000000000310 .L0 
     /tmp/ccjtBBYr.s:474    .text:0000000000000318 .L0 
     /tmp/ccjtBBYr.s:475    .text:0000000000000318 .L0 
     /tmp/ccjtBBYr.s:479    .text:0000000000000328 .L0 
     /tmp/ccjtBBYr.s:480    .text:0000000000000328 .L0 
     /tmp/ccjtBBYr.s:483    .text:0000000000000330 .L0 
     /tmp/ccjtBBYr.s:484    .text:0000000000000330 .L0 
     /tmp/ccjtBBYr.s:488    .text:0000000000000340 .L0 
GAS LISTING /tmp/ccjtBBYr.s 			page 20


     /tmp/ccjtBBYr.s:489    .text:0000000000000340 .L0 
     /tmp/ccjtBBYr.s:493    .text:0000000000000350 .L0 
     /tmp/ccjtBBYr.s:494    .text:0000000000000350 .L0 
     /tmp/ccjtBBYr.s:498    .text:000000000000035c .L0 
     /tmp/ccjtBBYr.s:499    .text:000000000000035c .L0 
     /tmp/ccjtBBYr.s:502    .text:0000000000000364 .L0 
     /tmp/ccjtBBYr.s:503    .text:0000000000000364 .L0 
     /tmp/ccjtBBYr.s:507    .text:0000000000000374 .L0 
     /tmp/ccjtBBYr.s:508    .text:0000000000000374 .L0 
     /tmp/ccjtBBYr.s:512    .text:0000000000000384 .L0 
     /tmp/ccjtBBYr.s:513    .text:0000000000000388 .L0 
     /tmp/ccjtBBYr.s:515    .text:000000000000038c .L0 
     /tmp/ccjtBBYr.s:516    .text:000000000000038c .L0 
     /tmp/ccjtBBYr.s:518    .text:0000000000000390 .L0 
     /tmp/ccjtBBYr.s:521    .text:0000000000000394 .L0 
     /tmp/ccjtBBYr.s:523    .text:0000000000000398 .L0 
     /tmp/ccjtBBYr.s:543    .text:0000000000000398 _Z11workerBodyDPv
     /tmp/ccjtBBYr.s:546    .text:0000000000000398 .L0 
     /tmp/ccjtBBYr.s:548    .text:0000000000000398 .L0 
     /tmp/ccjtBBYr.s:549    .text:000000000000039c .L0 
     /tmp/ccjtBBYr.s:553    .text:00000000000003a8 .L0 
     /tmp/ccjtBBYr.s:554    .text:00000000000003a8 .L0 
     /tmp/ccjtBBYr.s:555    .text:00000000000003a8 .L0 
     /tmp/ccjtBBYr.s:557    .text:00000000000003ac .L0 
     /tmp/ccjtBBYr.s:560    .text:00000000000003b0 .L0 
     /tmp/ccjtBBYr.s:561    .text:00000000000003b0 .L0 
     /tmp/ccjtBBYr.s:566    .text:00000000000003c0 .L0 
     /tmp/ccjtBBYr.s:567    .text:00000000000003c0 .L0 
     /tmp/ccjtBBYr.s:571    .text:00000000000003d0 .L0 
     /tmp/ccjtBBYr.s:572    .text:00000000000003d0 .L0 
     /tmp/ccjtBBYr.s:578    .text:00000000000003e0 .L0 
     /tmp/ccjtBBYr.s:579    .text:00000000000003e0 .L0 
     /tmp/ccjtBBYr.s:583    .text:00000000000003f0 .L0 
     /tmp/ccjtBBYr.s:584    .text:00000000000003f0 .L0 
     /tmp/ccjtBBYr.s:588    .text:00000000000003fc .L0 
     /tmp/ccjtBBYr.s:589    .text:00000000000003fc .L0 
     /tmp/ccjtBBYr.s:593    .text:000000000000040c .L0 
     /tmp/ccjtBBYr.s:594    .text:0000000000000410 .L0 
     /tmp/ccjtBBYr.s:596    .text:0000000000000414 .L0 
     /tmp/ccjtBBYr.s:597    .text:0000000000000414 .L0 
     /tmp/ccjtBBYr.s:599    .text:0000000000000418 .L0 
     /tmp/ccjtBBYr.s:602    .text:000000000000041c .L0 
     /tmp/ccjtBBYr.s:604    .text:0000000000000420 .L0 
     /tmp/ccjtBBYr.s:614    .text:0000000000000420 .L0 
     /tmp/ccjtBBYr.s:78     .rodata.str1.8:0000000000000000 .LC0
     /tmp/ccjtBBYr.s:122    .text:0000000000000090 .L0 
     /tmp/ccjtBBYr.s:81     .rodata.str1.8:0000000000000008 .LC1
     /tmp/ccjtBBYr.s:132    .text:00000000000000ac .L0 
     /tmp/ccjtBBYr.s:84     .rodata.str1.8:0000000000000010 .LC2
     /tmp/ccjtBBYr.s:147    .text:00000000000000cc .L0 
     /tmp/ccjtBBYr.s:87     .rodata.str1.8:0000000000000020 .LC3
     /tmp/ccjtBBYr.s:172    .text:00000000000000ec .L0 
     /tmp/ccjtBBYr.s:182    .text:0000000000000108 .L0 
     /tmp/ccjtBBYr.s:90     .rodata.str1.8:0000000000000028 .LC4
     /tmp/ccjtBBYr.s:194    .text:0000000000000128 .L0 
     /tmp/ccjtBBYr.s:205    .text:0000000000000144 .L0 
     /tmp/ccjtBBYr.s:212    .text:0000000000000158 .L0 
GAS LISTING /tmp/ccjtBBYr.s 			page 21


     /tmp/ccjtBBYr.s:222    .text:0000000000000174 .L0 
     /tmp/ccjtBBYr.s:259    .rodata.str1.8:0000000000000038 .LC5
     /tmp/ccjtBBYr.s:301    .text:00000000000001dc .L0 
     /tmp/ccjtBBYr.s:311    .text:00000000000001f8 .L0 
     /tmp/ccjtBBYr.s:262    .rodata.str1.8:0000000000000040 .LC6
     /tmp/ccjtBBYr.s:326    .text:0000000000000218 .L0 
     /tmp/ccjtBBYr.s:265    .rodata.str1.8:0000000000000050 .LC7
     /tmp/ccjtBBYr.s:349    .text:0000000000000244 .L0 
     /tmp/ccjtBBYr.s:360    .text:0000000000000260 .L0 
     /tmp/ccjtBBYr.s:367    .text:0000000000000274 .L0 
     /tmp/ccjtBBYr.s:377    .text:0000000000000290 .L0 
     /tmp/ccjtBBYr.s:414    .rodata.str1.8:0000000000000060 .LC8
     /tmp/ccjtBBYr.s:456    .text:00000000000002e8 .L0 
     /tmp/ccjtBBYr.s:417    .rodata.str1.8:0000000000000080 .LC9
     /tmp/ccjtBBYr.s:466    .text:0000000000000300 .L0 
     /tmp/ccjtBBYr.s:420    .rodata.str1.8:00000000000000a0 .LC10
     /tmp/ccjtBBYr.s:475    .text:0000000000000318 .L0 
     /tmp/ccjtBBYr.s:423    .rodata.str1.8:00000000000000c0 .LC11
     /tmp/ccjtBBYr.s:484    .text:0000000000000330 .L0 
     /tmp/ccjtBBYr.s:426    .rodata.str1.8:00000000000000e0 .LC12
     /tmp/ccjtBBYr.s:489    .text:0000000000000340 .L0 
     /tmp/ccjtBBYr.s:429    .rodata.str1.8:00000000000000f8 .LC13
     /tmp/ccjtBBYr.s:503    .text:0000000000000364 .L0 
     /tmp/ccjtBBYr.s:432    .rodata.str1.8:0000000000000110 .LC14
     /tmp/ccjtBBYr.s:508    .text:0000000000000374 .L0 
     /tmp/ccjtBBYr.s:528    .rodata.str1.8:0000000000000128 .LC15
     /tmp/ccjtBBYr.s:561    .text:00000000000003b0 .L0 
     /tmp/ccjtBBYr.s:531    .rodata.str1.8:0000000000000140 .LC16
     /tmp/ccjtBBYr.s:567    .text:00000000000003c0 .L0 
     /tmp/ccjtBBYr.s:534    .rodata.str1.8:0000000000000160 .LC17
     /tmp/ccjtBBYr.s:579    .text:00000000000003e0 .L0 
     /tmp/ccjtBBYr.s:537    .rodata.str1.8:0000000000000170 .LC18
     /tmp/ccjtBBYr.s:589    .text:00000000000003fc .L0 
     /tmp/ccjtBBYr.s:49     .text:000000000000004c .L1
     /tmp/ccjtBBYr.s:66     .text:0000000000000064 .L6
     /tmp/ccjtBBYr.s:36     .text:000000000000002c .L3
     /tmp/ccjtBBYr.s:140    .text:00000000000000c4 .L9
     /tmp/ccjtBBYr.s:119    .text:0000000000000090 .L13
     /tmp/ccjtBBYr.s:230    .text:000000000000018c .L11
     /tmp/ccjtBBYr.s:209    .text:0000000000000158 .L14
     /tmp/ccjtBBYr.s:319    .text:0000000000000210 .L17
     /tmp/ccjtBBYr.s:298    .text:00000000000001dc .L21
     /tmp/ccjtBBYr.s:385    .text:00000000000002a8 .L19
     /tmp/ccjtBBYr.s:364    .text:0000000000000274 .L22
     /tmp/ccjtBBYr.s:1955   .debug_abbrev:0000000000000000 .Ldebug_abbrev0
     /tmp/ccjtBBYr.s:3070   .debug_str:00000000000005a0 .LASF100
     /tmp/ccjtBBYr.s:2908   .debug_str:00000000000000e1 .LASF101
     /tmp/ccjtBBYr.s:3080   .debug_str:00000000000006a7 .LASF102
     /tmp/ccjtBBYr.s:5      .text:0000000000000000 .Ltext0
     /tmp/ccjtBBYr.s:607    .text:0000000000000420 .Letext0
     /tmp/ccjtBBYr.s:2872   .debug_line:0000000000000000 .Ldebug_line0
     /tmp/ccjtBBYr.s:3016   .debug_str:00000000000003ed .LASF0
     /tmp/ccjtBBYr.s:3026   .debug_str:0000000000000434 .LASF1
     /tmp/ccjtBBYr.s:3002   .debug_str:0000000000000388 .LASF2
     /tmp/ccjtBBYr.s:2926   .debug_str:0000000000000172 .LASF3
     /tmp/ccjtBBYr.s:2970   .debug_str:00000000000002de .LASF4
     /tmp/ccjtBBYr.s:3058   .debug_str:0000000000000546 .LASF5
GAS LISTING /tmp/ccjtBBYr.s 			page 22


     /tmp/ccjtBBYr.s:2894   .debug_str:0000000000000092 .LASF6
     /tmp/ccjtBBYr.s:3030   .debug_str:0000000000000459 .LASF7
     /tmp/ccjtBBYr.s:3014   .debug_str:00000000000003da .LASF8
     /tmp/ccjtBBYr.s:3084   .debug_str:00000000000006dc .LASF9
     /tmp/ccjtBBYr.s:2952   .debug_str:000000000000022e .LASF10
     /tmp/ccjtBBYr.s:3038   .debug_str:00000000000004aa .LASF11
     /tmp/ccjtBBYr.s:3074   .debug_str:0000000000000670 .LASF12
     /tmp/ccjtBBYr.s:2898   .debug_str:00000000000000a4 .LASF13
     /tmp/ccjtBBYr.s:2884   .debug_str:0000000000000047 .LASF14
     /tmp/ccjtBBYr.s:2906   .debug_str:00000000000000d5 .LASF15
     /tmp/ccjtBBYr.s:3054   .debug_str:000000000000052a .LASF16
     /tmp/ccjtBBYr.s:2916   .debug_str:0000000000000118 .LASF17
     /tmp/ccjtBBYr.s:2992   .debug_str:0000000000000361 .LASF35
     /tmp/ccjtBBYr.s:2994   .debug_str:000000000000036b .LASF103
     /tmp/ccjtBBYr.s:2920   .debug_str:0000000000000134 .LASF18
     /tmp/ccjtBBYr.s:2996   .debug_str:0000000000000370 .LASF19
     /tmp/ccjtBBYr.s:2968   .debug_str:00000000000002d9 .LASF20
     /tmp/ccjtBBYr.s:3066   .debug_str:0000000000000584 .LASF22
     /tmp/ccjtBBYr.s:3052   .debug_str:0000000000000513 .LASF27
     /tmp/ccjtBBYr.s:3010   .debug_str:00000000000003c4 .LASF104
     /tmp/ccjtBBYr.s:2958   .debug_str:0000000000000265 .LASF105
     /tmp/ccjtBBYr.s:3068   .debug_str:0000000000000597 .LASF21
     /tmp/ccjtBBYr.s:2924   .debug_str:0000000000000155 .LASF23
     /tmp/ccjtBBYr.s:2950   .debug_str:0000000000000226 .LASF24
     /tmp/ccjtBBYr.s:2922   .debug_str:0000000000000139 .LASF25
     /tmp/ccjtBBYr.s:3072   .debug_str:0000000000000664 .LASF26
     /tmp/ccjtBBYr.s:2878   .debug_str:0000000000000011 .LASF28
     /tmp/ccjtBBYr.s:2902   .debug_str:00000000000000b9 .LASF29
     /tmp/ccjtBBYr.s:2984   .debug_str:000000000000031a .LASF30
     /tmp/ccjtBBYr.s:3022   .debug_str:0000000000000409 .LASF31
     /tmp/ccjtBBYr.s:2890   .debug_str:0000000000000069 .LASF32
     /tmp/ccjtBBYr.s:2988   .debug_str:000000000000034a .LASF33
     /tmp/ccjtBBYr.s:3096   .debug_str:000000000000072c .LASF34
     /tmp/ccjtBBYr.s:2888   .debug_str:0000000000000061 .LASF106
     /tmp/ccjtBBYr.s:2962   .debug_str:0000000000000295 .LASF36
     /tmp/ccjtBBYr.s:3048   .debug_str:0000000000000502 .LASF37
     /tmp/ccjtBBYr.s:3032   .debug_str:000000000000046c .LASF38
     /tmp/ccjtBBYr.s:2912   .debug_str:00000000000000fa .LASF39
     /tmp/ccjtBBYr.s:3004   .debug_str:0000000000000396 .LASF40
     /tmp/ccjtBBYr.s:2964   .debug_str:000000000000029a .LASF41
     /tmp/ccjtBBYr.s:2886   .debug_str:0000000000000057 .LASF42
     /tmp/ccjtBBYr.s:2986   .debug_str:0000000000000335 .LASF43
     /tmp/ccjtBBYr.s:2974   .debug_str:00000000000002ec .LASF44
     /tmp/ccjtBBYr.s:3078   .debug_str:0000000000000691 .LASF45
     /tmp/ccjtBBYr.s:2982   .debug_str:000000000000030d .LASF46
     /tmp/ccjtBBYr.s:3024   .debug_str:0000000000000414 .LASF47
     /tmp/ccjtBBYr.s:3050   .debug_str:000000000000050e .LASF107
     /tmp/ccjtBBYr.s:3056   .debug_str:0000000000000540 .LASF108
     /tmp/ccjtBBYr.s:3008   .debug_str:00000000000003b4 .LASF109
     /tmp/ccjtBBYr.s:2932   .debug_str:000000000000018a .LASF110
     /tmp/ccjtBBYr.s:2954   .debug_str:000000000000023c .LASF111
     /tmp/ccjtBBYr.s:2978   .debug_str:0000000000000300 .LASF48
     /tmp/ccjtBBYr.s:3020   .debug_str:0000000000000403 .LASF49
     /tmp/ccjtBBYr.s:2980   .debug_str:0000000000000305 .LASF50
     /tmp/ccjtBBYr.s:2976   .debug_str:00000000000002f7 .LASF51
     /tmp/ccjtBBYr.s:2876   .debug_str:0000000000000009 .LASF52
     /tmp/ccjtBBYr.s:2990   .debug_str:0000000000000353 .LASF53
GAS LISTING /tmp/ccjtBBYr.s 			page 23


     /tmp/ccjtBBYr.s:2960   .debug_str:000000000000027c .LASF55
     /tmp/ccjtBBYr.s:3092   .debug_str:0000000000000715 .LASF57
     /tmp/ccjtBBYr.s:2966   .debug_str:00000000000002b1 .LASF59
     /tmp/ccjtBBYr.s:3018   .debug_str:00000000000003fa .LASF54
     /tmp/ccjtBBYr.s:2934   .debug_str:0000000000000192 .LASF56
     /tmp/ccjtBBYr.s:3060   .debug_str:0000000000000558 .LASF58
     /tmp/ccjtBBYr.s:3040   .debug_str:00000000000004b9 .LASF60
     /tmp/ccjtBBYr.s:2896   .debug_str:0000000000000099 .LASF112
     /tmp/ccjtBBYr.s:2936   .debug_str:00000000000001a5 .LASF61
     /tmp/ccjtBBYr.s:3046   .debug_str:00000000000004f6 .LASF62
     /tmp/ccjtBBYr.s:3082   .debug_str:00000000000006c7 .LASF63
     /tmp/ccjtBBYr.s:2900   .debug_str:00000000000000b4 .LASF64
     /tmp/ccjtBBYr.s:3034   .debug_str:0000000000000477 .LASF65
     /tmp/ccjtBBYr.s:2914   .debug_str:0000000000000111 .LASF66
     /tmp/ccjtBBYr.s:3042   .debug_str:00000000000004ca .LASF67
     /tmp/ccjtBBYr.s:3098   .debug_str:0000000000000746 .LASF68
     /tmp/ccjtBBYr.s:2938   .debug_str:00000000000001aa .LASF69
     /tmp/ccjtBBYr.s:3094   .debug_str:0000000000000723 .LASF70
     /tmp/ccjtBBYr.s:3062   .debug_str:000000000000055d .LASF71
     /tmp/ccjtBBYr.s:3090   .debug_str:000000000000070f .LASF72
     /tmp/ccjtBBYr.s:3088   .debug_str:00000000000006f6 .LASF73
     /tmp/ccjtBBYr.s:3000   .debug_str:0000000000000381 .LASF74
     /tmp/ccjtBBYr.s:2918   .debug_str:000000000000012e .LASF75
     /tmp/ccjtBBYr.s:2874   .debug_str:0000000000000000 .LASF76
     /tmp/ccjtBBYr.s:2930   .debug_str:0000000000000184 .LASF77
     /tmp/ccjtBBYr.s:2892   .debug_str:0000000000000086 .LASF78
     /tmp/ccjtBBYr.s:3006   .debug_str:00000000000003a2 .LASF79
     /tmp/ccjtBBYr.s:544    .text:0000000000000398 .LFB26
     /tmp/ccjtBBYr.s:605    .text:0000000000000420 .LFE26
     /tmp/ccjtBBYr.s:2696   .debug_loc:0000000000000000 .LLST9
     /tmp/ccjtBBYr.s:2998   .debug_str:0000000000000375 .LASF80
     /tmp/ccjtBBYr.s:2714   .debug_loc:000000000000004c .LLST10
     /tmp/ccjtBBYr.s:564    .text:00000000000003c0 .LVL77
     /tmp/ccjtBBYr.s:569    .text:00000000000003d0 .LVL78
     /tmp/ccjtBBYr.s:574    .text:00000000000003dc .LVL79
     /tmp/ccjtBBYr.s:581    .text:00000000000003f0 .LVL81
     /tmp/ccjtBBYr.s:586    .text:00000000000003fc .LVL82
     /tmp/ccjtBBYr.s:591    .text:000000000000040c .LVL83
     /tmp/ccjtBBYr.s:2882   .debug_str:000000000000003b .LASF81
     /tmp/ccjtBBYr.s:3028   .debug_str:0000000000000447 .LASF82
     /tmp/ccjtBBYr.s:439    .text:00000000000002d0 .LFB25
     /tmp/ccjtBBYr.s:524    .text:0000000000000398 .LFE25
     /tmp/ccjtBBYr.s:2721   .debug_loc:000000000000006f .LLST8
     /tmp/ccjtBBYr.s:459    .text:00000000000002f8 .LVL62
     /tmp/ccjtBBYr.s:463    .text:0000000000000300 .LVL63
     /tmp/ccjtBBYr.s:468    .text:0000000000000310 .LVL64
     /tmp/ccjtBBYr.s:472    .text:0000000000000318 .LVL65
     /tmp/ccjtBBYr.s:477    .text:0000000000000328 .LVL66
     /tmp/ccjtBBYr.s:481    .text:0000000000000330 .LVL67
     /tmp/ccjtBBYr.s:486    .text:0000000000000340 .LVL68
     /tmp/ccjtBBYr.s:491    .text:0000000000000350 .LVL69
     /tmp/ccjtBBYr.s:496    .text:000000000000035c .LVL70
     /tmp/ccjtBBYr.s:500    .text:0000000000000364 .LVL71
     /tmp/ccjtBBYr.s:505    .text:0000000000000374 .LVL72
     /tmp/ccjtBBYr.s:510    .text:0000000000000384 .LVL73
     /tmp/ccjtBBYr.s:2880   .debug_str:000000000000002f .LASF83
     /tmp/ccjtBBYr.s:2904   .debug_str:00000000000000c3 .LASF84
GAS LISTING /tmp/ccjtBBYr.s 			page 24


     /tmp/ccjtBBYr.s:272    .text:00000000000001b4 .LFB24
     /tmp/ccjtBBYr.s:410    .text:00000000000002d0 .LFE24
     /tmp/ccjtBBYr.s:2739   .debug_loc:00000000000000bb .LLST5
     /tmp/ccjtBBYr.s:2753   .debug_loc:00000000000000f4 .LLST6
     /tmp/ccjtBBYr.s:2972   .debug_str:00000000000002e5 .LASF85
     /tmp/ccjtBBYr.s:2773   .debug_loc:0000000000000151 .LLST7
     /tmp/ccjtBBYr.s:293    .text:00000000000001d4 .LVL37
     /tmp/ccjtBBYr.s:303    .text:00000000000001ec .LVL39
     /tmp/ccjtBBYr.s:308    .text:00000000000001f8 .LVL40
     /tmp/ccjtBBYr.s:313    .text:0000000000000208 .LVL41
     /tmp/ccjtBBYr.s:328    .text:0000000000000228 .LVL44
     /tmp/ccjtBBYr.s:339    .text:0000000000000234 .LVL45
     /tmp/ccjtBBYr.s:344    .text:0000000000000240 .LVL46
     /tmp/ccjtBBYr.s:352    .text:0000000000000254 .LVL49
     /tmp/ccjtBBYr.s:357    .text:0000000000000260 .LVL50
     /tmp/ccjtBBYr.s:362    .text:0000000000000270 .LVL51
     /tmp/ccjtBBYr.s:369    .text:0000000000000284 .LVL52
     /tmp/ccjtBBYr.s:374    .text:0000000000000290 .LVL53
     /tmp/ccjtBBYr.s:379    .text:00000000000002a0 .LVL54
     /tmp/ccjtBBYr.s:393    .text:00000000000002b8 .LVL57
     /tmp/ccjtBBYr.s:3012   .debug_str:00000000000003ce .LASF86
     /tmp/ccjtBBYr.s:3076   .debug_str:000000000000067f .LASF87
     /tmp/ccjtBBYr.s:97     .text:0000000000000070 .LFB23
     /tmp/ccjtBBYr.s:255    .text:00000000000001b4 .LFE23
     /tmp/ccjtBBYr.s:2784   .debug_loc:0000000000000187 .LLST1
     /tmp/ccjtBBYr.s:2798   .debug_loc:00000000000001c0 .LLST2
     /tmp/ccjtBBYr.s:2818   .debug_loc:000000000000021d .LLST3
     /tmp/ccjtBBYr.s:2826   .debug_loc:0000000000000241 .LLST4
     /tmp/ccjtBBYr.s:124    .text:00000000000000a0 .LVL10
     /tmp/ccjtBBYr.s:129    .text:00000000000000ac .LVL11
     /tmp/ccjtBBYr.s:134    .text:00000000000000bc .LVL12
     /tmp/ccjtBBYr.s:149    .text:00000000000000dc .LVL15
     /tmp/ccjtBBYr.s:160    .text:00000000000000e8 .LVL16
     /tmp/ccjtBBYr.s:174    .text:00000000000000fc .LVL18
     /tmp/ccjtBBYr.s:179    .text:0000000000000108 .LVL19
     /tmp/ccjtBBYr.s:184    .text:0000000000000118 .LVL20
     /tmp/ccjtBBYr.s:189    .text:0000000000000124 .LVL21
     /tmp/ccjtBBYr.s:197    .text:0000000000000138 .LVL24
     /tmp/ccjtBBYr.s:202    .text:0000000000000144 .LVL25
     /tmp/ccjtBBYr.s:207    .text:0000000000000154 .LVL26
     /tmp/ccjtBBYr.s:214    .text:0000000000000168 .LVL27
     /tmp/ccjtBBYr.s:219    .text:0000000000000174 .LVL28
     /tmp/ccjtBBYr.s:224    .text:0000000000000184 .LVL29
     /tmp/ccjtBBYr.s:238    .text:000000000000019c .LVL32
     /tmp/ccjtBBYr.s:3086   .debug_str:00000000000006ec .LASF113
     /tmp/ccjtBBYr.s:9      .text:0000000000000000 .LFB22
     /tmp/ccjtBBYr.s:74     .text:0000000000000070 .LFE22
     /tmp/ccjtBBYr.s:2837   .debug_loc:0000000000000277 .LLST0
     /tmp/ccjtBBYr.s:41     .text:0000000000000038 .LVL2
     /tmp/ccjtBBYr.s:46     .text:0000000000000048 .LVL3
     /tmp/ccjtBBYr.s:71     .text:000000000000006c .LVL6
     /tmp/ccjtBBYr.s:3100   .debug_str:0000000000000756 .LASF88
     /tmp/ccjtBBYr.s:2946   .debug_str:0000000000000200 .LASF90
     /tmp/ccjtBBYr.s:2948   .debug_str:000000000000020c .LASF89
     /tmp/ccjtBBYr.s:2910   .debug_str:00000000000000f1 .LASF91
     /tmp/ccjtBBYr.s:3044   .debug_str:00000000000004e4 .LASF92
     /tmp/ccjtBBYr.s:2942   .debug_str:00000000000001e3 .LASF93
GAS LISTING /tmp/ccjtBBYr.s 			page 25


     /tmp/ccjtBBYr.s:2940   .debug_str:00000000000001ce .LASF94
     /tmp/ccjtBBYr.s:2944   .debug_str:00000000000001f0 .LASF95
     /tmp/ccjtBBYr.s:3036   .debug_str:000000000000048f .LASF96
     /tmp/ccjtBBYr.s:3064   .debug_str:000000000000057a .LASF97
     /tmp/ccjtBBYr.s:2956   .debug_str:0000000000000250 .LASF98
     /tmp/ccjtBBYr.s:2928   .debug_str:0000000000000178 .LASF99
     /tmp/ccjtBBYr.s:547    .text:0000000000000398 .LVL75
     /tmp/ccjtBBYr.s:562    .text:00000000000003b8 .LVL76
     /tmp/ccjtBBYr.s:576    .text:00000000000003e0 .LVL80
     /tmp/ccjtBBYr.s:600    .text:0000000000000418 .LVL84
     /tmp/ccjtBBYr.s:442    .text:00000000000002d0 .LVL60
     /tmp/ccjtBBYr.s:457    .text:00000000000002f0 .LVL61
     /tmp/ccjtBBYr.s:519    .text:0000000000000390 .LVL74
     /tmp/ccjtBBYr.s:275    .text:00000000000001b4 .LVL35
     /tmp/ccjtBBYr.s:289    .text:00000000000001cc .LVL36
     /tmp/ccjtBBYr.s:297    .text:00000000000001dc .LVL38
     /tmp/ccjtBBYr.s:316    .text:000000000000020c .LVL42
     /tmp/ccjtBBYr.s:318    .text:0000000000000210 .LVL43
     /tmp/ccjtBBYr.s:382    .text:00000000000002a4 .LVL55
     /tmp/ccjtBBYr.s:384    .text:00000000000002a8 .LVL56
     /tmp/ccjtBBYr.s:402    .text:00000000000002c4 .LVL58
     /tmp/ccjtBBYr.s:346    .text:0000000000000244 .LVL47
     /tmp/ccjtBBYr.s:350    .text:000000000000024c .LVL48
     /tmp/ccjtBBYr.s:405    .text:00000000000002c8 .LVL59
     /tmp/ccjtBBYr.s:100    .text:0000000000000070 .LVL7
     /tmp/ccjtBBYr.s:118    .text:0000000000000090 .LVL9
     /tmp/ccjtBBYr.s:114    .text:0000000000000088 .LVL8
     /tmp/ccjtBBYr.s:137    .text:00000000000000c0 .LVL13
     /tmp/ccjtBBYr.s:139    .text:00000000000000c4 .LVL14
     /tmp/ccjtBBYr.s:227    .text:0000000000000188 .LVL30
     /tmp/ccjtBBYr.s:229    .text:000000000000018c .LVL31
     /tmp/ccjtBBYr.s:247    .text:00000000000001a8 .LVL33
     /tmp/ccjtBBYr.s:168    .text:00000000000000ec .LVL17
     /tmp/ccjtBBYr.s:191    .text:0000000000000128 .LVL22
     /tmp/ccjtBBYr.s:195    .text:0000000000000130 .LVL23
     /tmp/ccjtBBYr.s:250    .text:00000000000001ac .LVL34
     /tmp/ccjtBBYr.s:13     .text:0000000000000000 .LVL0
     /tmp/ccjtBBYr.s:35     .text:000000000000002c .LVL1
     /tmp/ccjtBBYr.s:59     .text:0000000000000058 .LVL4
     /tmp/ccjtBBYr.s:65     .text:0000000000000064 .LVL5
     /tmp/ccjtBBYr.s:615    .debug_info:0000000000000000 .Ldebug_info0

UNDEFINED SYMBOLS
_Z15thread_dispatchv
_Z11printStringPKc
_Z12printIntegerm
_Z11thread_joinP3TCB
_Z9sem_closeP11MySemaphore
_Z8sem_waitP11MySemaphore
