GAS LISTING /tmp/ccQLD4k7.s 			page 1


   1              		.file	"workers.cpp"
   2              		.option pic
   3              		.option norelax
   4              		.text
   5              	.Ltext0:
   6              		.align	2
   8              	_ZL9fibonaccim:
   9              	.LFB20:
  10              		.file 1 "src/workers.cpp"
   1:src/workers.cpp **** //
   2:src/workers.cpp **** // Created by marko on 20.4.22..
   3:src/workers.cpp **** //
   4:src/workers.cpp **** 
   5:src/workers.cpp **** #include "../lib/hw.h"
   6:src/workers.cpp **** #include "../h/tcb.hpp"
   7:src/workers.cpp **** #include "../h/print.hpp"
   8:src/workers.cpp **** #include "../h/syscall_c.hpp"
   9:src/workers.cpp **** 
  10:src/workers.cpp **** static uint64 fibonacci(uint64 n)
  11:src/workers.cpp **** {
  11              		.loc 1 11 1
  12              		.cfi_startproc
  13              	.LVL0:
  14 0000 130101FE 		addi	sp,sp,-32
  15              		.cfi_def_cfa_offset 32
  16 0004 233C1100 		sd	ra,24(sp)
  17 0008 23388100 		sd	s0,16(sp)
  18 000c 23349100 		sd	s1,8(sp)
  19 0010 23302101 		sd	s2,0(sp)
  20              		.cfi_offset 1, -8
  21              		.cfi_offset 8, -16
  22              		.cfi_offset 9, -24
  23              		.cfi_offset 18, -32
  24 0014 13040102 		addi	s0,sp,32
  25              		.cfi_def_cfa 8, 0
  26 0018 93040500 		mv	s1,a0
  12:src/workers.cpp ****     if (n == 0 || n == 1) { return n; }
  27              		.loc 1 12 5
  28 001c 93071000 		li	a5,1
  29 0020 63F6A702 		bleu	a0,a5,.L1
  13:src/workers.cpp ****     if (n % 4 == 0) {
  30              		.loc 1 13 5
  31              		.loc 1 13 11 is_stmt 0
  32 0024 93773500 		andi	a5,a0,3
  33              		.loc 1 13 5
  34 0028 638E0702 		beqz	a5,.L6
  35              	.LVL1:
  36              	.L3:
  14:src/workers.cpp ****         //printString("fibonacci yield\n");
  15:src/workers.cpp ****         thread_dispatch();
  16:src/workers.cpp ****     }
  17:src/workers.cpp ****     return fibonacci(n - 1) + fibonacci(n - 2);
  37              		.loc 1 17 5 is_stmt 1
  38              		.loc 1 17 21 is_stmt 0
  39 002c 1385F4FF 		addi	a0,s1,-1
  40 0030 97000000 		call	_ZL9fibonaccim
  40      E7800000 
GAS LISTING /tmp/ccQLD4k7.s 			page 2


  41              	.LVL2:
  42 0038 13090500 		mv	s2,a0
  43              		.loc 1 17 40
  44 003c 1385E4FF 		addi	a0,s1,-2
  45 0040 97000000 		call	_ZL9fibonaccim
  45      E7800000 
  46              	.LVL3:
  47              		.loc 1 17 46
  48 0048 3305A900 		add	a0,s2,a0
  49              	.L1:
  18:src/workers.cpp **** }
  50              		.loc 1 18 1
  51 004c 83308101 		ld	ra,24(sp)
  52              		.cfi_remember_state
  53              		.cfi_restore 1
  54 0050 03340101 		ld	s0,16(sp)
  55              		.cfi_restore 8
  56              		.cfi_def_cfa 2, 32
  57 0054 83348100 		ld	s1,8(sp)
  58              		.cfi_restore 9
  59              	.LVL4:
  60 0058 03390100 		ld	s2,0(sp)
  61              		.cfi_restore 18
  62 005c 13010102 		addi	sp,sp,32
  63              		.cfi_def_cfa_offset 0
  64 0060 67800000 		jr	ra
  65              	.LVL5:
  66              	.L6:
  67              		.cfi_restore_state
  15:src/workers.cpp ****     }
  68              		.loc 1 15 9 is_stmt 1
  15:src/workers.cpp ****     }
  69              		.loc 1 15 24 is_stmt 0
  70 0064 97000000 		call	_Z15thread_dispatchv@plt
  70      E7800000 
  71              	.LVL6:
  72 006c 6FF01FFC 		j	.L3
  73              		.cfi_endproc
  74              	.LFE20:
  76              		.section	.rodata.str1.8,"aMS",@progbits,1
  77              		.align	3
  78              	.LC0:
  79 0000 413A2069 		.string	"A: i="
  79      3D00
  80 0006 0000     		.align	3
  81              	.LC1:
  82 0008 0A00     		.string	"\n"
  83 000a 00000000 		.align	3
  83      0000
  84              	.LC2:
  85 0010 413A2079 		.string	"A: yield\n"
  85      69656C64 
  85      0A00
  86 001a 00000000 		.align	3
  86      0000
  87              	.LC3:
  88 0020 413A2074 		.string	"A: t1="
GAS LISTING /tmp/ccQLD4k7.s 			page 3


  88      313D00
  89 0027 00       		.align	3
  90              	.LC4:
  91 0028 413A2066 		.string	"A: fibonaci="
  91      69626F6E 
  91      6163693D 
  91      00
  92              		.text
  93              		.align	2
  94              		.globl	_Z11workerBodyAPv
  96              	_Z11workerBodyAPv:
  97              	.LFB21:
  19:src/workers.cpp **** 
  20:src/workers.cpp **** void workerBodyA(void* arg)
  21:src/workers.cpp **** {
  98              		.loc 1 21 1 is_stmt 1
  99              		.cfi_startproc
 100              	.LVL7:
 101 0070 130101FE 		addi	sp,sp,-32
 102              		.cfi_def_cfa_offset 32
 103 0074 233C1100 		sd	ra,24(sp)
 104 0078 23388100 		sd	s0,16(sp)
 105 007c 23349100 		sd	s1,8(sp)
 106 0080 23302101 		sd	s2,0(sp)
 107              		.cfi_offset 1, -8
 108              		.cfi_offset 8, -16
 109              		.cfi_offset 9, -24
 110              		.cfi_offset 18, -32
 111 0084 13040102 		addi	s0,sp,32
 112              		.cfi_def_cfa 8, 0
  22:src/workers.cpp ****     uint8 i = 0;
 113              		.loc 1 22 5
 114              	.LVL8:
 115              		.loc 1 22 11 is_stmt 0
 116 0088 93040000 		li	s1,0
 117 008c 6F008003 		j	.L9
 118              	.LVL9:
 119              	.L13:
  23:src/workers.cpp ****     for (; i < 3; i++)
  24:src/workers.cpp ****     {
  25:src/workers.cpp ****         printString("A: i=");
 120              		.loc 1 25 9 is_stmt 1 discriminator 1
 121              		.loc 1 25 20 is_stmt 0 discriminator 1
 122 0090 17050000 		lla	a0,.LC0
 122      13050500 
 123 0098 97000000 		call	_Z11printStringPKc@plt
 123      E7800000 
 124              	.LVL10:
  26:src/workers.cpp ****         printInteger(i);
 125              		.loc 1 26 9 is_stmt 1 discriminator 1
 126              		.loc 1 26 21 is_stmt 0 discriminator 1
 127 00a0 13850400 		mv	a0,s1
 128 00a4 97000000 		call	_Z12printIntegerm@plt
 128      E7800000 
 129              	.LVL11:
  27:src/workers.cpp ****         printString("\n");
 130              		.loc 1 27 9 is_stmt 1 discriminator 1
GAS LISTING /tmp/ccQLD4k7.s 			page 4


 131              		.loc 1 27 20 is_stmt 0 discriminator 1
 132 00ac 17050000 		lla	a0,.LC1
 132      13050500 
 133 00b4 97000000 		call	_Z11printStringPKc@plt
 133      E7800000 
 134              	.LVL12:
  23:src/workers.cpp ****     for (; i < 3; i++)
 135              		.loc 1 23 5 is_stmt 1 discriminator 1
 136 00bc 9B841400 		addiw	s1,s1,1
 137              	.LVL13:
 138 00c0 93F4F40F 		andi	s1,s1,0xff
 139              	.LVL14:
 140              	.L9:
  23:src/workers.cpp ****     for (; i < 3; i++)
 141              		.loc 1 23 5 discriminator 2
  23:src/workers.cpp ****     for (; i < 3; i++)
 142              		.loc 1 23 14 discriminator 2
 143 00c4 93072000 		li	a5,2
 144 00c8 E3F497FC 		bleu	s1,a5,.L13
  28:src/workers.cpp ****     }
  29:src/workers.cpp **** 
  30:src/workers.cpp ****     printString("A: yield\n");
 145              		.loc 1 30 5
 146              		.loc 1 30 16 is_stmt 0
 147 00cc 17050000 		lla	a0,.LC2
 147      13050500 
 148 00d4 97000000 		call	_Z11printStringPKc@plt
 148      E7800000 
 149              	.LVL15:
  31:src/workers.cpp ****     __asm__ ("li t1, 7");
 150              		.loc 1 31 5 is_stmt 1
 151              		.loc 1 31 25 is_stmt 0
 152              	#APP
 153              	# 31 "src/workers.cpp" 1
  32              	    thread_dispatch();
 154              		li t1, 7
 155              	# 0 "" 2
 156              		.loc 1 32 5 is_stmt 1
 157              		.loc 1 32 20 is_stmt 0
 158              	#NO_APP
 159 00e0 97000000 		call	_Z15thread_dispatchv@plt
 159      E7800000 
 160              	.LVL16:
  33:src/workers.cpp **** 
  34:src/workers.cpp ****     uint64 t1 = 0;
 161              		.loc 1 34 5 is_stmt 1
  35:src/workers.cpp ****     __asm__ ("mv %[t1], t1" : [t1] "=r"(t1));
 162              		.loc 1 35 5
 163              		.loc 1 35 45 is_stmt 0
 164              	#APP
 165              	# 35 "src/workers.cpp" 1
  36              	
 166              		mv s2, t1
 167              	# 0 "" 2
 168              	.LVL17:
  37:src/workers.cpp ****     printString("A: t1=");
 169              		.loc 1 37 5 is_stmt 1
GAS LISTING /tmp/ccQLD4k7.s 			page 5


 170              		.loc 1 37 16 is_stmt 0
 171              	#NO_APP
 172 00ec 17050000 		lla	a0,.LC3
 172      13050500 
 173 00f4 97000000 		call	_Z11printStringPKc@plt
 173      E7800000 
 174              	.LVL18:
  38:src/workers.cpp ****     printInteger(t1);
 175              		.loc 1 38 5 is_stmt 1
 176              		.loc 1 38 17 is_stmt 0
 177 00fc 13050900 		mv	a0,s2
 178 0100 97000000 		call	_Z12printIntegerm@plt
 178      E7800000 
 179              	.LVL19:
  39:src/workers.cpp ****     printString("\n");
 180              		.loc 1 39 5 is_stmt 1
 181              		.loc 1 39 16 is_stmt 0
 182 0108 17050000 		lla	a0,.LC1
 182      13050500 
 183 0110 97000000 		call	_Z11printStringPKc@plt
 183      E7800000 
 184              	.LVL20:
  40:src/workers.cpp **** 
  41:src/workers.cpp **** 
  42:src/workers.cpp **** 
  43:src/workers.cpp ****     uint64 result = fibonacci(20);
 185              		.loc 1 43 5 is_stmt 1
 186              		.loc 1 43 30 is_stmt 0
 187 0118 13054001 		li	a0,20
 188 011c 97000000 		call	_ZL9fibonaccim
 188      E7800000 
 189              	.LVL21:
 190 0124 13090500 		mv	s2,a0
 191              	.LVL22:
  44:src/workers.cpp ****     printString("A: fibonaci=");
 192              		.loc 1 44 5 is_stmt 1
 193              		.loc 1 44 16 is_stmt 0
 194 0128 17050000 		lla	a0,.LC4
 194      13050500 
 195              	.LVL23:
 196 0130 97000000 		call	_Z11printStringPKc@plt
 196      E7800000 
 197              	.LVL24:
  45:src/workers.cpp ****     printInteger(result);
 198              		.loc 1 45 5 is_stmt 1
 199              		.loc 1 45 17 is_stmt 0
 200 0138 13050900 		mv	a0,s2
 201 013c 97000000 		call	_Z12printIntegerm@plt
 201      E7800000 
 202              	.LVL25:
  46:src/workers.cpp ****     printString("\n");
 203              		.loc 1 46 5 is_stmt 1
 204              		.loc 1 46 16 is_stmt 0
 205 0144 17050000 		lla	a0,.LC1
 205      13050500 
 206 014c 97000000 		call	_Z11printStringPKc@plt
 206      E7800000 
GAS LISTING /tmp/ccQLD4k7.s 			page 6


 207              	.LVL26:
 208 0154 6F008003 		j	.L11
 209              	.L14:
  47:src/workers.cpp **** 
  48:src/workers.cpp ****     for (; i < 6; i++)
  49:src/workers.cpp ****     {
  50:src/workers.cpp ****         printString("A: i=");
 210              		.loc 1 50 9 is_stmt 1 discriminator 1
 211              		.loc 1 50 20 is_stmt 0 discriminator 1
 212 0158 17050000 		lla	a0,.LC0
 212      13050500 
 213 0160 97000000 		call	_Z11printStringPKc@plt
 213      E7800000 
 214              	.LVL27:
  51:src/workers.cpp ****         printInteger(i);
 215              		.loc 1 51 9 is_stmt 1 discriminator 1
 216              		.loc 1 51 21 is_stmt 0 discriminator 1
 217 0168 13850400 		mv	a0,s1
 218 016c 97000000 		call	_Z12printIntegerm@plt
 218      E7800000 
 219              	.LVL28:
  52:src/workers.cpp ****         printString("\n");
 220              		.loc 1 52 9 is_stmt 1 discriminator 1
 221              		.loc 1 52 20 is_stmt 0 discriminator 1
 222 0174 17050000 		lla	a0,.LC1
 222      13050500 
 223 017c 97000000 		call	_Z11printStringPKc@plt
 223      E7800000 
 224              	.LVL29:
  48:src/workers.cpp ****     {
 225              		.loc 1 48 5 is_stmt 1 discriminator 1
 226 0184 9B841400 		addiw	s1,s1,1
 227              	.LVL30:
 228 0188 93F4F40F 		andi	s1,s1,0xff
 229              	.LVL31:
 230              	.L11:
  48:src/workers.cpp ****     {
 231              		.loc 1 48 5 discriminator 2
  48:src/workers.cpp ****     {
 232              		.loc 1 48 14 discriminator 2
 233 018c 93075000 		li	a5,5
 234 0190 E3F497FC 		bleu	s1,a5,.L14
  53:src/workers.cpp ****     }
  54:src/workers.cpp **** 
  55:src/workers.cpp ****     thread_dispatch();
 235              		.loc 1 55 5
 236              		.loc 1 55 20 is_stmt 0
 237 0194 97000000 		call	_Z15thread_dispatchv@plt
 237      E7800000 
 238              	.LVL32:
  56:src/workers.cpp **** }
 239              		.loc 1 56 1
 240 019c 83308101 		ld	ra,24(sp)
 241              		.cfi_restore 1
 242 01a0 03340101 		ld	s0,16(sp)
 243              		.cfi_restore 8
 244              		.cfi_def_cfa 2, 32
GAS LISTING /tmp/ccQLD4k7.s 			page 7


 245 01a4 83348100 		ld	s1,8(sp)
 246              		.cfi_restore 9
 247              	.LVL33:
 248 01a8 03390100 		ld	s2,0(sp)
 249              		.cfi_restore 18
 250              	.LVL34:
 251 01ac 13010102 		addi	sp,sp,32
 252              		.cfi_def_cfa_offset 0
 253 01b0 67800000 		jr	ra
 254              		.cfi_endproc
 255              	.LFE21:
 257              		.section	.rodata.str1.8
 258 0035 000000   		.align	3
 259              	.LC5:
 260 0038 423A2069 		.string	"B: i="
 260      3D00
 261 003e 0000     		.align	3
 262              	.LC6:
 263 0040 423A2079 		.string	"B: yield\n"
 263      69656C64 
 263      0A00
 264 004a 00000000 		.align	3
 264      0000
 265              	.LC7:
 266 0050 423A2066 		.string	"B: fibonaci="
 266      69626F6E 
 266      6163693D 
 266      00
 267              		.text
 268              		.align	2
 269              		.globl	_Z11workerBodyBPv
 271              	_Z11workerBodyBPv:
 272              	.LFB22:
  57:src/workers.cpp **** 
  58:src/workers.cpp **** void workerBodyB(void* arg)
  59:src/workers.cpp **** {
 273              		.loc 1 59 1 is_stmt 1
 274              		.cfi_startproc
 275              	.LVL35:
 276 01b4 130101FE 		addi	sp,sp,-32
 277              		.cfi_def_cfa_offset 32
 278 01b8 233C1100 		sd	ra,24(sp)
 279 01bc 23388100 		sd	s0,16(sp)
 280 01c0 23349100 		sd	s1,8(sp)
 281 01c4 23302101 		sd	s2,0(sp)
 282              		.cfi_offset 1, -8
 283              		.cfi_offset 8, -16
 284              		.cfi_offset 9, -24
 285              		.cfi_offset 18, -32
 286 01c8 13040102 		addi	s0,sp,32
 287              		.cfi_def_cfa 8, 0
  60:src/workers.cpp ****     uint8 i = 10;
 288              		.loc 1 60 5
 289              	.LVL36:
  61:src/workers.cpp ****     thread_join((thread_t) arg);
 290              		.loc 1 61 5
 291              		.loc 1 61 16 is_stmt 0
GAS LISTING /tmp/ccQLD4k7.s 			page 8


 292 01cc 97000000 		call	_Z11thread_joinP3TCB@plt
 292      E7800000 
 293              	.LVL37:
  60:src/workers.cpp ****     uint8 i = 10;
 294              		.loc 1 60 11
 295 01d4 9304A000 		li	s1,10
 296 01d8 6F008003 		j	.L17
 297              	.LVL38:
 298              	.L21:
  62:src/workers.cpp ****     for (; i < 13; i++)
  63:src/workers.cpp ****     {
  64:src/workers.cpp ****         printString("B: i=");
 299              		.loc 1 64 9 is_stmt 1 discriminator 1
 300              		.loc 1 64 20 is_stmt 0 discriminator 1
 301 01dc 17050000 		lla	a0,.LC5
 301      13050500 
 302 01e4 97000000 		call	_Z11printStringPKc@plt
 302      E7800000 
 303              	.LVL39:
  65:src/workers.cpp ****         printInteger(i);
 304              		.loc 1 65 9 is_stmt 1 discriminator 1
 305              		.loc 1 65 21 is_stmt 0 discriminator 1
 306 01ec 13850400 		mv	a0,s1
 307 01f0 97000000 		call	_Z12printIntegerm@plt
 307      E7800000 
 308              	.LVL40:
  66:src/workers.cpp ****         printString("\n");
 309              		.loc 1 66 9 is_stmt 1 discriminator 1
 310              		.loc 1 66 20 is_stmt 0 discriminator 1
 311 01f8 17050000 		lla	a0,.LC1
 311      13050500 
 312 0200 97000000 		call	_Z11printStringPKc@plt
 312      E7800000 
 313              	.LVL41:
  62:src/workers.cpp ****     for (; i < 13; i++)
 314              		.loc 1 62 5 is_stmt 1 discriminator 1
 315 0208 9B841400 		addiw	s1,s1,1
 316              	.LVL42:
 317 020c 93F4F40F 		andi	s1,s1,0xff
 318              	.LVL43:
 319              	.L17:
  62:src/workers.cpp ****     for (; i < 13; i++)
 320              		.loc 1 62 5 discriminator 2
  62:src/workers.cpp ****     for (; i < 13; i++)
 321              		.loc 1 62 14 discriminator 2
 322 0210 9307C000 		li	a5,12
 323 0214 E3F497FC 		bleu	s1,a5,.L21
  67:src/workers.cpp ****     }
  68:src/workers.cpp **** 
  69:src/workers.cpp ****     printString("B: yield\n");
 324              		.loc 1 69 5
 325              		.loc 1 69 16 is_stmt 0
 326 0218 17050000 		lla	a0,.LC6
 326      13050500 
 327 0220 97000000 		call	_Z11printStringPKc@plt
 327      E7800000 
 328              	.LVL44:
GAS LISTING /tmp/ccQLD4k7.s 			page 9


  70:src/workers.cpp ****     __asm__ ("li t1, 5");
 329              		.loc 1 70 5 is_stmt 1
 330              		.loc 1 70 25 is_stmt 0
 331              	#APP
 332              	# 70 "src/workers.cpp" 1
  71              	    thread_dispatch();
 333              		li t1, 5
 334              	# 0 "" 2
 335              		.loc 1 71 5 is_stmt 1
 336              		.loc 1 71 20 is_stmt 0
 337              	#NO_APP
 338 022c 97000000 		call	_Z15thread_dispatchv@plt
 338      E7800000 
 339              	.LVL45:
  72:src/workers.cpp **** 
  73:src/workers.cpp **** 
  74:src/workers.cpp ****     uint64 result = fibonacci(23);
 340              		.loc 1 74 5 is_stmt 1
 341              		.loc 1 74 30 is_stmt 0
 342 0234 13057001 		li	a0,23
 343 0238 97000000 		call	_ZL9fibonaccim
 343      E7800000 
 344              	.LVL46:
 345 0240 13090500 		mv	s2,a0
 346              	.LVL47:
  75:src/workers.cpp ****     printString("B: fibonaci=");
 347              		.loc 1 75 5 is_stmt 1
 348              		.loc 1 75 16 is_stmt 0
 349 0244 17050000 		lla	a0,.LC7
 349      13050500 
 350              	.LVL48:
 351 024c 97000000 		call	_Z11printStringPKc@plt
 351      E7800000 
 352              	.LVL49:
  76:src/workers.cpp ****     printInteger(result);
 353              		.loc 1 76 5 is_stmt 1
 354              		.loc 1 76 17 is_stmt 0
 355 0254 13050900 		mv	a0,s2
 356 0258 97000000 		call	_Z12printIntegerm@plt
 356      E7800000 
 357              	.LVL50:
  77:src/workers.cpp ****     printString("\n");
 358              		.loc 1 77 5 is_stmt 1
 359              		.loc 1 77 16 is_stmt 0
 360 0260 17050000 		lla	a0,.LC1
 360      13050500 
 361 0268 97000000 		call	_Z11printStringPKc@plt
 361      E7800000 
 362              	.LVL51:
 363 0270 6F008003 		j	.L19
 364              	.L22:
  78:src/workers.cpp **** 
  79:src/workers.cpp ****     for (; i < 16; i++)
  80:src/workers.cpp ****     {
  81:src/workers.cpp ****         printString("B: i=");
 365              		.loc 1 81 9 is_stmt 1 discriminator 1
 366              		.loc 1 81 20 is_stmt 0 discriminator 1
GAS LISTING /tmp/ccQLD4k7.s 			page 10


 367 0274 17050000 		lla	a0,.LC5
 367      13050500 
 368 027c 97000000 		call	_Z11printStringPKc@plt
 368      E7800000 
 369              	.LVL52:
  82:src/workers.cpp ****         printInteger(i);
 370              		.loc 1 82 9 is_stmt 1 discriminator 1
 371              		.loc 1 82 21 is_stmt 0 discriminator 1
 372 0284 13850400 		mv	a0,s1
 373 0288 97000000 		call	_Z12printIntegerm@plt
 373      E7800000 
 374              	.LVL53:
  83:src/workers.cpp ****         printString("\n");
 375              		.loc 1 83 9 is_stmt 1 discriminator 1
 376              		.loc 1 83 20 is_stmt 0 discriminator 1
 377 0290 17050000 		lla	a0,.LC1
 377      13050500 
 378 0298 97000000 		call	_Z11printStringPKc@plt
 378      E7800000 
 379              	.LVL54:
  79:src/workers.cpp ****     {
 380              		.loc 1 79 5 is_stmt 1 discriminator 1
 381 02a0 9B841400 		addiw	s1,s1,1
 382              	.LVL55:
 383 02a4 93F4F40F 		andi	s1,s1,0xff
 384              	.LVL56:
 385              	.L19:
  79:src/workers.cpp ****     {
 386              		.loc 1 79 5 discriminator 2
  79:src/workers.cpp ****     {
 387              		.loc 1 79 14 discriminator 2
 388 02a8 9307F000 		li	a5,15
 389 02ac E3F497FC 		bleu	s1,a5,.L22
  84:src/workers.cpp ****     }
  85:src/workers.cpp **** 
  86:src/workers.cpp ****     thread_dispatch();
 390              		.loc 1 86 5
 391              		.loc 1 86 20 is_stmt 0
 392 02b0 97000000 		call	_Z15thread_dispatchv@plt
 392      E7800000 
 393              	.LVL57:
  87:src/workers.cpp **** }...
 394              		.loc 1 87 1
 395 02b8 83308101 		ld	ra,24(sp)
 396              		.cfi_restore 1
 397 02bc 03340101 		ld	s0,16(sp)
 398              		.cfi_restore 8
 399              		.cfi_def_cfa 2, 32
 400 02c0 83348100 		ld	s1,8(sp)
 401              		.cfi_restore 9
 402              	.LVL58:
 403 02c4 03390100 		ld	s2,0(sp)
 404              		.cfi_restore 18
 405              	.LVL59:
 406 02c8 13010102 		addi	sp,sp,32
 407              		.cfi_def_cfa_offset 0
 408 02cc 67800000 		jr	ra
GAS LISTING /tmp/ccQLD4k7.s 			page 11


 409              		.cfi_endproc
 410              	.LFE22:
 412              	.Letext0:
 413              		.file 2 "src/../lib/hw.h"
 414              		.file 3 "src/../h/tcb.hpp"
 415              		.file 4 "src/../h/syscall_c.hpp"
 416              		.file 5 "src/../h/print.hpp"
GAS LISTING /tmp/ccQLD4k7.s 			page 12


DEFINED SYMBOLS
                            *ABS*:0000000000000000 workers.cpp
     /tmp/ccQLD4k7.s:8      .text:0000000000000000 _ZL9fibonaccim
     /tmp/ccQLD4k7.s:12     .text:0000000000000000 .L0 
     /tmp/ccQLD4k7.s:14     .text:0000000000000000 .L0 
     /tmp/ccQLD4k7.s:15     .text:0000000000000004 .L0 
     /tmp/ccQLD4k7.s:20     .text:0000000000000014 .L0 
     /tmp/ccQLD4k7.s:21     .text:0000000000000014 .L0 
     /tmp/ccQLD4k7.s:22     .text:0000000000000014 .L0 
     /tmp/ccQLD4k7.s:23     .text:0000000000000014 .L0 
     /tmp/ccQLD4k7.s:25     .text:0000000000000018 .L0 
     /tmp/ccQLD4k7.s:28     .text:000000000000001c .L0 
     /tmp/ccQLD4k7.s:31     .text:0000000000000024 .L0 
     /tmp/ccQLD4k7.s:32     .text:0000000000000024 .L0 
     /tmp/ccQLD4k7.s:34     .text:0000000000000028 .L0 
     /tmp/ccQLD4k7.s:38     .text:000000000000002c .L0 
     /tmp/ccQLD4k7.s:39     .text:000000000000002c .L0 
     /tmp/ccQLD4k7.s:44     .text:000000000000003c .L0 
     /tmp/ccQLD4k7.s:48     .text:0000000000000048 .L0 
     /tmp/ccQLD4k7.s:51     .text:000000000000004c .L0 
     /tmp/ccQLD4k7.s:52     .text:0000000000000050 .L0 
     /tmp/ccQLD4k7.s:53     .text:0000000000000050 .L0 
     /tmp/ccQLD4k7.s:55     .text:0000000000000054 .L0 
     /tmp/ccQLD4k7.s:56     .text:0000000000000054 .L0 
     /tmp/ccQLD4k7.s:58     .text:0000000000000058 .L0 
     /tmp/ccQLD4k7.s:61     .text:000000000000005c .L0 
     /tmp/ccQLD4k7.s:63     .text:0000000000000060 .L0 
     /tmp/ccQLD4k7.s:67     .text:0000000000000064 .L0 
     /tmp/ccQLD4k7.s:69     .text:0000000000000064 .L0 
     /tmp/ccQLD4k7.s:70     .text:0000000000000064 .L0 
     /tmp/ccQLD4k7.s:73     .text:0000000000000070 .L0 
     /tmp/ccQLD4k7.s:96     .text:0000000000000070 _Z11workerBodyAPv
     /tmp/ccQLD4k7.s:99     .text:0000000000000070 .L0 
     /tmp/ccQLD4k7.s:101    .text:0000000000000070 .L0 
     /tmp/ccQLD4k7.s:102    .text:0000000000000074 .L0 
     /tmp/ccQLD4k7.s:107    .text:0000000000000084 .L0 
     /tmp/ccQLD4k7.s:108    .text:0000000000000084 .L0 
     /tmp/ccQLD4k7.s:109    .text:0000000000000084 .L0 
     /tmp/ccQLD4k7.s:110    .text:0000000000000084 .L0 
     /tmp/ccQLD4k7.s:112    .text:0000000000000088 .L0 
     /tmp/ccQLD4k7.s:115    .text:0000000000000088 .L0 
     /tmp/ccQLD4k7.s:116    .text:0000000000000088 .L0 
     /tmp/ccQLD4k7.s:121    .text:0000000000000090 .L0 
     /tmp/ccQLD4k7.s:122    .text:0000000000000090 .L0 
     /tmp/ccQLD4k7.s:126    .text:00000000000000a0 .L0 
     /tmp/ccQLD4k7.s:127    .text:00000000000000a0 .L0 
     /tmp/ccQLD4k7.s:131    .text:00000000000000ac .L0 
     /tmp/ccQLD4k7.s:132    .text:00000000000000ac .L0 
     /tmp/ccQLD4k7.s:136    .text:00000000000000bc .L0 
     /tmp/ccQLD4k7.s:142    .text:00000000000000c4 .L0 
     /tmp/ccQLD4k7.s:143    .text:00000000000000c4 .L0 
     /tmp/ccQLD4k7.s:146    .text:00000000000000cc .L0 
     /tmp/ccQLD4k7.s:147    .text:00000000000000cc .L0 
     /tmp/ccQLD4k7.s:151    .text:00000000000000dc .L0 
     src/workers.cpp:31     .text:00000000000000dc .L0 
     /tmp/ccQLD4k7.s:157    .text:00000000000000e0 .L0 
     /tmp/ccQLD4k7.s:159    .text:00000000000000e0 .L0 
GAS LISTING /tmp/ccQLD4k7.s 			page 13


     /tmp/ccQLD4k7.s:162    .text:00000000000000e8 .L0 
     /tmp/ccQLD4k7.s:163    .text:00000000000000e8 .L0 
     src/workers.cpp:35     .text:00000000000000e8 .L0 
     /tmp/ccQLD4k7.s:170    .text:00000000000000ec .L0 
     /tmp/ccQLD4k7.s:172    .text:00000000000000ec .L0 
     /tmp/ccQLD4k7.s:176    .text:00000000000000fc .L0 
     /tmp/ccQLD4k7.s:177    .text:00000000000000fc .L0 
     /tmp/ccQLD4k7.s:181    .text:0000000000000108 .L0 
     /tmp/ccQLD4k7.s:182    .text:0000000000000108 .L0 
     /tmp/ccQLD4k7.s:186    .text:0000000000000118 .L0 
     /tmp/ccQLD4k7.s:187    .text:0000000000000118 .L0 
     /tmp/ccQLD4k7.s:193    .text:0000000000000128 .L0 
     /tmp/ccQLD4k7.s:194    .text:0000000000000128 .L0 
     /tmp/ccQLD4k7.s:199    .text:0000000000000138 .L0 
     /tmp/ccQLD4k7.s:200    .text:0000000000000138 .L0 
     /tmp/ccQLD4k7.s:204    .text:0000000000000144 .L0 
     /tmp/ccQLD4k7.s:205    .text:0000000000000144 .L0 
     /tmp/ccQLD4k7.s:211    .text:0000000000000158 .L0 
     /tmp/ccQLD4k7.s:212    .text:0000000000000158 .L0 
     /tmp/ccQLD4k7.s:216    .text:0000000000000168 .L0 
     /tmp/ccQLD4k7.s:217    .text:0000000000000168 .L0 
     /tmp/ccQLD4k7.s:221    .text:0000000000000174 .L0 
     /tmp/ccQLD4k7.s:222    .text:0000000000000174 .L0 
     /tmp/ccQLD4k7.s:226    .text:0000000000000184 .L0 
     /tmp/ccQLD4k7.s:232    .text:000000000000018c .L0 
     /tmp/ccQLD4k7.s:233    .text:000000000000018c .L0 
     /tmp/ccQLD4k7.s:236    .text:0000000000000194 .L0 
     /tmp/ccQLD4k7.s:237    .text:0000000000000194 .L0 
     /tmp/ccQLD4k7.s:240    .text:000000000000019c .L0 
     /tmp/ccQLD4k7.s:241    .text:00000000000001a0 .L0 
     /tmp/ccQLD4k7.s:243    .text:00000000000001a4 .L0 
     /tmp/ccQLD4k7.s:244    .text:00000000000001a4 .L0 
     /tmp/ccQLD4k7.s:246    .text:00000000000001a8 .L0 
     /tmp/ccQLD4k7.s:249    .text:00000000000001ac .L0 
     /tmp/ccQLD4k7.s:252    .text:00000000000001b0 .L0 
     /tmp/ccQLD4k7.s:254    .text:00000000000001b4 .L0 
     /tmp/ccQLD4k7.s:271    .text:00000000000001b4 _Z11workerBodyBPv
     /tmp/ccQLD4k7.s:274    .text:00000000000001b4 .L0 
     /tmp/ccQLD4k7.s:276    .text:00000000000001b4 .L0 
     /tmp/ccQLD4k7.s:277    .text:00000000000001b8 .L0 
     /tmp/ccQLD4k7.s:282    .text:00000000000001c8 .L0 
     /tmp/ccQLD4k7.s:283    .text:00000000000001c8 .L0 
     /tmp/ccQLD4k7.s:284    .text:00000000000001c8 .L0 
     /tmp/ccQLD4k7.s:285    .text:00000000000001c8 .L0 
     /tmp/ccQLD4k7.s:287    .text:00000000000001cc .L0 
     /tmp/ccQLD4k7.s:290    .text:00000000000001cc .L0 
     /tmp/ccQLD4k7.s:291    .text:00000000000001cc .L0 
     /tmp/ccQLD4k7.s:292    .text:00000000000001cc .L0 
     /tmp/ccQLD4k7.s:295    .text:00000000000001d4 .L0 
     /tmp/ccQLD4k7.s:300    .text:00000000000001dc .L0 
     /tmp/ccQLD4k7.s:301    .text:00000000000001dc .L0 
     /tmp/ccQLD4k7.s:305    .text:00000000000001ec .L0 
     /tmp/ccQLD4k7.s:306    .text:00000000000001ec .L0 
     /tmp/ccQLD4k7.s:310    .text:00000000000001f8 .L0 
     /tmp/ccQLD4k7.s:311    .text:00000000000001f8 .L0 
     /tmp/ccQLD4k7.s:315    .text:0000000000000208 .L0 
     /tmp/ccQLD4k7.s:321    .text:0000000000000210 .L0 
GAS LISTING /tmp/ccQLD4k7.s 			page 14


     /tmp/ccQLD4k7.s:322    .text:0000000000000210 .L0 
     /tmp/ccQLD4k7.s:325    .text:0000000000000218 .L0 
     /tmp/ccQLD4k7.s:326    .text:0000000000000218 .L0 
     /tmp/ccQLD4k7.s:330    .text:0000000000000228 .L0 
     src/workers.cpp:70     .text:0000000000000228 .L0 
     /tmp/ccQLD4k7.s:336    .text:000000000000022c .L0 
     /tmp/ccQLD4k7.s:338    .text:000000000000022c .L0 
     /tmp/ccQLD4k7.s:341    .text:0000000000000234 .L0 
     /tmp/ccQLD4k7.s:342    .text:0000000000000234 .L0 
     /tmp/ccQLD4k7.s:348    .text:0000000000000244 .L0 
     /tmp/ccQLD4k7.s:349    .text:0000000000000244 .L0 
     /tmp/ccQLD4k7.s:354    .text:0000000000000254 .L0 
     /tmp/ccQLD4k7.s:355    .text:0000000000000254 .L0 
     /tmp/ccQLD4k7.s:359    .text:0000000000000260 .L0 
     /tmp/ccQLD4k7.s:360    .text:0000000000000260 .L0 
     /tmp/ccQLD4k7.s:366    .text:0000000000000274 .L0 
     /tmp/ccQLD4k7.s:367    .text:0000000000000274 .L0 
     /tmp/ccQLD4k7.s:371    .text:0000000000000284 .L0 
     /tmp/ccQLD4k7.s:372    .text:0000000000000284 .L0 
     /tmp/ccQLD4k7.s:376    .text:0000000000000290 .L0 
     /tmp/ccQLD4k7.s:377    .text:0000000000000290 .L0 
     /tmp/ccQLD4k7.s:381    .text:00000000000002a0 .L0 
     /tmp/ccQLD4k7.s:387    .text:00000000000002a8 .L0 
     /tmp/ccQLD4k7.s:388    .text:00000000000002a8 .L0 
     /tmp/ccQLD4k7.s:391    .text:00000000000002b0 .L0 
     /tmp/ccQLD4k7.s:392    .text:00000000000002b0 .L0 
     /tmp/ccQLD4k7.s:395    .text:00000000000002b8 .L0 
     /tmp/ccQLD4k7.s:396    .text:00000000000002bc .L0 
     /tmp/ccQLD4k7.s:398    .text:00000000000002c0 .L0 
     /tmp/ccQLD4k7.s:399    .text:00000000000002c0 .L0 
     /tmp/ccQLD4k7.s:401    .text:00000000000002c4 .L0 
     /tmp/ccQLD4k7.s:404    .text:00000000000002c8 .L0 
     /tmp/ccQLD4k7.s:407    .text:00000000000002cc .L0 
     /tmp/ccQLD4k7.s:409    .text:00000000000002d0 .L0 
     /tmp/ccQLD4k7.s:417    .text:00000000000002d0 .L0 
     /tmp/ccQLD4k7.s:78     .rodata.str1.8:0000000000000000 .LC0
     /tmp/ccQLD4k7.s:122    .text:0000000000000090 .L0 
     /tmp/ccQLD4k7.s:81     .rodata.str1.8:0000000000000008 .LC1
     /tmp/ccQLD4k7.s:132    .text:00000000000000ac .L0 
     /tmp/ccQLD4k7.s:84     .rodata.str1.8:0000000000000010 .LC2
     /tmp/ccQLD4k7.s:147    .text:00000000000000cc .L0 
     /tmp/ccQLD4k7.s:87     .rodata.str1.8:0000000000000020 .LC3
     /tmp/ccQLD4k7.s:172    .text:00000000000000ec .L0 
     /tmp/ccQLD4k7.s:182    .text:0000000000000108 .L0 
     /tmp/ccQLD4k7.s:90     .rodata.str1.8:0000000000000028 .LC4
     /tmp/ccQLD4k7.s:194    .text:0000000000000128 .L0 
     /tmp/ccQLD4k7.s:205    .text:0000000000000144 .L0 
     /tmp/ccQLD4k7.s:212    .text:0000000000000158 .L0 
     /tmp/ccQLD4k7.s:222    .text:0000000000000174 .L0 
     /tmp/ccQLD4k7.s:259    .rodata.str1.8:0000000000000038 .LC5
     /tmp/ccQLD4k7.s:301    .text:00000000000001dc .L0 
     /tmp/ccQLD4k7.s:311    .text:00000000000001f8 .L0 
     /tmp/ccQLD4k7.s:262    .rodata.str1.8:0000000000000040 .LC6
     /tmp/ccQLD4k7.s:326    .text:0000000000000218 .L0 
     /tmp/ccQLD4k7.s:265    .rodata.str1.8:0000000000000050 .LC7
     /tmp/ccQLD4k7.s:349    .text:0000000000000244 .L0 
     /tmp/ccQLD4k7.s:360    .text:0000000000000260 .L0 
GAS LISTING /tmp/ccQLD4k7.s 			page 15


     /tmp/ccQLD4k7.s:367    .text:0000000000000274 .L0 
     /tmp/ccQLD4k7.s:377    .text:0000000000000290 .L0 
     /tmp/ccQLD4k7.s:49     .text:000000000000004c .L1
     /tmp/ccQLD4k7.s:66     .text:0000000000000064 .L6
     /tmp/ccQLD4k7.s:36     .text:000000000000002c .L3
     /tmp/ccQLD4k7.s:140    .text:00000000000000c4 .L9
     /tmp/ccQLD4k7.s:119    .text:0000000000000090 .L13
     /tmp/ccQLD4k7.s:230    .text:000000000000018c .L11
     /tmp/ccQLD4k7.s:209    .text:0000000000000158 .L14
     /tmp/ccQLD4k7.s:319    .text:0000000000000210 .L17
     /tmp/ccQLD4k7.s:298    .text:00000000000001dc .L21
     /tmp/ccQLD4k7.s:385    .text:00000000000002a8 .L19
     /tmp/ccQLD4k7.s:364    .text:0000000000000274 .L22
     /tmp/ccQLD4k7.s:1220   .debug_abbrev:0000000000000000 .Ldebug_abbrev0
     /tmp/ccQLD4k7.s:2082   .debug_str:000000000000036e .LASF53
     /tmp/ccQLD4k7.s:1978   .debug_str:0000000000000063 .LASF54
     /tmp/ccQLD4k7.s:1992   .debug_str:00000000000000bf .LASF55
     /tmp/ccQLD4k7.s:5      .text:0000000000000000 .Ltext0
     /tmp/ccQLD4k7.s:412    .text:00000000000002d0 .Letext0
     /tmp/ccQLD4k7.s:1958   .debug_line:0000000000000000 .Ldebug_line0
     /tmp/ccQLD4k7.s:2038   .debug_str:0000000000000236 .LASF0
     /tmp/ccQLD4k7.s:2046   .debug_str:0000000000000272 .LASF1
     /tmp/ccQLD4k7.s:2028   .debug_str:00000000000001ed .LASF2
     /tmp/ccQLD4k7.s:1984   .debug_str:0000000000000099 .LASF3
     /tmp/ccQLD4k7.s:2014   .debug_str:00000000000001aa .LASF4
     /tmp/ccQLD4k7.s:2062   .debug_str:00000000000002df .LASF5
     /tmp/ccQLD4k7.s:1972   .debug_str:0000000000000040 .LASF6
     /tmp/ccQLD4k7.s:2048   .debug_str:0000000000000285 .LASF7
     /tmp/ccQLD4k7.s:2036   .debug_str:0000000000000223 .LASF8
     /tmp/ccQLD4k7.s:2076   .debug_str:0000000000000346 .LASF9
     /tmp/ccQLD4k7.s:2000   .debug_str:0000000000000116 .LASF10
     /tmp/ccQLD4k7.s:2052   .debug_str:00000000000002a3 .LASF11
     /tmp/ccQLD4k7.s:2070   .debug_str:0000000000000313 .LASF12
     /tmp/ccQLD4k7.s:1974   .debug_str:0000000000000047 .LASF13
     /tmp/ccQLD4k7.s:1966   .debug_str:000000000000001c .LASF14
     /tmp/ccQLD4k7.s:1976   .debug_str:0000000000000057 .LASF15
     /tmp/ccQLD4k7.s:2058   .debug_str:00000000000002c3 .LASF16
     /tmp/ccQLD4k7.s:1982   .debug_str:0000000000000083 .LASF17
     /tmp/ccQLD4k7.s:1970   .debug_str:0000000000000038 .LASF56
     /tmp/ccQLD4k7.s:2008   .debug_str:0000000000000166 .LASF18
     /tmp/ccQLD4k7.s:2054   .debug_str:00000000000002b2 .LASF20
     /tmp/ccQLD4k7.s:2050   .debug_str:0000000000000298 .LASF38
     /tmp/ccQLD4k7.s:1998   .debug_str:00000000000000ff .LASF40
     /tmp/ccQLD4k7.s:2030   .debug_str:00000000000001fb .LASF19
     /tmp/ccQLD4k7.s:2010   .debug_str:000000000000016b .LASF21
     /tmp/ccQLD4k7.s:2022   .debug_str:00000000000001c7 .LASF22
     /tmp/ccQLD4k7.s:2044   .debug_str:0000000000000252 .LASF23
     /tmp/ccQLD4k7.s:2056   .debug_str:00000000000002be .LASF57
     /tmp/ccQLD4k7.s:2060   .debug_str:00000000000002d9 .LASF58
     /tmp/ccQLD4k7.s:2032   .debug_str:0000000000000207 .LASF59
     /tmp/ccQLD4k7.s:1986   .debug_str:000000000000009f .LASF60
     /tmp/ccQLD4k7.s:2002   .debug_str:0000000000000124 .LASF61
     /tmp/ccQLD4k7.s:2018   .debug_str:00000000000001ba .LASF24
     /tmp/ccQLD4k7.s:2042   .debug_str:000000000000024c .LASF25
     /tmp/ccQLD4k7.s:2020   .debug_str:00000000000001bf .LASF26
     /tmp/ccQLD4k7.s:2016   .debug_str:00000000000001b1 .LASF27
     /tmp/ccQLD4k7.s:2026   .debug_str:00000000000001df .LASF28
GAS LISTING /tmp/ccQLD4k7.s 			page 16


     /tmp/ccQLD4k7.s:2006   .debug_str:000000000000014d .LASF30
     /tmp/ccQLD4k7.s:2080   .debug_str:0000000000000360 .LASF32
     /tmp/ccQLD4k7.s:2012   .debug_str:0000000000000182 .LASF34
     /tmp/ccQLD4k7.s:2040   .debug_str:0000000000000243 .LASF29
     /tmp/ccQLD4k7.s:1988   .debug_str:00000000000000a7 .LASF31
     /tmp/ccQLD4k7.s:2064   .debug_str:00000000000002f1 .LASF33
     /tmp/ccQLD4k7.s:2068   .debug_str:0000000000000302 .LASF35
     /tmp/ccQLD4k7.s:2024   .debug_str:00000000000001d4 .LASF62
     /tmp/ccQLD4k7.s:1990   .debug_str:00000000000000ba .LASF36
     /tmp/ccQLD4k7.s:1960   .debug_str:0000000000000000 .LASF37
     /tmp/ccQLD4k7.s:1964   .debug_str:0000000000000010 .LASF39
     /tmp/ccQLD4k7.s:2084   .debug_str:0000000000000410 .LASF41
     /tmp/ccQLD4k7.s:272    .text:00000000000001b4 .LFB22
     /tmp/ccQLD4k7.s:410    .text:00000000000002d0 .LFE22
     /tmp/ccQLD4k7.s:1825   .debug_loc:0000000000000000 .LLST5
     /tmp/ccQLD4k7.s:1839   .debug_loc:0000000000000039 .LLST6
     /tmp/ccQLD4k7.s:1962   .debug_str:0000000000000009 .LASF42
     /tmp/ccQLD4k7.s:1859   .debug_loc:0000000000000096 .LLST7
     /tmp/ccQLD4k7.s:293    .text:00000000000001d4 .LVL37
     /tmp/ccQLD4k7.s:303    .text:00000000000001ec .LVL39
     /tmp/ccQLD4k7.s:308    .text:00000000000001f8 .LVL40
     /tmp/ccQLD4k7.s:313    .text:0000000000000208 .LVL41
     /tmp/ccQLD4k7.s:328    .text:0000000000000228 .LVL44
     /tmp/ccQLD4k7.s:339    .text:0000000000000234 .LVL45
     /tmp/ccQLD4k7.s:344    .text:0000000000000240 .LVL46
     /tmp/ccQLD4k7.s:352    .text:0000000000000254 .LVL49
     /tmp/ccQLD4k7.s:357    .text:0000000000000260 .LVL50
     /tmp/ccQLD4k7.s:362    .text:0000000000000270 .LVL51
     /tmp/ccQLD4k7.s:369    .text:0000000000000284 .LVL52
     /tmp/ccQLD4k7.s:374    .text:0000000000000290 .LVL53
     /tmp/ccQLD4k7.s:379    .text:00000000000002a0 .LVL54
     /tmp/ccQLD4k7.s:393    .text:00000000000002b8 .LVL57
     /tmp/ccQLD4k7.s:2034   .debug_str:0000000000000217 .LASF43
     /tmp/ccQLD4k7.s:2072   .debug_str:0000000000000322 .LASF44
     /tmp/ccQLD4k7.s:97     .text:0000000000000070 .LFB21
     /tmp/ccQLD4k7.s:255    .text:00000000000001b4 .LFE21
     /tmp/ccQLD4k7.s:1870   .debug_loc:00000000000000cc .LLST1
     /tmp/ccQLD4k7.s:1884   .debug_loc:0000000000000105 .LLST2
     /tmp/ccQLD4k7.s:1904   .debug_loc:0000000000000162 .LLST3
     /tmp/ccQLD4k7.s:1912   .debug_loc:0000000000000186 .LLST4
     /tmp/ccQLD4k7.s:124    .text:00000000000000a0 .LVL10
     /tmp/ccQLD4k7.s:129    .text:00000000000000ac .LVL11
     /tmp/ccQLD4k7.s:134    .text:00000000000000bc .LVL12
     /tmp/ccQLD4k7.s:149    .text:00000000000000dc .LVL15
     /tmp/ccQLD4k7.s:160    .text:00000000000000e8 .LVL16
     /tmp/ccQLD4k7.s:174    .text:00000000000000fc .LVL18
     /tmp/ccQLD4k7.s:179    .text:0000000000000108 .LVL19
     /tmp/ccQLD4k7.s:184    .text:0000000000000118 .LVL20
     /tmp/ccQLD4k7.s:189    .text:0000000000000124 .LVL21
     /tmp/ccQLD4k7.s:197    .text:0000000000000138 .LVL24
     /tmp/ccQLD4k7.s:202    .text:0000000000000144 .LVL25
     /tmp/ccQLD4k7.s:207    .text:0000000000000154 .LVL26
     /tmp/ccQLD4k7.s:214    .text:0000000000000168 .LVL27
     /tmp/ccQLD4k7.s:219    .text:0000000000000174 .LVL28
     /tmp/ccQLD4k7.s:224    .text:0000000000000184 .LVL29
     /tmp/ccQLD4k7.s:238    .text:000000000000019c .LVL32
     /tmp/ccQLD4k7.s:2078   .debug_str:0000000000000356 .LASF63
GAS LISTING /tmp/ccQLD4k7.s 			page 17


     /tmp/ccQLD4k7.s:9      .text:0000000000000000 .LFB20
     /tmp/ccQLD4k7.s:74     .text:0000000000000070 .LFE20
     /tmp/ccQLD4k7.s:1923   .debug_loc:00000000000001bc .LLST0
     /tmp/ccQLD4k7.s:41     .text:0000000000000038 .LVL2
     /tmp/ccQLD4k7.s:46     .text:0000000000000048 .LVL3
     /tmp/ccQLD4k7.s:71     .text:000000000000006c .LVL6
     /tmp/ccQLD4k7.s:2004   .debug_str:0000000000000138 .LASF45
     /tmp/ccQLD4k7.s:2066   .debug_str:00000000000002f6 .LASF47
     /tmp/ccQLD4k7.s:2086   .debug_str:0000000000000422 .LASF46
     /tmp/ccQLD4k7.s:1968   .debug_str:000000000000002c .LASF48
     /tmp/ccQLD4k7.s:2074   .debug_str:0000000000000334 .LASF49
     /tmp/ccQLD4k7.s:1996   .debug_str:00000000000000f2 .LASF50
     /tmp/ccQLD4k7.s:1994   .debug_str:00000000000000dd .LASF51
     /tmp/ccQLD4k7.s:1980   .debug_str:0000000000000073 .LASF52
     /tmp/ccQLD4k7.s:275    .text:00000000000001b4 .LVL35
     /tmp/ccQLD4k7.s:289    .text:00000000000001cc .LVL36
     /tmp/ccQLD4k7.s:297    .text:00000000000001dc .LVL38
     /tmp/ccQLD4k7.s:316    .text:000000000000020c .LVL42
     /tmp/ccQLD4k7.s:318    .text:0000000000000210 .LVL43
     /tmp/ccQLD4k7.s:382    .text:00000000000002a4 .LVL55
     /tmp/ccQLD4k7.s:384    .text:00000000000002a8 .LVL56
     /tmp/ccQLD4k7.s:402    .text:00000000000002c4 .LVL58
     /tmp/ccQLD4k7.s:346    .text:0000000000000244 .LVL47
     /tmp/ccQLD4k7.s:350    .text:000000000000024c .LVL48
     /tmp/ccQLD4k7.s:405    .text:00000000000002c8 .LVL59
     /tmp/ccQLD4k7.s:100    .text:0000000000000070 .LVL7
     /tmp/ccQLD4k7.s:118    .text:0000000000000090 .LVL9
     /tmp/ccQLD4k7.s:114    .text:0000000000000088 .LVL8
     /tmp/ccQLD4k7.s:137    .text:00000000000000c0 .LVL13
     /tmp/ccQLD4k7.s:139    .text:00000000000000c4 .LVL14
     /tmp/ccQLD4k7.s:227    .text:0000000000000188 .LVL30
     /tmp/ccQLD4k7.s:229    .text:000000000000018c .LVL31
     /tmp/ccQLD4k7.s:247    .text:00000000000001a8 .LVL33
     /tmp/ccQLD4k7.s:168    .text:00000000000000ec .LVL17
     /tmp/ccQLD4k7.s:191    .text:0000000000000128 .LVL22
     /tmp/ccQLD4k7.s:195    .text:0000000000000130 .LVL23
     /tmp/ccQLD4k7.s:250    .text:00000000000001ac .LVL34
     /tmp/ccQLD4k7.s:13     .text:0000000000000000 .LVL0
     /tmp/ccQLD4k7.s:35     .text:000000000000002c .LVL1
     /tmp/ccQLD4k7.s:59     .text:0000000000000058 .LVL4
     /tmp/ccQLD4k7.s:65     .text:0000000000000064 .LVL5
     /tmp/ccQLD4k7.s:418    .debug_info:0000000000000000 .Ldebug_info0

UNDEFINED SYMBOLS
_Z15thread_dispatchv
_Z11printStringPKc
_Z12printIntegerm
_Z11thread_joinP3TCB
