GAS LISTING /tmp/cchvhxki.s 			page 1


   1              		.file	"ConsumerProducer_CPP_Sync_API_test.cpp"
   2              		.option pic
   3              		.option norelax
   4              		.text
   5              	.Ltext0:
   6              		.section	.text._ZN12ConsumerSyncD2Ev,"axG",@progbits,_ZN12ConsumerSyncD5Ev,comdat
   7              		.align	2
   8              		.weak	_ZN12ConsumerSyncD2Ev
  10              	_ZN12ConsumerSyncD2Ev:
  11              	.LFB58:
  12              		.file 1 "test/ConsumerProducer_CPP_Sync_API_test.cpp"
   1:test/ConsumerProducer_CPP_Sync_API_test.cpp **** #include "../h/syscall_cpp.hpp"
   2:test/ConsumerProducer_CPP_Sync_API_test.cpp **** 
   3:test/ConsumerProducer_CPP_Sync_API_test.cpp **** #include "buffer_CPP_API.hpp"
   4:test/ConsumerProducer_CPP_Sync_API_test.cpp **** 
   5:test/ConsumerProducer_CPP_Sync_API_test.cpp **** static Semaphore* waitForAll;
   6:test/ConsumerProducer_CPP_Sync_API_test.cpp **** 
   7:test/ConsumerProducer_CPP_Sync_API_test.cpp **** struct thread_data {
   8:test/ConsumerProducer_CPP_Sync_API_test.cpp ****     int id;
   9:test/ConsumerProducer_CPP_Sync_API_test.cpp ****     BufferCPP *buffer;
  10:test/ConsumerProducer_CPP_Sync_API_test.cpp ****     Semaphore* wait;
  11:test/ConsumerProducer_CPP_Sync_API_test.cpp **** };
  12:test/ConsumerProducer_CPP_Sync_API_test.cpp **** 
  13:test/ConsumerProducer_CPP_Sync_API_test.cpp **** static volatile int threadEnd = 0;
  14:test/ConsumerProducer_CPP_Sync_API_test.cpp **** 
  15:test/ConsumerProducer_CPP_Sync_API_test.cpp **** class ProducerKeyboard:public Thread {
  16:test/ConsumerProducer_CPP_Sync_API_test.cpp ****     thread_data* td;
  17:test/ConsumerProducer_CPP_Sync_API_test.cpp ****     void producerKeyboard(void *arg);
  18:test/ConsumerProducer_CPP_Sync_API_test.cpp **** public:
  19:test/ConsumerProducer_CPP_Sync_API_test.cpp ****     ProducerKeyboard(thread_data* _td):Thread(), td(_td) {}
  20:test/ConsumerProducer_CPP_Sync_API_test.cpp **** 
  21:test/ConsumerProducer_CPP_Sync_API_test.cpp ****     void run() override {
  22:test/ConsumerProducer_CPP_Sync_API_test.cpp ****         producerKeyboard(td);
  23:test/ConsumerProducer_CPP_Sync_API_test.cpp ****     }
  24:test/ConsumerProducer_CPP_Sync_API_test.cpp **** };
  25:test/ConsumerProducer_CPP_Sync_API_test.cpp **** 
  26:test/ConsumerProducer_CPP_Sync_API_test.cpp **** void ProducerKeyboard::producerKeyboard(void *arg) {
  27:test/ConsumerProducer_CPP_Sync_API_test.cpp ****     struct thread_data *data = (struct thread_data *) arg;
  28:test/ConsumerProducer_CPP_Sync_API_test.cpp **** 
  29:test/ConsumerProducer_CPP_Sync_API_test.cpp ****     int key;
  30:test/ConsumerProducer_CPP_Sync_API_test.cpp ****     int i = 0;
  31:test/ConsumerProducer_CPP_Sync_API_test.cpp ****     while ((key = getc()) != 'A') {
  32:test/ConsumerProducer_CPP_Sync_API_test.cpp ****         data->buffer->put(key);
  33:test/ConsumerProducer_CPP_Sync_API_test.cpp ****         i++;
  34:test/ConsumerProducer_CPP_Sync_API_test.cpp **** 
  35:test/ConsumerProducer_CPP_Sync_API_test.cpp ****         if (i % (10 * data->id) == 0) {
  36:test/ConsumerProducer_CPP_Sync_API_test.cpp ****             Thread::dispatch();
  37:test/ConsumerProducer_CPP_Sync_API_test.cpp ****         }
  38:test/ConsumerProducer_CPP_Sync_API_test.cpp ****     }
  39:test/ConsumerProducer_CPP_Sync_API_test.cpp **** 
  40:test/ConsumerProducer_CPP_Sync_API_test.cpp ****     threadEnd = 1;
  41:test/ConsumerProducer_CPP_Sync_API_test.cpp ****     td->buffer->put('!');
  42:test/ConsumerProducer_CPP_Sync_API_test.cpp **** 
  43:test/ConsumerProducer_CPP_Sync_API_test.cpp ****     data->wait->signal();
  44:test/ConsumerProducer_CPP_Sync_API_test.cpp **** }
  45:test/ConsumerProducer_CPP_Sync_API_test.cpp **** 
  46:test/ConsumerProducer_CPP_Sync_API_test.cpp **** class ProducerSync:public Thread {
GAS LISTING /tmp/cchvhxki.s 			page 2


  47:test/ConsumerProducer_CPP_Sync_API_test.cpp ****     thread_data* td;
  48:test/ConsumerProducer_CPP_Sync_API_test.cpp ****     void producer(void *arg);
  49:test/ConsumerProducer_CPP_Sync_API_test.cpp **** public:
  50:test/ConsumerProducer_CPP_Sync_API_test.cpp ****     ProducerSync(thread_data* _td):Thread(), td(_td) {}
  51:test/ConsumerProducer_CPP_Sync_API_test.cpp **** 
  52:test/ConsumerProducer_CPP_Sync_API_test.cpp ****     void run() override {
  53:test/ConsumerProducer_CPP_Sync_API_test.cpp ****         producer(td);
  54:test/ConsumerProducer_CPP_Sync_API_test.cpp ****     }
  55:test/ConsumerProducer_CPP_Sync_API_test.cpp **** };
  56:test/ConsumerProducer_CPP_Sync_API_test.cpp **** 
  57:test/ConsumerProducer_CPP_Sync_API_test.cpp **** void ProducerSync::producer(void *arg) {
  58:test/ConsumerProducer_CPP_Sync_API_test.cpp ****     struct thread_data *data = (struct thread_data *) arg;
  59:test/ConsumerProducer_CPP_Sync_API_test.cpp **** 
  60:test/ConsumerProducer_CPP_Sync_API_test.cpp ****     int i = 0;
  61:test/ConsumerProducer_CPP_Sync_API_test.cpp ****     while (!threadEnd) {
  62:test/ConsumerProducer_CPP_Sync_API_test.cpp ****         data->buffer->put(data->id + '0');
  63:test/ConsumerProducer_CPP_Sync_API_test.cpp ****         i++;
  64:test/ConsumerProducer_CPP_Sync_API_test.cpp **** 
  65:test/ConsumerProducer_CPP_Sync_API_test.cpp ****         if (i % (10 * data->id) == 0) {
  66:test/ConsumerProducer_CPP_Sync_API_test.cpp ****             Thread::dispatch();
  67:test/ConsumerProducer_CPP_Sync_API_test.cpp ****         }
  68:test/ConsumerProducer_CPP_Sync_API_test.cpp ****     }
  69:test/ConsumerProducer_CPP_Sync_API_test.cpp **** 
  70:test/ConsumerProducer_CPP_Sync_API_test.cpp ****     data->wait->signal();
  71:test/ConsumerProducer_CPP_Sync_API_test.cpp **** }
  72:test/ConsumerProducer_CPP_Sync_API_test.cpp **** 
  73:test/ConsumerProducer_CPP_Sync_API_test.cpp **** class ConsumerSync:public Thread {
  13              		.loc 1 73 7
  14              		.cfi_startproc
  15              	.LVL0:
  16 0000 130101FF 		addi	sp,sp,-16
  17              		.cfi_def_cfa_offset 16
  18 0004 23341100 		sd	ra,8(sp)
  19 0008 23308100 		sd	s0,0(sp)
  20              		.cfi_offset 1, -8
  21              		.cfi_offset 8, -16
  22 000c 13040101 		addi	s0,sp,16
  23              		.cfi_def_cfa 8, 0
  24              	.LBB23:
  25              		.loc 1 73 7 is_stmt 0
  26 0010 97070000 		lla	a5,_ZTV12ConsumerSync+16
  26      93870700 
  27 0018 2330F500 		sd	a5,0(a0)
  28 001c 97000000 		call	_ZN6ThreadD2Ev@plt
  28      E7800000 
  29              	.LVL1:
  30              	.LBE23:
  31 0024 83308100 		ld	ra,8(sp)
  32              		.cfi_restore 1
  33 0028 03340100 		ld	s0,0(sp)
  34              		.cfi_restore 8
  35              		.cfi_def_cfa 2, 16
  36 002c 13010101 		addi	sp,sp,16
  37              		.cfi_def_cfa_offset 0
  38 0030 67800000 		jr	ra
  39              		.cfi_endproc
  40              	.LFE58:
GAS LISTING /tmp/cchvhxki.s 			page 3


  42              		.weak	_ZN12ConsumerSyncD1Ev
  43              		.set	_ZN12ConsumerSyncD1Ev,_ZN12ConsumerSyncD2Ev
  44              		.section	.text._ZN12ConsumerSyncD0Ev,"axG",@progbits,_ZN12ConsumerSyncD5Ev,comdat
  45              		.align	2
  46              		.weak	_ZN12ConsumerSyncD0Ev
  48              	_ZN12ConsumerSyncD0Ev:
  49              	.LFB60:
  50              		.loc 1 73 7 is_stmt 1
  51              		.cfi_startproc
  52              	.LVL2:
  53 0000 130101FE 		addi	sp,sp,-32
  54              		.cfi_def_cfa_offset 32
  55 0004 233C1100 		sd	ra,24(sp)
  56 0008 23388100 		sd	s0,16(sp)
  57 000c 23349100 		sd	s1,8(sp)
  58              		.cfi_offset 1, -8
  59              		.cfi_offset 8, -16
  60              		.cfi_offset 9, -24
  61 0010 13040102 		addi	s0,sp,32
  62              		.cfi_def_cfa 8, 0
  63 0014 93040500 		mv	s1,a0
  64              	.LVL3:
  65              	.LBB24:
  66              	.LBB25:
  67              		.loc 1 73 7 is_stmt 0
  68 0018 97070000 		lla	a5,_ZTV12ConsumerSync+16
  68      93870700 
  69 0020 2330F500 		sd	a5,0(a0)
  70 0024 97000000 		call	_ZN6ThreadD2Ev@plt
  70      E7800000 
  71              	.LVL4:
  72              	.LBE25:
  73              	.LBE24:
  74 002c 13850400 		mv	a0,s1
  75 0030 97000000 		call	_ZdlPv@plt
  75      E7800000 
  76              	.LVL5:
  77 0038 83308101 		ld	ra,24(sp)
  78              		.cfi_restore 1
  79 003c 03340101 		ld	s0,16(sp)
  80              		.cfi_restore 8
  81              		.cfi_def_cfa 2, 32
  82 0040 83348100 		ld	s1,8(sp)
  83              		.cfi_restore 9
  84              	.LVL6:
  85 0044 13010102 		addi	sp,sp,32
  86              		.cfi_def_cfa_offset 0
  87 0048 67800000 		jr	ra
  88              		.cfi_endproc
  89              	.LFE60:
  91              		.section	.text._ZN12ProducerSyncD2Ev,"axG",@progbits,_ZN12ProducerSyncD5Ev,comdat
  92              		.align	2
  93              		.weak	_ZN12ProducerSyncD2Ev
  95              	_ZN12ProducerSyncD2Ev:
  96              	.LFB62:
  46:test/ConsumerProducer_CPP_Sync_API_test.cpp ****     thread_data* td;
  97              		.loc 1 46 7 is_stmt 1
GAS LISTING /tmp/cchvhxki.s 			page 4


  98              		.cfi_startproc
  99              	.LVL7:
 100 0000 130101FF 		addi	sp,sp,-16
 101              		.cfi_def_cfa_offset 16
 102 0004 23341100 		sd	ra,8(sp)
 103 0008 23308100 		sd	s0,0(sp)
 104              		.cfi_offset 1, -8
 105              		.cfi_offset 8, -16
 106 000c 13040101 		addi	s0,sp,16
 107              		.cfi_def_cfa 8, 0
 108              	.LBB26:
  46:test/ConsumerProducer_CPP_Sync_API_test.cpp ****     thread_data* td;
 109              		.loc 1 46 7 is_stmt 0
 110 0010 97070000 		lla	a5,_ZTV12ProducerSync+16
 110      93870700 
 111 0018 2330F500 		sd	a5,0(a0)
 112 001c 97000000 		call	_ZN6ThreadD2Ev@plt
 112      E7800000 
 113              	.LVL8:
 114              	.LBE26:
 115 0024 83308100 		ld	ra,8(sp)
 116              		.cfi_restore 1
 117 0028 03340100 		ld	s0,0(sp)
 118              		.cfi_restore 8
 119              		.cfi_def_cfa 2, 16
 120 002c 13010101 		addi	sp,sp,16
 121              		.cfi_def_cfa_offset 0
 122 0030 67800000 		jr	ra
 123              		.cfi_endproc
 124              	.LFE62:
 126              		.weak	_ZN12ProducerSyncD1Ev
 127              		.set	_ZN12ProducerSyncD1Ev,_ZN12ProducerSyncD2Ev
 128              		.section	.text._ZN12ProducerSyncD0Ev,"axG",@progbits,_ZN12ProducerSyncD5Ev,comdat
 129              		.align	2
 130              		.weak	_ZN12ProducerSyncD0Ev
 132              	_ZN12ProducerSyncD0Ev:
 133              	.LFB64:
  46:test/ConsumerProducer_CPP_Sync_API_test.cpp ****     thread_data* td;
 134              		.loc 1 46 7 is_stmt 1
 135              		.cfi_startproc
 136              	.LVL9:
 137 0000 130101FE 		addi	sp,sp,-32
 138              		.cfi_def_cfa_offset 32
 139 0004 233C1100 		sd	ra,24(sp)
 140 0008 23388100 		sd	s0,16(sp)
 141 000c 23349100 		sd	s1,8(sp)
 142              		.cfi_offset 1, -8
 143              		.cfi_offset 8, -16
 144              		.cfi_offset 9, -24
 145 0010 13040102 		addi	s0,sp,32
 146              		.cfi_def_cfa 8, 0
 147 0014 93040500 		mv	s1,a0
 148              	.LVL10:
 149              	.LBB27:
 150              	.LBB28:
  46:test/ConsumerProducer_CPP_Sync_API_test.cpp ****     thread_data* td;
 151              		.loc 1 46 7 is_stmt 0
GAS LISTING /tmp/cchvhxki.s 			page 5


 152 0018 97070000 		lla	a5,_ZTV12ProducerSync+16
 152      93870700 
 153 0020 2330F500 		sd	a5,0(a0)
 154 0024 97000000 		call	_ZN6ThreadD2Ev@plt
 154      E7800000 
 155              	.LVL11:
 156              	.LBE28:
 157              	.LBE27:
 158 002c 13850400 		mv	a0,s1
 159 0030 97000000 		call	_ZdlPv@plt
 159      E7800000 
 160              	.LVL12:
 161 0038 83308101 		ld	ra,24(sp)
 162              		.cfi_restore 1
 163 003c 03340101 		ld	s0,16(sp)
 164              		.cfi_restore 8
 165              		.cfi_def_cfa 2, 32
 166 0040 83348100 		ld	s1,8(sp)
 167              		.cfi_restore 9
 168              	.LVL13:
 169 0044 13010102 		addi	sp,sp,32
 170              		.cfi_def_cfa_offset 0
 171 0048 67800000 		jr	ra
 172              		.cfi_endproc
 173              	.LFE64:
 175              		.section	.text._ZN16ProducerKeyboardD2Ev,"axG",@progbits,_ZN16ProducerKeyboardD5Ev,comdat
 176              		.align	2
 177              		.weak	_ZN16ProducerKeyboardD2Ev
 179              	_ZN16ProducerKeyboardD2Ev:
 180              	.LFB66:
  15:test/ConsumerProducer_CPP_Sync_API_test.cpp ****     thread_data* td;
 181              		.loc 1 15 7 is_stmt 1
 182              		.cfi_startproc
 183              	.LVL14:
 184 0000 130101FF 		addi	sp,sp,-16
 185              		.cfi_def_cfa_offset 16
 186 0004 23341100 		sd	ra,8(sp)
 187 0008 23308100 		sd	s0,0(sp)
 188              		.cfi_offset 1, -8
 189              		.cfi_offset 8, -16
 190 000c 13040101 		addi	s0,sp,16
 191              		.cfi_def_cfa 8, 0
 192              	.LBB29:
  15:test/ConsumerProducer_CPP_Sync_API_test.cpp ****     thread_data* td;
 193              		.loc 1 15 7 is_stmt 0
 194 0010 97070000 		lla	a5,_ZTV16ProducerKeyboard+16
 194      93870700 
 195 0018 2330F500 		sd	a5,0(a0)
 196 001c 97000000 		call	_ZN6ThreadD2Ev@plt
 196      E7800000 
 197              	.LVL15:
 198              	.LBE29:
 199 0024 83308100 		ld	ra,8(sp)
 200              		.cfi_restore 1
 201 0028 03340100 		ld	s0,0(sp)
 202              		.cfi_restore 8
 203              		.cfi_def_cfa 2, 16
GAS LISTING /tmp/cchvhxki.s 			page 6


 204 002c 13010101 		addi	sp,sp,16
 205              		.cfi_def_cfa_offset 0
 206 0030 67800000 		jr	ra
 207              		.cfi_endproc
 208              	.LFE66:
 210              		.weak	_ZN16ProducerKeyboardD1Ev
 211              		.set	_ZN16ProducerKeyboardD1Ev,_ZN16ProducerKeyboardD2Ev
 212              		.section	.text._ZN16ProducerKeyboardD0Ev,"axG",@progbits,_ZN16ProducerKeyboardD5Ev,comdat
 213              		.align	2
 214              		.weak	_ZN16ProducerKeyboardD0Ev
 216              	_ZN16ProducerKeyboardD0Ev:
 217              	.LFB68:
  15:test/ConsumerProducer_CPP_Sync_API_test.cpp ****     thread_data* td;
 218              		.loc 1 15 7 is_stmt 1
 219              		.cfi_startproc
 220              	.LVL16:
 221 0000 130101FE 		addi	sp,sp,-32
 222              		.cfi_def_cfa_offset 32
 223 0004 233C1100 		sd	ra,24(sp)
 224 0008 23388100 		sd	s0,16(sp)
 225 000c 23349100 		sd	s1,8(sp)
 226              		.cfi_offset 1, -8
 227              		.cfi_offset 8, -16
 228              		.cfi_offset 9, -24
 229 0010 13040102 		addi	s0,sp,32
 230              		.cfi_def_cfa 8, 0
 231 0014 93040500 		mv	s1,a0
 232              	.LVL17:
 233              	.LBB30:
 234              	.LBB31:
  15:test/ConsumerProducer_CPP_Sync_API_test.cpp ****     thread_data* td;
 235              		.loc 1 15 7 is_stmt 0
 236 0018 97070000 		lla	a5,_ZTV16ProducerKeyboard+16
 236      93870700 
 237 0020 2330F500 		sd	a5,0(a0)
 238 0024 97000000 		call	_ZN6ThreadD2Ev@plt
 238      E7800000 
 239              	.LVL18:
 240              	.LBE31:
 241              	.LBE30:
 242 002c 13850400 		mv	a0,s1
 243 0030 97000000 		call	_ZdlPv@plt
 243      E7800000 
 244              	.LVL19:
 245 0038 83308101 		ld	ra,24(sp)
 246              		.cfi_restore 1
 247 003c 03340101 		ld	s0,16(sp)
 248              		.cfi_restore 8
 249              		.cfi_def_cfa 2, 32
 250 0040 83348100 		ld	s1,8(sp)
 251              		.cfi_restore 9
 252              	.LVL20:
 253 0044 13010102 		addi	sp,sp,32
 254              		.cfi_def_cfa_offset 0
 255 0048 67800000 		jr	ra
 256              		.cfi_endproc
 257              	.LFE68:
GAS LISTING /tmp/cchvhxki.s 			page 7


 259              		.text
 260              		.align	2
 261              		.globl	_ZN16ProducerKeyboard16producerKeyboardEPv
 263              	_ZN16ProducerKeyboard16producerKeyboardEPv:
 264              	.LFB42:
  26:test/ConsumerProducer_CPP_Sync_API_test.cpp ****     struct thread_data *data = (struct thread_data *) arg;
 265              		.loc 1 26 52 is_stmt 1
 266              		.cfi_startproc
 267              	.LVL21:
 268 0000 130101FD 		addi	sp,sp,-48
 269              		.cfi_def_cfa_offset 48
 270 0004 23341102 		sd	ra,40(sp)
 271 0008 23308102 		sd	s0,32(sp)
 272 000c 233C9100 		sd	s1,24(sp)
 273 0010 23382101 		sd	s2,16(sp)
 274 0014 23343101 		sd	s3,8(sp)
 275              		.cfi_offset 1, -8
 276              		.cfi_offset 8, -16
 277              		.cfi_offset 9, -24
 278              		.cfi_offset 18, -32
 279              		.cfi_offset 19, -40
 280 0018 13040103 		addi	s0,sp,48
 281              		.cfi_def_cfa 8, 0
 282 001c 93090500 		mv	s3,a0
 283 0020 93840500 		mv	s1,a1
  27:test/ConsumerProducer_CPP_Sync_API_test.cpp **** 
 284              		.loc 1 27 5
 285              	.LVL22:
  29:test/ConsumerProducer_CPP_Sync_API_test.cpp ****     int i = 0;
 286              		.loc 1 29 5
  30:test/ConsumerProducer_CPP_Sync_API_test.cpp ****     while ((key = getc()) != 'A') {
 287              		.loc 1 30 5
  30:test/ConsumerProducer_CPP_Sync_API_test.cpp ****     while ((key = getc()) != 'A') {
 288              		.loc 1 30 9 is_stmt 0
 289 0024 13090000 		li	s2,0
 290 0028 6F00C000 		j	.L14
 291              	.LVL23:
 292              	.L18:
  36:test/ConsumerProducer_CPP_Sync_API_test.cpp ****         }
 293              		.loc 1 36 13 is_stmt 1
  36:test/ConsumerProducer_CPP_Sync_API_test.cpp ****         }
 294              		.loc 1 36 29 is_stmt 0
 295 002c 97000000 		call	_ZN6Thread8dispatchEv@plt
 295      E7800000 
 296              	.LVL24:
 297              	.L14:
  31:test/ConsumerProducer_CPP_Sync_API_test.cpp ****         data->buffer->put(key);
 298              		.loc 1 31 5 is_stmt 1
  31:test/ConsumerProducer_CPP_Sync_API_test.cpp ****         data->buffer->put(key);
 299              		.loc 1 31 27
  31:test/ConsumerProducer_CPP_Sync_API_test.cpp ****         data->buffer->put(key);
 300              		.loc 1 31 23 is_stmt 0
 301 0034 97000000 		call	_Z4getcv@plt
 301      E7800000 
 302              	.LVL25:
  31:test/ConsumerProducer_CPP_Sync_API_test.cpp ****         data->buffer->put(key);
 303              		.loc 1 31 17
GAS LISTING /tmp/cchvhxki.s 			page 8


 304 003c 9B050500 		sext.w	a1,a0
 305              	.LVL26:
  31:test/ConsumerProducer_CPP_Sync_API_test.cpp ****         data->buffer->put(key);
 306              		.loc 1 31 27
 307 0040 93071004 		li	a5,65
 308 0044 638AF502 		beq	a1,a5,.L15
  32:test/ConsumerProducer_CPP_Sync_API_test.cpp ****         i++;
 309              		.loc 1 32 9 is_stmt 1
  32:test/ConsumerProducer_CPP_Sync_API_test.cpp ****         i++;
 310              		.loc 1 32 26 is_stmt 0
 311 0048 03B58400 		ld	a0,8(s1)
 312 004c 97000000 		call	_ZN9BufferCPP3putEi@plt
 312      E7800000 
 313              	.LVL27:
  33:test/ConsumerProducer_CPP_Sync_API_test.cpp **** 
 314              		.loc 1 33 9 is_stmt 1
  33:test/ConsumerProducer_CPP_Sync_API_test.cpp **** 
 315              		.loc 1 33 10 is_stmt 0
 316 0054 1B071900 		addiw	a4,s2,1
 317 0058 1B090700 		sext.w	s2,a4
 318              	.LVL28:
  35:test/ConsumerProducer_CPP_Sync_API_test.cpp ****             Thread::dispatch();
 319              		.loc 1 35 9 is_stmt 1
  35:test/ConsumerProducer_CPP_Sync_API_test.cpp ****             Thread::dispatch();
 320              		.loc 1 35 29 is_stmt 0
 321 005c 83A60400 		lw	a3,0(s1)
  35:test/ConsumerProducer_CPP_Sync_API_test.cpp ****             Thread::dispatch();
 322              		.loc 1 35 21
 323 0060 9B972600 		slliw	a5,a3,2
 324 0064 BB87D700 		addw	a5,a5,a3
 325 0068 9B971700 		slliw	a5,a5,1
  35:test/ConsumerProducer_CPP_Sync_API_test.cpp ****             Thread::dispatch();
 326              		.loc 1 35 15
 327 006c BB67F702 		remw	a5,a4,a5
  35:test/ConsumerProducer_CPP_Sync_API_test.cpp ****             Thread::dispatch();
 328              		.loc 1 35 9
 329 0070 E39207FC 		bnez	a5,.L14
 330 0074 6FF09FFB 		j	.L18
 331              	.LVL29:
 332              	.L15:
  40:test/ConsumerProducer_CPP_Sync_API_test.cpp ****     td->buffer->put('!');
 333              		.loc 1 40 5 is_stmt 1
  40:test/ConsumerProducer_CPP_Sync_API_test.cpp ****     td->buffer->put('!');
 334              		.loc 1 40 15 is_stmt 0
 335 0078 93071000 		li	a5,1
 336 007c 17070000 		sw	a5,.LANCHOR0,a4
 336      2320F700 
  41:test/ConsumerProducer_CPP_Sync_API_test.cpp **** 
 337              		.loc 1 41 5 is_stmt 1
 338 0084 83B70902 		ld	a5,32(s3)
  41:test/ConsumerProducer_CPP_Sync_API_test.cpp **** 
 339              		.loc 1 41 20 is_stmt 0
 340 0088 93051002 		li	a1,33
 341              	.LVL30:
 342 008c 03B58700 		ld	a0,8(a5)
 343              	.LVL31:
 344 0090 97000000 		call	_ZN9BufferCPP3putEi@plt
GAS LISTING /tmp/cchvhxki.s 			page 9


 344      E7800000 
 345              	.LVL32:
  43:test/ConsumerProducer_CPP_Sync_API_test.cpp **** }
 346              		.loc 1 43 5 is_stmt 1
  43:test/ConsumerProducer_CPP_Sync_API_test.cpp **** }
 347              		.loc 1 43 23 is_stmt 0
 348 0098 03B50401 		ld	a0,16(s1)
 349 009c 97000000 		call	_ZN9Semaphore6signalEv@plt
 349      E7800000 
 350              	.LVL33:
  44:test/ConsumerProducer_CPP_Sync_API_test.cpp **** 
 351              		.loc 1 44 1
 352 00a4 83308102 		ld	ra,40(sp)
 353              		.cfi_restore 1
 354 00a8 03340102 		ld	s0,32(sp)
 355              		.cfi_restore 8
 356              		.cfi_def_cfa 2, 48
 357 00ac 83348101 		ld	s1,24(sp)
 358              		.cfi_restore 9
 359              	.LVL34:
 360 00b0 03390101 		ld	s2,16(sp)
 361              		.cfi_restore 18
 362              	.LVL35:
 363 00b4 83398100 		ld	s3,8(sp)
 364              		.cfi_restore 19
 365              	.LVL36:
 366 00b8 13010103 		addi	sp,sp,48
 367              		.cfi_def_cfa_offset 0
 368 00bc 67800000 		jr	ra
 369              		.cfi_endproc
 370              	.LFE42:
 372              		.section	.text._ZN16ProducerKeyboard3runEv,"axG",@progbits,_ZN16ProducerKeyboard3runEv,comdat
 373              		.align	2
 374              		.weak	_ZN16ProducerKeyboard3runEv
 376              	_ZN16ProducerKeyboard3runEv:
 377              	.LFB41:
  21:test/ConsumerProducer_CPP_Sync_API_test.cpp ****         producerKeyboard(td);
 378              		.loc 1 21 10 is_stmt 1
 379              		.cfi_startproc
 380              	.LVL37:
 381 0000 130101FF 		addi	sp,sp,-16
 382              		.cfi_def_cfa_offset 16
 383 0004 23341100 		sd	ra,8(sp)
 384 0008 23308100 		sd	s0,0(sp)
 385              		.cfi_offset 1, -8
 386              		.cfi_offset 8, -16
 387 000c 13040101 		addi	s0,sp,16
 388              		.cfi_def_cfa 8, 0
  22:test/ConsumerProducer_CPP_Sync_API_test.cpp ****     }
 389              		.loc 1 22 9
  22:test/ConsumerProducer_CPP_Sync_API_test.cpp ****     }
 390              		.loc 1 22 25 is_stmt 0
 391 0010 83350502 		ld	a1,32(a0)
 392 0014 97000000 		call	_ZN16ProducerKeyboard16producerKeyboardEPv
 392      E7800000 
 393              	.LVL38:
  23:test/ConsumerProducer_CPP_Sync_API_test.cpp **** };
GAS LISTING /tmp/cchvhxki.s 			page 10


 394              		.loc 1 23 5
 395 001c 83308100 		ld	ra,8(sp)
 396              		.cfi_restore 1
 397 0020 03340100 		ld	s0,0(sp)
 398              		.cfi_restore 8
 399              		.cfi_def_cfa 2, 16
 400 0024 13010101 		addi	sp,sp,16
 401              		.cfi_def_cfa_offset 0
 402 0028 67800000 		jr	ra
 403              		.cfi_endproc
 404              	.LFE41:
 406              		.text
 407              		.align	2
 408              		.globl	_ZN12ProducerSync8producerEPv
 410              	_ZN12ProducerSync8producerEPv:
 411              	.LFB47:
  57:test/ConsumerProducer_CPP_Sync_API_test.cpp ****     struct thread_data *data = (struct thread_data *) arg;
 412              		.loc 1 57 40 is_stmt 1
 413              		.cfi_startproc
 414              	.LVL39:
 415 00c0 130101FE 		addi	sp,sp,-32
 416              		.cfi_def_cfa_offset 32
 417 00c4 233C1100 		sd	ra,24(sp)
 418 00c8 23388100 		sd	s0,16(sp)
 419 00cc 23349100 		sd	s1,8(sp)
 420 00d0 23302101 		sd	s2,0(sp)
 421              		.cfi_offset 1, -8
 422              		.cfi_offset 8, -16
 423              		.cfi_offset 9, -24
 424              		.cfi_offset 18, -32
 425 00d4 13040102 		addi	s0,sp,32
 426              		.cfi_def_cfa 8, 0
 427 00d8 93840500 		mv	s1,a1
  58:test/ConsumerProducer_CPP_Sync_API_test.cpp **** 
 428              		.loc 1 58 5
 429              	.LVL40:
  60:test/ConsumerProducer_CPP_Sync_API_test.cpp ****     while (!threadEnd) {
 430              		.loc 1 60 5
  60:test/ConsumerProducer_CPP_Sync_API_test.cpp ****     while (!threadEnd) {
 431              		.loc 1 60 9 is_stmt 0
 432 00dc 13090000 		li	s2,0
 433 00e0 6F00C000 		j	.L22
 434              	.LVL41:
 435              	.L26:
  66:test/ConsumerProducer_CPP_Sync_API_test.cpp ****         }
 436              		.loc 1 66 13 is_stmt 1
  66:test/ConsumerProducer_CPP_Sync_API_test.cpp ****         }
 437              		.loc 1 66 29 is_stmt 0
 438 00e4 97000000 		call	_ZN6Thread8dispatchEv@plt
 438      E7800000 
 439              	.LVL42:
 440              	.L22:
  61:test/ConsumerProducer_CPP_Sync_API_test.cpp ****         data->buffer->put(data->id + '0');
 441              		.loc 1 61 5 is_stmt 1
  61:test/ConsumerProducer_CPP_Sync_API_test.cpp ****         data->buffer->put(data->id + '0');
 442              		.loc 1 61 12
 443 00ec 97070000 		lw	a5,.LANCHOR0
GAS LISTING /tmp/cchvhxki.s 			page 11


 443      83A70700 
 444 00f4 639E0702 		bnez	a5,.L23
  62:test/ConsumerProducer_CPP_Sync_API_test.cpp ****         i++;
 445              		.loc 1 62 9
  62:test/ConsumerProducer_CPP_Sync_API_test.cpp ****         i++;
 446              		.loc 1 62 33 is_stmt 0
 447 00f8 83A50400 		lw	a1,0(s1)
  62:test/ConsumerProducer_CPP_Sync_API_test.cpp ****         i++;
 448              		.loc 1 62 26
 449 00fc 9B850503 		addiw	a1,a1,48
 450 0100 03B58400 		ld	a0,8(s1)
 451 0104 97000000 		call	_ZN9BufferCPP3putEi@plt
 451      E7800000 
 452              	.LVL43:
  63:test/ConsumerProducer_CPP_Sync_API_test.cpp **** 
 453              		.loc 1 63 9 is_stmt 1
  63:test/ConsumerProducer_CPP_Sync_API_test.cpp **** 
 454              		.loc 1 63 10 is_stmt 0
 455 010c 1B071900 		addiw	a4,s2,1
 456 0110 1B090700 		sext.w	s2,a4
 457              	.LVL44:
  65:test/ConsumerProducer_CPP_Sync_API_test.cpp ****             Thread::dispatch();
 458              		.loc 1 65 9 is_stmt 1
  65:test/ConsumerProducer_CPP_Sync_API_test.cpp ****             Thread::dispatch();
 459              		.loc 1 65 29 is_stmt 0
 460 0114 83A60400 		lw	a3,0(s1)
  65:test/ConsumerProducer_CPP_Sync_API_test.cpp ****             Thread::dispatch();
 461              		.loc 1 65 21
 462 0118 9B972600 		slliw	a5,a3,2
 463 011c BB87D700 		addw	a5,a5,a3
 464 0120 9B971700 		slliw	a5,a5,1
  65:test/ConsumerProducer_CPP_Sync_API_test.cpp ****             Thread::dispatch();
 465              		.loc 1 65 15
 466 0124 BB67F702 		remw	a5,a4,a5
  65:test/ConsumerProducer_CPP_Sync_API_test.cpp ****             Thread::dispatch();
 467              		.loc 1 65 9
 468 0128 E39207FC 		bnez	a5,.L22
 469 012c 6FF09FFB 		j	.L26
 470              	.LVL45:
 471              	.L23:
  70:test/ConsumerProducer_CPP_Sync_API_test.cpp **** }
 472              		.loc 1 70 5 is_stmt 1
  70:test/ConsumerProducer_CPP_Sync_API_test.cpp **** }
 473              		.loc 1 70 23 is_stmt 0
 474 0130 03B50401 		ld	a0,16(s1)
 475 0134 97000000 		call	_ZN9Semaphore6signalEv@plt
 475      E7800000 
 476              	.LVL46:
  71:test/ConsumerProducer_CPP_Sync_API_test.cpp **** 
 477              		.loc 1 71 1
 478 013c 83308101 		ld	ra,24(sp)
 479              		.cfi_restore 1
 480 0140 03340101 		ld	s0,16(sp)
 481              		.cfi_restore 8
 482              		.cfi_def_cfa 2, 32
 483 0144 83348100 		ld	s1,8(sp)
 484              		.cfi_restore 9
GAS LISTING /tmp/cchvhxki.s 			page 12


 485              	.LVL47:
 486 0148 03390100 		ld	s2,0(sp)
 487              		.cfi_restore 18
 488              	.LVL48:
 489 014c 13010102 		addi	sp,sp,32
 490              		.cfi_def_cfa_offset 0
 491 0150 67800000 		jr	ra
 492              		.cfi_endproc
 493              	.LFE47:
 495              		.section	.text._ZN12ProducerSync3runEv,"axG",@progbits,_ZN12ProducerSync3runEv,comdat
 496              		.align	2
 497              		.weak	_ZN12ProducerSync3runEv
 499              	_ZN12ProducerSync3runEv:
 500              	.LFB46:
  52:test/ConsumerProducer_CPP_Sync_API_test.cpp ****         producer(td);
 501              		.loc 1 52 10 is_stmt 1
 502              		.cfi_startproc
 503              	.LVL49:
 504 0000 130101FF 		addi	sp,sp,-16
 505              		.cfi_def_cfa_offset 16
 506 0004 23341100 		sd	ra,8(sp)
 507 0008 23308100 		sd	s0,0(sp)
 508              		.cfi_offset 1, -8
 509              		.cfi_offset 8, -16
 510 000c 13040101 		addi	s0,sp,16
 511              		.cfi_def_cfa 8, 0
  53:test/ConsumerProducer_CPP_Sync_API_test.cpp ****     }
 512              		.loc 1 53 9
  53:test/ConsumerProducer_CPP_Sync_API_test.cpp ****     }
 513              		.loc 1 53 17 is_stmt 0
 514 0010 83350502 		ld	a1,32(a0)
 515 0014 97000000 		call	_ZN12ProducerSync8producerEPv
 515      E7800000 
 516              	.LVL50:
  54:test/ConsumerProducer_CPP_Sync_API_test.cpp **** };
 517              		.loc 1 54 5
 518 001c 83308100 		ld	ra,8(sp)
 519              		.cfi_restore 1
 520 0020 03340100 		ld	s0,0(sp)
 521              		.cfi_restore 8
 522              		.cfi_def_cfa 2, 16
 523 0024 13010101 		addi	sp,sp,16
 524              		.cfi_def_cfa_offset 0
 525 0028 67800000 		jr	ra
 526              		.cfi_endproc
 527              	.LFE46:
 529              		.text
 530              		.align	2
 531              		.globl	_ZN12ConsumerSync8consumerEPv
 533              	_ZN12ConsumerSync8consumerEPv:
 534              	.LFB52:
  74:test/ConsumerProducer_CPP_Sync_API_test.cpp ****     thread_data* td;
  75:test/ConsumerProducer_CPP_Sync_API_test.cpp ****     void consumer(void *arg);
  76:test/ConsumerProducer_CPP_Sync_API_test.cpp **** public:
  77:test/ConsumerProducer_CPP_Sync_API_test.cpp ****     ConsumerSync(thread_data* _td):Thread(), td(_td) {}
  78:test/ConsumerProducer_CPP_Sync_API_test.cpp **** 
  79:test/ConsumerProducer_CPP_Sync_API_test.cpp ****     void run() override {
GAS LISTING /tmp/cchvhxki.s 			page 13


  80:test/ConsumerProducer_CPP_Sync_API_test.cpp ****         consumer(td);
  81:test/ConsumerProducer_CPP_Sync_API_test.cpp ****     }
  82:test/ConsumerProducer_CPP_Sync_API_test.cpp **** };
  83:test/ConsumerProducer_CPP_Sync_API_test.cpp **** 
  84:test/ConsumerProducer_CPP_Sync_API_test.cpp **** void ConsumerSync::consumer(void *arg) {
 535              		.loc 1 84 40 is_stmt 1
 536              		.cfi_startproc
 537              	.LVL51:
 538 0154 130101FD 		addi	sp,sp,-48
 539              		.cfi_def_cfa_offset 48
 540 0158 23341102 		sd	ra,40(sp)
 541 015c 23308102 		sd	s0,32(sp)
 542 0160 233C9100 		sd	s1,24(sp)
 543 0164 23382101 		sd	s2,16(sp)
 544 0168 23343101 		sd	s3,8(sp)
 545 016c 23304101 		sd	s4,0(sp)
 546              		.cfi_offset 1, -8
 547              		.cfi_offset 8, -16
 548              		.cfi_offset 9, -24
 549              		.cfi_offset 18, -32
 550              		.cfi_offset 19, -40
 551              		.cfi_offset 20, -48
 552 0170 13040103 		addi	s0,sp,48
 553              		.cfi_def_cfa 8, 0
 554 0174 93090500 		mv	s3,a0
 555 0178 13890500 		mv	s2,a1
  85:test/ConsumerProducer_CPP_Sync_API_test.cpp ****     struct thread_data *data = (struct thread_data *) arg;
 556              		.loc 1 85 5
 557              	.LVL52:
  86:test/ConsumerProducer_CPP_Sync_API_test.cpp **** 
  87:test/ConsumerProducer_CPP_Sync_API_test.cpp ****     int i = 0;
 558              		.loc 1 87 5
 559              		.loc 1 87 9 is_stmt 0
 560 017c 130A0000 		li	s4,0
 561 0180 6F00C001 		j	.L30
 562              	.LVL53:
 563              	.L36:
 564              	.LBB32:
  88:test/ConsumerProducer_CPP_Sync_API_test.cpp ****     while (!threadEnd) {
  89:test/ConsumerProducer_CPP_Sync_API_test.cpp ****         int key = data->buffer->get();
  90:test/ConsumerProducer_CPP_Sync_API_test.cpp ****         i++;
  91:test/ConsumerProducer_CPP_Sync_API_test.cpp **** 
  92:test/ConsumerProducer_CPP_Sync_API_test.cpp ****         putc(key);
  93:test/ConsumerProducer_CPP_Sync_API_test.cpp **** 
  94:test/ConsumerProducer_CPP_Sync_API_test.cpp ****         if (i % (5 * data->id) == 0) {
  95:test/ConsumerProducer_CPP_Sync_API_test.cpp ****             Thread::dispatch();
 565              		.loc 1 95 13 is_stmt 1
 566              		.loc 1 95 29 is_stmt 0
 567 0184 97000000 		call	_ZN6Thread8dispatchEv@plt
 567      E7800000 
 568              	.LVL54:
 569 018c 6F000005 		j	.L32
 570              	.LVL55:
 571              	.L37:
  96:test/ConsumerProducer_CPP_Sync_API_test.cpp ****         }
  97:test/ConsumerProducer_CPP_Sync_API_test.cpp **** 
  98:test/ConsumerProducer_CPP_Sync_API_test.cpp ****         if (i % 80 == 0) {
GAS LISTING /tmp/cchvhxki.s 			page 14


  99:test/ConsumerProducer_CPP_Sync_API_test.cpp ****             putc('\n');
 572              		.loc 1 99 13 is_stmt 1
 573              		.loc 1 99 17 is_stmt 0
 574 0190 1305A000 		li	a0,10
 575 0194 97000000 		call	_Z4putcc@plt
 575      E7800000 
 576              	.LVL56:
 577              	.L30:
 578              	.LBE32:
  88:test/ConsumerProducer_CPP_Sync_API_test.cpp ****     while (!threadEnd) {
 579              		.loc 1 88 5 is_stmt 1
  88:test/ConsumerProducer_CPP_Sync_API_test.cpp ****     while (!threadEnd) {
 580              		.loc 1 88 12
 581 019c 97070000 		lw	a5,.LANCHOR0
 581      83A70700 
 582 01a4 63920706 		bnez	a5,.L31
 583              	.LBB33:
  89:test/ConsumerProducer_CPP_Sync_API_test.cpp ****         i++;
 584              		.loc 1 89 9
  89:test/ConsumerProducer_CPP_Sync_API_test.cpp ****         i++;
 585              		.loc 1 89 36 is_stmt 0
 586 01a8 03358900 		ld	a0,8(s2)
 587 01ac 97000000 		call	_ZN9BufferCPP3getEv@plt
 587      E7800000 
 588              	.LVL57:
  90:test/ConsumerProducer_CPP_Sync_API_test.cpp **** 
 589              		.loc 1 90 9 is_stmt 1
  90:test/ConsumerProducer_CPP_Sync_API_test.cpp **** 
 590              		.loc 1 90 10 is_stmt 0
 591 01b4 9B041A00 		addiw	s1,s4,1
 592 01b8 1B8A0400 		sext.w	s4,s1
 593              	.LVL58:
  92:test/ConsumerProducer_CPP_Sync_API_test.cpp **** 
 594              		.loc 1 92 9 is_stmt 1
  92:test/ConsumerProducer_CPP_Sync_API_test.cpp **** 
 595              		.loc 1 92 13 is_stmt 0
 596 01bc 1375F50F 		andi	a0,a0,0xff
 597              	.LVL59:
 598 01c0 97000000 		call	_Z4putcc@plt
 598      E7800000 
 599              	.LVL60:
  94:test/ConsumerProducer_CPP_Sync_API_test.cpp ****             Thread::dispatch();
 600              		.loc 1 94 9 is_stmt 1
  94:test/ConsumerProducer_CPP_Sync_API_test.cpp ****             Thread::dispatch();
 601              		.loc 1 94 28 is_stmt 0
 602 01c8 03270900 		lw	a4,0(s2)
  94:test/ConsumerProducer_CPP_Sync_API_test.cpp ****             Thread::dispatch();
 603              		.loc 1 94 20
 604 01cc 9B172700 		slliw	a5,a4,2
 605 01d0 BB87E700 		addw	a5,a5,a4
  94:test/ConsumerProducer_CPP_Sync_API_test.cpp ****             Thread::dispatch();
 606              		.loc 1 94 15
 607 01d4 BBE7F402 		remw	a5,s1,a5
  94:test/ConsumerProducer_CPP_Sync_API_test.cpp ****             Thread::dispatch();
 608              		.loc 1 94 9
 609 01d8 E38607FA 		beqz	a5,.L36
 610              	.L32:
GAS LISTING /tmp/cchvhxki.s 			page 15


  98:test/ConsumerProducer_CPP_Sync_API_test.cpp ****             putc('\n');
 611              		.loc 1 98 9 is_stmt 1
  98:test/ConsumerProducer_CPP_Sync_API_test.cpp ****             putc('\n');
 612              		.loc 1 98 15 is_stmt 0
 613 01dc 93070005 		li	a5,80
 614 01e0 BBE4F402 		remw	s1,s1,a5
 615              	.LVL61:
  98:test/ConsumerProducer_CPP_Sync_API_test.cpp ****             putc('\n');
 616              		.loc 1 98 9
 617 01e4 E39C04FA 		bnez	s1,.L30
 618 01e8 6FF09FFA 		j	.L37
 619              	.L38:
 620              	.LBE33:
 621              	.LBB34:
 100:test/ConsumerProducer_CPP_Sync_API_test.cpp ****         }
 101:test/ConsumerProducer_CPP_Sync_API_test.cpp ****     }
 102:test/ConsumerProducer_CPP_Sync_API_test.cpp **** 
 103:test/ConsumerProducer_CPP_Sync_API_test.cpp **** 
 104:test/ConsumerProducer_CPP_Sync_API_test.cpp ****     while (td->buffer->getCnt() > 0) {
 105:test/ConsumerProducer_CPP_Sync_API_test.cpp ****         int key = td->buffer->get();
 622              		.loc 1 105 9 is_stmt 1
 623              		.loc 1 105 19 is_stmt 0
 624 01ec 83B70902 		ld	a5,32(s3)
 625              		.loc 1 105 34
 626 01f0 03B58700 		ld	a0,8(a5)
 627 01f4 97000000 		call	_ZN9BufferCPP3getEv@plt
 627      E7800000 
 628              	.LVL62:
 106:test/ConsumerProducer_CPP_Sync_API_test.cpp ****         Console::putc(key);
 629              		.loc 1 106 9 is_stmt 1
 630              		.loc 1 106 22 is_stmt 0
 631 01fc 1375F50F 		andi	a0,a0,0xff
 632              	.LVL63:
 633 0200 97000000 		call	_ZN7Console4putcEc@plt
 633      E7800000 
 634              	.LVL64:
 635              	.L31:
 636              	.LBE34:
 104:test/ConsumerProducer_CPP_Sync_API_test.cpp ****         int key = td->buffer->get();
 637              		.loc 1 104 5 is_stmt 1
 104:test/ConsumerProducer_CPP_Sync_API_test.cpp ****         int key = td->buffer->get();
 638              		.loc 1 104 33
 104:test/ConsumerProducer_CPP_Sync_API_test.cpp ****         int key = td->buffer->get();
 639              		.loc 1 104 12 is_stmt 0
 640 0208 83B70902 		ld	a5,32(s3)
 104:test/ConsumerProducer_CPP_Sync_API_test.cpp ****         int key = td->buffer->get();
 641              		.loc 1 104 30
 642 020c 03B58700 		ld	a0,8(a5)
 643 0210 97000000 		call	_ZN9BufferCPP6getCntEv@plt
 643      E7800000 
 644              	.LVL65:
 104:test/ConsumerProducer_CPP_Sync_API_test.cpp ****         int key = td->buffer->get();
 645              		.loc 1 104 33
 646 0218 E34AA0FC 		bgtz	a0,.L38
 107:test/ConsumerProducer_CPP_Sync_API_test.cpp ****     }
 108:test/ConsumerProducer_CPP_Sync_API_test.cpp **** 
 109:test/ConsumerProducer_CPP_Sync_API_test.cpp ****     data->wait->signal();
GAS LISTING /tmp/cchvhxki.s 			page 16


 647              		.loc 1 109 5 is_stmt 1
 648              		.loc 1 109 23 is_stmt 0
 649 021c 03350901 		ld	a0,16(s2)
 650 0220 97000000 		call	_ZN9Semaphore6signalEv@plt
 650      E7800000 
 651              	.LVL66:
 110:test/ConsumerProducer_CPP_Sync_API_test.cpp **** }
 652              		.loc 1 110 1
 653 0228 83308102 		ld	ra,40(sp)
 654              		.cfi_restore 1
 655 022c 03340102 		ld	s0,32(sp)
 656              		.cfi_restore 8
 657              		.cfi_def_cfa 2, 48
 658 0230 83348101 		ld	s1,24(sp)
 659              		.cfi_restore 9
 660 0234 03390101 		ld	s2,16(sp)
 661              		.cfi_restore 18
 662              	.LVL67:
 663 0238 83398100 		ld	s3,8(sp)
 664              		.cfi_restore 19
 665              	.LVL68:
 666 023c 033A0100 		ld	s4,0(sp)
 667              		.cfi_restore 20
 668              	.LVL69:
 669 0240 13010103 		addi	sp,sp,48
 670              		.cfi_def_cfa_offset 0
 671 0244 67800000 		jr	ra
 672              		.cfi_endproc
 673              	.LFE52:
 675              		.section	.text._ZN12ConsumerSync3runEv,"axG",@progbits,_ZN12ConsumerSync3runEv,comdat
 676              		.align	2
 677              		.weak	_ZN12ConsumerSync3runEv
 679              	_ZN12ConsumerSync3runEv:
 680              	.LFB51:
  79:test/ConsumerProducer_CPP_Sync_API_test.cpp ****         consumer(td);
 681              		.loc 1 79 10 is_stmt 1
 682              		.cfi_startproc
 683              	.LVL70:
 684 0000 130101FF 		addi	sp,sp,-16
 685              		.cfi_def_cfa_offset 16
 686 0004 23341100 		sd	ra,8(sp)
 687 0008 23308100 		sd	s0,0(sp)
 688              		.cfi_offset 1, -8
 689              		.cfi_offset 8, -16
 690 000c 13040101 		addi	s0,sp,16
 691              		.cfi_def_cfa 8, 0
  80:test/ConsumerProducer_CPP_Sync_API_test.cpp ****     }
 692              		.loc 1 80 9
  80:test/ConsumerProducer_CPP_Sync_API_test.cpp ****     }
 693              		.loc 1 80 17 is_stmt 0
 694 0010 83350502 		ld	a1,32(a0)
 695 0014 97000000 		call	_ZN12ConsumerSync8consumerEPv
 695      E7800000 
 696              	.LVL71:
  81:test/ConsumerProducer_CPP_Sync_API_test.cpp **** };
 697              		.loc 1 81 5
 698 001c 83308100 		ld	ra,8(sp)
GAS LISTING /tmp/cchvhxki.s 			page 17


 699              		.cfi_restore 1
 700 0020 03340100 		ld	s0,0(sp)
 701              		.cfi_restore 8
 702              		.cfi_def_cfa 2, 16
 703 0024 13010101 		addi	sp,sp,16
 704              		.cfi_def_cfa_offset 0
 705 0028 67800000 		jr	ra
 706              		.cfi_endproc
 707              	.LFE51:
 709              		.section	.rodata.str1.8,"aMS",@progbits,1
 710              		.align	3
 711              	.LC0:
 712 0000 556E6573 		.string	"Unesite broj proizvodjaca?\n"
 712      69746520 
 712      62726F6A 
 712      2070726F 
 712      697A766F 
 713 001c 00000000 		.align	3
 714              	.LC1:
 715 0020 556E6573 		.string	"Unesite velicinu bafera?\n"
 715      69746520 
 715      76656C69 
 715      63696E75 
 715      20626166 
 716 003a 00000000 		.align	3
 716      0000
 717              	.LC2:
 718 0040 42726F6A 		.string	"Broj proizvodjaca "
 718      2070726F 
 718      697A766F 
 718      646A6163 
 718      612000
 719 0053 00000000 		.align	3
 719      00
 720              	.LC3:
 721 0058 20692076 		.string	" i velicina bafera "
 721      656C6963 
 721      696E6120 
 721      62616665 
 721      72612000 
 722 006c 00000000 		.align	3
 723              	.LC4:
 724 0070 2E0A00   		.string	".\n"
 725 0073 00000000 		.align	3
 725      00
 726              	.LC5:
 727 0078 42726F6A 		.string	"Broj proizvodjaca ne sme biti manji od velicine bafera!\n"
 727      2070726F 
 727      697A766F 
 727      646A6163 
 727      61206E65 
 728 00b1 00000000 		.align	3
 728      000000
 729              	.LC6:
 730 00b8 42726F6A 		.string	"Broj proizvodjaca mora biti veci od nula!\n"
 730      2070726F 
 730      697A766F 
GAS LISTING /tmp/cchvhxki.s 			page 18


 730      646A6163 
 730      61206D6F 
 731              		.text
 732              		.align	2
 733              		.globl	_Z29producerConsumer_CPP_Sync_APIv
 735              	_Z29producerConsumer_CPP_Sync_APIv:
 736              	.LFB53:
 111:test/ConsumerProducer_CPP_Sync_API_test.cpp **** 
 112:test/ConsumerProducer_CPP_Sync_API_test.cpp **** void producerConsumer_CPP_Sync_API() {
 737              		.loc 1 112 38 is_stmt 1
 738              		.cfi_startproc
 739              		.cfi_personality 0x9b,DW.ref.__gxx_personality_v0
 740              		.cfi_lsda 0x1b,.LLSDA53
 741 0248 130101F8 		addi	sp,sp,-128
 742              		.cfi_def_cfa_offset 128
 743 024c 233C1106 		sd	ra,120(sp)
 744 0250 23388106 		sd	s0,112(sp)
 745 0254 23349106 		sd	s1,104(sp)
 746 0258 23302107 		sd	s2,96(sp)
 747 025c 233C3105 		sd	s3,88(sp)
 748 0260 23384105 		sd	s4,80(sp)
 749 0264 23345105 		sd	s5,72(sp)
 750 0268 23306105 		sd	s6,64(sp)
 751 026c 233C7103 		sd	s7,56(sp)
 752 0270 23388103 		sd	s8,48(sp)
 753 0274 23349103 		sd	s9,40(sp)
 754              		.cfi_offset 1, -8
 755              		.cfi_offset 8, -16
 756              		.cfi_offset 9, -24
 757              		.cfi_offset 18, -32
 758              		.cfi_offset 19, -40
 759              		.cfi_offset 20, -48
 760              		.cfi_offset 21, -56
 761              		.cfi_offset 22, -64
 762              		.cfi_offset 23, -72
 763              		.cfi_offset 24, -80
 764              		.cfi_offset 25, -88
 765 0278 13040108 		addi	s0,sp,128
 766              		.cfi_def_cfa 8, 0
 113:test/ConsumerProducer_CPP_Sync_API_test.cpp ****     char input[30];
 114:test/ConsumerProducer_CPP_Sync_API_test.cpp ****     int n, threadNum;
 115:test/ConsumerProducer_CPP_Sync_API_test.cpp **** 
 116:test/ConsumerProducer_CPP_Sync_API_test.cpp ****     printString("Unesite broj proizvodjaca?\n");
 117:test/ConsumerProducer_CPP_Sync_API_test.cpp ****     getString(input, 30);
 118:test/ConsumerProducer_CPP_Sync_API_test.cpp ****     threadNum = stringToInt(input);
 119:test/ConsumerProducer_CPP_Sync_API_test.cpp **** 
 120:test/ConsumerProducer_CPP_Sync_API_test.cpp ****     printString("Unesite velicinu bafera?\n");
 121:test/ConsumerProducer_CPP_Sync_API_test.cpp ****     getString(input, 30);
 122:test/ConsumerProducer_CPP_Sync_API_test.cpp ****     n = stringToInt(input);
 123:test/ConsumerProducer_CPP_Sync_API_test.cpp **** 
 124:test/ConsumerProducer_CPP_Sync_API_test.cpp ****     printString("Broj proizvodjaca "); printInt(threadNum);
 125:test/ConsumerProducer_CPP_Sync_API_test.cpp ****     printString(" i velicina bafera "); printInt(n);
 126:test/ConsumerProducer_CPP_Sync_API_test.cpp ****     printString(".\n");
 127:test/ConsumerProducer_CPP_Sync_API_test.cpp **** 
 128:test/ConsumerProducer_CPP_Sync_API_test.cpp ****     if(threadNum > n) {
 129:test/ConsumerProducer_CPP_Sync_API_test.cpp ****         printString("Broj proizvodjaca ne sme biti manji od velicine bafera!\n");
 130:test/ConsumerProducer_CPP_Sync_API_test.cpp ****         return;
GAS LISTING /tmp/cchvhxki.s 			page 19


 131:test/ConsumerProducer_CPP_Sync_API_test.cpp ****     } else if (threadNum < 1) {
 132:test/ConsumerProducer_CPP_Sync_API_test.cpp ****         printString("Broj proizvodjaca mora biti veci od nula!\n");
 133:test/ConsumerProducer_CPP_Sync_API_test.cpp ****         return;
 134:test/ConsumerProducer_CPP_Sync_API_test.cpp ****     }
 135:test/ConsumerProducer_CPP_Sync_API_test.cpp **** 
 136:test/ConsumerProducer_CPP_Sync_API_test.cpp ****     BufferCPP *buffer = new BufferCPP(n);
 137:test/ConsumerProducer_CPP_Sync_API_test.cpp **** 
 138:test/ConsumerProducer_CPP_Sync_API_test.cpp ****     waitForAll = new Semaphore(0);
 139:test/ConsumerProducer_CPP_Sync_API_test.cpp **** 
 140:test/ConsumerProducer_CPP_Sync_API_test.cpp ****     Thread* threads[threadNum];
 141:test/ConsumerProducer_CPP_Sync_API_test.cpp ****     Thread* consumerThread;
 142:test/ConsumerProducer_CPP_Sync_API_test.cpp **** 
 143:test/ConsumerProducer_CPP_Sync_API_test.cpp ****     struct thread_data data[threadNum + 1];
 144:test/ConsumerProducer_CPP_Sync_API_test.cpp **** 
 145:test/ConsumerProducer_CPP_Sync_API_test.cpp ****     data[threadNum].id = threadNum;
 146:test/ConsumerProducer_CPP_Sync_API_test.cpp ****     data[threadNum].buffer = buffer;
 147:test/ConsumerProducer_CPP_Sync_API_test.cpp ****     data[threadNum].wait = waitForAll;
 148:test/ConsumerProducer_CPP_Sync_API_test.cpp ****     consumerThread = new ConsumerSync(data+threadNum);
 149:test/ConsumerProducer_CPP_Sync_API_test.cpp ****     consumerThread->start();
 150:test/ConsumerProducer_CPP_Sync_API_test.cpp **** 
 151:test/ConsumerProducer_CPP_Sync_API_test.cpp ****     for (int i = 0; i < threadNum; i++) {
 152:test/ConsumerProducer_CPP_Sync_API_test.cpp ****         data[i].id = i;
 153:test/ConsumerProducer_CPP_Sync_API_test.cpp ****         data[i].buffer = buffer;
 154:test/ConsumerProducer_CPP_Sync_API_test.cpp ****         data[i].wait = waitForAll;
 155:test/ConsumerProducer_CPP_Sync_API_test.cpp **** 
 156:test/ConsumerProducer_CPP_Sync_API_test.cpp ****         if(i>0) {
 157:test/ConsumerProducer_CPP_Sync_API_test.cpp ****             threads[i] = new ProducerSync(data+i);
 158:test/ConsumerProducer_CPP_Sync_API_test.cpp ****         } else {
 159:test/ConsumerProducer_CPP_Sync_API_test.cpp ****             threads[i] = new ProducerKeyboard(data+i);
 160:test/ConsumerProducer_CPP_Sync_API_test.cpp ****         }
 161:test/ConsumerProducer_CPP_Sync_API_test.cpp **** 
 162:test/ConsumerProducer_CPP_Sync_API_test.cpp ****         threads[i]->start();
 163:test/ConsumerProducer_CPP_Sync_API_test.cpp ****     }
 164:test/ConsumerProducer_CPP_Sync_API_test.cpp **** 
 165:test/ConsumerProducer_CPP_Sync_API_test.cpp ****     Thread::dispatch();
 166:test/ConsumerProducer_CPP_Sync_API_test.cpp **** 
 167:test/ConsumerProducer_CPP_Sync_API_test.cpp ****     for (int i = 0; i <= threadNum; i++) {
 168:test/ConsumerProducer_CPP_Sync_API_test.cpp ****         waitForAll->wait();
 169:test/ConsumerProducer_CPP_Sync_API_test.cpp ****     }
 170:test/ConsumerProducer_CPP_Sync_API_test.cpp **** 
 171:test/ConsumerProducer_CPP_Sync_API_test.cpp ****     for (int i = 0; i < threadNum; i++) {
 172:test/ConsumerProducer_CPP_Sync_API_test.cpp ****         delete threads[i];
 173:test/ConsumerProducer_CPP_Sync_API_test.cpp ****     }
 174:test/ConsumerProducer_CPP_Sync_API_test.cpp ****     delete consumerThread;
 175:test/ConsumerProducer_CPP_Sync_API_test.cpp ****     delete waitForAll;
 176:test/ConsumerProducer_CPP_Sync_API_test.cpp ****     delete buffer;
 767              		.loc 1 176 18 is_stmt 0
 768 027c 930B0100 		mv	s7,sp
 113:test/ConsumerProducer_CPP_Sync_API_test.cpp ****     char input[30];
 769              		.loc 1 113 5 is_stmt 1
 114:test/ConsumerProducer_CPP_Sync_API_test.cpp **** 
 770              		.loc 1 114 5
 116:test/ConsumerProducer_CPP_Sync_API_test.cpp ****     getString(input, 30);
 771              		.loc 1 116 5
 116:test/ConsumerProducer_CPP_Sync_API_test.cpp ****     getString(input, 30);
 772              		.loc 1 116 16 is_stmt 0
 773 0280 17050000 		lla	a0,.LC0
GAS LISTING /tmp/cchvhxki.s 			page 20


 773      13050500 
 774              	.LEHB0:
 775 0288 97000000 		call	_Z11printStringPKc@plt
 775      E7800000 
 776              	.LVL72:
 117:test/ConsumerProducer_CPP_Sync_API_test.cpp ****     threadNum = stringToInt(input);
 777              		.loc 1 117 5 is_stmt 1
 117:test/ConsumerProducer_CPP_Sync_API_test.cpp ****     threadNum = stringToInt(input);
 778              		.loc 1 117 14 is_stmt 0
 779 0290 9305E001 		li	a1,30
 780 0294 930404F8 		addi	s1,s0,-128
 781 0298 13850400 		mv	a0,s1
 782 029c 97000000 		call	_Z9getStringPci@plt
 782      E7800000 
 783              	.LVL73:
 118:test/ConsumerProducer_CPP_Sync_API_test.cpp **** 
 784              		.loc 1 118 5 is_stmt 1
 118:test/ConsumerProducer_CPP_Sync_API_test.cpp **** 
 785              		.loc 1 118 28 is_stmt 0
 786 02a4 13850400 		mv	a0,s1
 787 02a8 97000000 		call	_Z11stringToIntPKc@plt
 787      E7800000 
 788              	.LVL74:
 789 02b0 13090500 		mv	s2,a0
 790              	.LVL75:
 120:test/ConsumerProducer_CPP_Sync_API_test.cpp ****     getString(input, 30);
 791              		.loc 1 120 5 is_stmt 1
 120:test/ConsumerProducer_CPP_Sync_API_test.cpp ****     getString(input, 30);
 792              		.loc 1 120 16 is_stmt 0
 793 02b4 17050000 		lla	a0,.LC1
 793      13050500 
 794 02bc 97000000 		call	_Z11printStringPKc@plt
 794      E7800000 
 795              	.LVL76:
 121:test/ConsumerProducer_CPP_Sync_API_test.cpp ****     n = stringToInt(input);
 796              		.loc 1 121 5 is_stmt 1
 121:test/ConsumerProducer_CPP_Sync_API_test.cpp ****     n = stringToInt(input);
 797              		.loc 1 121 14 is_stmt 0
 798 02c4 9305E001 		li	a1,30
 799 02c8 13850400 		mv	a0,s1
 800 02cc 97000000 		call	_Z9getStringPci@plt
 800      E7800000 
 801              	.LVL77:
 122:test/ConsumerProducer_CPP_Sync_API_test.cpp **** 
 802              		.loc 1 122 5 is_stmt 1
 122:test/ConsumerProducer_CPP_Sync_API_test.cpp **** 
 803              		.loc 1 122 20 is_stmt 0
 804 02d4 13850400 		mv	a0,s1
 805 02d8 97000000 		call	_Z11stringToIntPKc@plt
 805      E7800000 
 806              	.LVL78:
 807 02e0 93040500 		mv	s1,a0
 808              	.LVL79:
 124:test/ConsumerProducer_CPP_Sync_API_test.cpp ****     printString(" i velicina bafera "); printInt(n);
 809              		.loc 1 124 5 is_stmt 1
 124:test/ConsumerProducer_CPP_Sync_API_test.cpp ****     printString(" i velicina bafera "); printInt(n);
 810              		.loc 1 124 16 is_stmt 0
GAS LISTING /tmp/cchvhxki.s 			page 21


 811 02e4 17050000 		lla	a0,.LC2
 811      13050500 
 812 02ec 97000000 		call	_Z11printStringPKc@plt
 812      E7800000 
 813              	.LVL80:
 124:test/ConsumerProducer_CPP_Sync_API_test.cpp ****     printString(" i velicina bafera "); printInt(n);
 814              		.loc 1 124 40 is_stmt 1
 124:test/ConsumerProducer_CPP_Sync_API_test.cpp ****     printString(" i velicina bafera "); printInt(n);
 815              		.loc 1 124 48 is_stmt 0
 816 02f4 13060000 		li	a2,0
 817 02f8 9305A000 		li	a1,10
 818 02fc 13050900 		mv	a0,s2
 819 0300 97000000 		call	_Z8printIntiii@plt
 819      E7800000 
 820              	.LVL81:
 125:test/ConsumerProducer_CPP_Sync_API_test.cpp ****     printString(".\n");
 821              		.loc 1 125 5 is_stmt 1
 125:test/ConsumerProducer_CPP_Sync_API_test.cpp ****     printString(".\n");
 822              		.loc 1 125 16 is_stmt 0
 823 0308 17050000 		lla	a0,.LC3
 823      13050500 
 824 0310 97000000 		call	_Z11printStringPKc@plt
 824      E7800000 
 825              	.LVL82:
 125:test/ConsumerProducer_CPP_Sync_API_test.cpp ****     printString(".\n");
 826              		.loc 1 125 41 is_stmt 1
 125:test/ConsumerProducer_CPP_Sync_API_test.cpp ****     printString(".\n");
 827              		.loc 1 125 49 is_stmt 0
 828 0318 13060000 		li	a2,0
 829 031c 9305A000 		li	a1,10
 830 0320 13850400 		mv	a0,s1
 831 0324 97000000 		call	_Z8printIntiii@plt
 831      E7800000 
 832              	.LVL83:
 126:test/ConsumerProducer_CPP_Sync_API_test.cpp **** 
 833              		.loc 1 126 5 is_stmt 1
 126:test/ConsumerProducer_CPP_Sync_API_test.cpp **** 
 834              		.loc 1 126 16 is_stmt 0
 835 032c 17050000 		lla	a0,.LC4
 835      13050500 
 836 0334 97000000 		call	_Z11printStringPKc@plt
 836      E7800000 
 837              	.LVL84:
 128:test/ConsumerProducer_CPP_Sync_API_test.cpp ****         printString("Broj proizvodjaca ne sme biti manji od velicine bafera!\n");
 838              		.loc 1 128 5 is_stmt 1
 839 033c 63C42403 		bgt	s2,s1,.L69
 131:test/ConsumerProducer_CPP_Sync_API_test.cpp ****         printString("Broj proizvodjaca mora biti veci od nula!\n");
 840              		.loc 1 131 12
 841 0340 635C2003 		blez	s2,.L70
 136:test/ConsumerProducer_CPP_Sync_API_test.cpp **** 
 842              		.loc 1 136 5
 136:test/ConsumerProducer_CPP_Sync_API_test.cpp **** 
 843              		.loc 1 136 40 is_stmt 0
 844 0344 13058003 		li	a0,56
 845 0348 97000000 		call	_Znwm@plt
 845      E7800000 
 846              	.LVL85:
GAS LISTING /tmp/cchvhxki.s 			page 22


 847              	.LEHE0:
 848 0350 930A0500 		mv	s5,a0
 849 0354 93850400 		mv	a1,s1
 850              	.LEHB1:
 851 0358 97000000 		call	_ZN9BufferCPPC1Ei@plt
 851      E7800000 
 852              	.LVL86:
 853              	.LEHE1:
 854 0360 6F000003 		j	.L71
 855              	.L69:
 129:test/ConsumerProducer_CPP_Sync_API_test.cpp ****         return;
 856              		.loc 1 129 9 is_stmt 1
 129:test/ConsumerProducer_CPP_Sync_API_test.cpp ****         return;
 857              		.loc 1 129 20 is_stmt 0
 858 0364 17050000 		lla	a0,.LC5
 858      13050500 
 859              	.LEHB2:
 860 036c 97000000 		call	_Z11printStringPKc@plt
 860      E7800000 
 861              	.LVL87:
 130:test/ConsumerProducer_CPP_Sync_API_test.cpp ****     } else if (threadNum < 1) {
 862              		.loc 1 130 9 is_stmt 1
 863 0374 6F004001 		j	.L43
 864              	.L70:
 132:test/ConsumerProducer_CPP_Sync_API_test.cpp ****         return;
 865              		.loc 1 132 9
 132:test/ConsumerProducer_CPP_Sync_API_test.cpp ****         return;
 866              		.loc 1 132 20 is_stmt 0
 867 0378 17050000 		lla	a0,.LC6
 867      13050500 
 868 0380 97000000 		call	_Z11printStringPKc@plt
 868      E7800000 
 869              	.LVL88:
 133:test/ConsumerProducer_CPP_Sync_API_test.cpp ****     }
 870              		.loc 1 133 9 is_stmt 1
 871              	.L43:
 872 0388 13810B00 		mv	sp,s7
 873 038c 6F008023 		j	.L41
 874              	.L71:
 875              	.LVL89:
 138:test/ConsumerProducer_CPP_Sync_API_test.cpp **** 
 876              		.loc 1 138 5 discriminator 3
 138:test/ConsumerProducer_CPP_Sync_API_test.cpp **** 
 877              		.loc 1 138 33 is_stmt 0 discriminator 3
 878 0390 13050001 		li	a0,16
 879 0394 97000000 		call	_Znwm@plt
 879      E7800000 
 880              	.LVL90:
 881              	.LEHE2:
 882 039c 93040500 		mv	s1,a0
 883              	.LVL91:
 884 03a0 93050000 		li	a1,0
 885              	.LEHB3:
 886 03a4 97000000 		call	_ZN9SemaphoreC1Ej@plt
 886      E7800000 
 887              	.LVL92:
 888              	.LEHE3:
GAS LISTING /tmp/cchvhxki.s 			page 23


 138:test/ConsumerProducer_CPP_Sync_API_test.cpp **** 
 889              		.loc 1 138 16 discriminator 3
 890 03ac 97070000 		sd	s1,.LANCHOR0+8,a5
 890      23B09700 
 140:test/ConsumerProducer_CPP_Sync_API_test.cpp ****     Thread* consumerThread;
 891              		.loc 1 140 5 is_stmt 1 discriminator 3
 892              	.LVL93:
 140:test/ConsumerProducer_CPP_Sync_API_test.cpp ****     Thread* consumerThread;
 893              		.loc 1 140 13 is_stmt 0 discriminator 3
 894 03b4 93173900 		slli	a5,s2,3
 895 03b8 9387F700 		addi	a5,a5,15
 896 03bc 93F707FF 		andi	a5,a5,-16
 897 03c0 3301F140 		sub	sp,sp,a5
 898 03c4 93090100 		mv	s3,sp
 899              	.LVL94:
 141:test/ConsumerProducer_CPP_Sync_API_test.cpp **** 
 900              		.loc 1 141 5 is_stmt 1 discriminator 3
 143:test/ConsumerProducer_CPP_Sync_API_test.cpp **** 
 901              		.loc 1 143 5 discriminator 3
 143:test/ConsumerProducer_CPP_Sync_API_test.cpp **** 
 902              		.loc 1 143 39 is_stmt 0 discriminator 3
 903 03c8 1B071900 		addiw	a4,s2,1
 904              	.LVL95:
 143:test/ConsumerProducer_CPP_Sync_API_test.cpp **** 
 905              		.loc 1 143 24 discriminator 3
 906 03cc 93171700 		slli	a5,a4,1
 907 03d0 B387E700 		add	a5,a5,a4
 908 03d4 93973700 		slli	a5,a5,3
 909 03d8 9387F700 		addi	a5,a5,15
 910 03dc 93F707FF 		andi	a5,a5,-16
 911 03e0 3301F140 		sub	sp,sp,a5
 912              	.LVL96:
 913 03e4 130A0100 		mv	s4,sp
 914              	.LVL97:
 145:test/ConsumerProducer_CPP_Sync_API_test.cpp ****     data[threadNum].buffer = buffer;
 915              		.loc 1 145 5 is_stmt 1 discriminator 3
 145:test/ConsumerProducer_CPP_Sync_API_test.cpp ****     data[threadNum].buffer = buffer;
 916              		.loc 1 145 24 is_stmt 0 discriminator 3
 917 03e8 131C1900 		slli	s8,s2,1
 918 03ec B3072C01 		add	a5,s8,s2
 919 03f0 93973700 		slli	a5,a5,3
 920 03f4 B307FA00 		add	a5,s4,a5
 921 03f8 23A02701 		sw	s2,0(a5)
 146:test/ConsumerProducer_CPP_Sync_API_test.cpp ****     data[threadNum].wait = waitForAll;
 922              		.loc 1 146 5 is_stmt 1 discriminator 3
 146:test/ConsumerProducer_CPP_Sync_API_test.cpp ****     data[threadNum].wait = waitForAll;
 923              		.loc 1 146 28 is_stmt 0 discriminator 3
 924 03fc 23B45701 		sd	s5,8(a5)
 147:test/ConsumerProducer_CPP_Sync_API_test.cpp ****     consumerThread = new ConsumerSync(data+threadNum);
 925              		.loc 1 147 5 is_stmt 1 discriminator 3
 147:test/ConsumerProducer_CPP_Sync_API_test.cpp ****     consumerThread = new ConsumerSync(data+threadNum);
 926              		.loc 1 147 26 is_stmt 0 discriminator 3
 927 0400 23B89700 		sd	s1,16(a5)
 148:test/ConsumerProducer_CPP_Sync_API_test.cpp ****     consumerThread->start();
 928              		.loc 1 148 5 is_stmt 1 discriminator 3
 148:test/ConsumerProducer_CPP_Sync_API_test.cpp ****     consumerThread->start();
 929              		.loc 1 148 53 is_stmt 0 discriminator 3
GAS LISTING /tmp/cchvhxki.s 			page 24


 930 0404 13058002 		li	a0,40
 931              	.LEHB4:
 932 0408 97000000 		call	_Znwm@plt
 932      E7800000 
 933              	.LVL98:
 934              	.LEHE4:
 935 0410 130B0500 		mv	s6,a0
 148:test/ConsumerProducer_CPP_Sync_API_test.cpp ****     consumerThread->start();
 936              		.loc 1 148 43 discriminator 3
 937 0414 330C2C01 		add	s8,s8,s2
 938 0418 131C3C00 		slli	s8,s8,3
 148:test/ConsumerProducer_CPP_Sync_API_test.cpp ****     consumerThread->start();
 939              		.loc 1 148 53 discriminator 3
 940 041c 330C8A01 		add	s8,s4,s8
 941              	.LVL99:
 942              	.LEHB5:
 943              	.LBB35:
 944              	.LBB36:
  77:test/ConsumerProducer_CPP_Sync_API_test.cpp **** 
 945              		.loc 1 77 52 discriminator 3
 946 0420 97000000 		call	_ZN6ThreadC2Ev@plt
 946      E7800000 
 947              	.LVL100:
 948              	.LEHE5:
  77:test/ConsumerProducer_CPP_Sync_API_test.cpp **** 
 949              		.loc 1 77 52
 950 0428 97070000 		lla	a5,_ZTV12ConsumerSync+16
 950      93870700 
 951 0430 2330FB00 		sd	a5,0(s6)
 952 0434 23308B03 		sd	s8,32(s6)
 953              	.LVL101:
 954              	.LBE36:
 955              	.LBE35:
 149:test/ConsumerProducer_CPP_Sync_API_test.cpp **** 
 956              		.loc 1 149 5 is_stmt 1
 149:test/ConsumerProducer_CPP_Sync_API_test.cpp **** 
 957              		.loc 1 149 26 is_stmt 0
 958 0438 13050B00 		mv	a0,s6
 959              	.LEHB6:
 960 043c 97000000 		call	_ZN6Thread5startEv@plt
 960      E7800000 
 961              	.LVL102:
 962              	.LBB37:
 151:test/ConsumerProducer_CPP_Sync_API_test.cpp ****         data[i].id = i;
 963              		.loc 1 151 14
 964 0444 93040000 		li	s1,0
 965 0448 6F008003 		j	.L48
 966              	.LVL103:
 967              	.L72:
 968              	.LBB38:
 969              	.LBB39:
  50:test/ConsumerProducer_CPP_Sync_API_test.cpp **** 
 970              		.loc 1 50 52
 971 044c 97070000 		lla	a5,_ZTV12ProducerSync+16
 971      93870700 
 972 0454 23B0FC00 		sd	a5,0(s9)
 973 0458 23B08C03 		sd	s8,32(s9)
GAS LISTING /tmp/cchvhxki.s 			page 25


 974              	.LVL104:
 975              	.LBE39:
 976              	.LBE38:
 157:test/ConsumerProducer_CPP_Sync_API_test.cpp ****         } else {
 977              		.loc 1 157 24
 978 045c 93973400 		slli	a5,s1,3
 979 0460 B387F900 		add	a5,s3,a5
 980 0464 23B09701 		sd	s9,0(a5)
 981              	.L47:
 162:test/ConsumerProducer_CPP_Sync_API_test.cpp ****     }
 982              		.loc 1 162 9 is_stmt 1
 162:test/ConsumerProducer_CPP_Sync_API_test.cpp ****     }
 983              		.loc 1 162 18 is_stmt 0
 984 0468 93973400 		slli	a5,s1,3
 985 046c B387F900 		add	a5,s3,a5
 162:test/ConsumerProducer_CPP_Sync_API_test.cpp ****     }
 986              		.loc 1 162 26
 987 0470 03B50700 		ld	a0,0(a5)
 988 0474 97000000 		call	_ZN6Thread5startEv@plt
 988      E7800000 
 989              	.LVL105:
 151:test/ConsumerProducer_CPP_Sync_API_test.cpp ****         data[i].id = i;
 990              		.loc 1 151 5 is_stmt 1
 991 047c 9B841400 		addiw	s1,s1,1
 992              	.LVL106:
 993              	.L48:
 151:test/ConsumerProducer_CPP_Sync_API_test.cpp ****         data[i].id = i;
 994              		.loc 1 151 23 discriminator 1
 995 0480 63D0240B 		bge	s1,s2,.L45
 152:test/ConsumerProducer_CPP_Sync_API_test.cpp ****         data[i].buffer = buffer;
 996              		.loc 1 152 9
 152:test/ConsumerProducer_CPP_Sync_API_test.cpp ****         data[i].buffer = buffer;
 997              		.loc 1 152 20 is_stmt 0
 998 0484 93971400 		slli	a5,s1,1
 999 0488 B3879700 		add	a5,a5,s1
 1000 048c 93973700 		slli	a5,a5,3
 1001 0490 B307FA00 		add	a5,s4,a5
 1002 0494 23A09700 		sw	s1,0(a5)
 153:test/ConsumerProducer_CPP_Sync_API_test.cpp ****         data[i].wait = waitForAll;
 1003              		.loc 1 153 9 is_stmt 1
 153:test/ConsumerProducer_CPP_Sync_API_test.cpp ****         data[i].wait = waitForAll;
 1004              		.loc 1 153 24 is_stmt 0
 1005 0498 23B45701 		sd	s5,8(a5)
 154:test/ConsumerProducer_CPP_Sync_API_test.cpp **** 
 1006              		.loc 1 154 9 is_stmt 1
 154:test/ConsumerProducer_CPP_Sync_API_test.cpp **** 
 1007              		.loc 1 154 22 is_stmt 0
 1008 049c 17070000 		ld	a4,.LANCHOR0+8
 1008      03370700 
 1009 04a4 23B8E700 		sd	a4,16(a5)
 156:test/ConsumerProducer_CPP_Sync_API_test.cpp ****             threads[i] = new ProducerSync(data+i);
 1010              		.loc 1 156 9 is_stmt 1
 1011 04a8 63589002 		blez	s1,.L46
 157:test/ConsumerProducer_CPP_Sync_API_test.cpp ****         } else {
 1012              		.loc 1 157 13
 157:test/ConsumerProducer_CPP_Sync_API_test.cpp ****         } else {
 1013              		.loc 1 157 49 is_stmt 0
GAS LISTING /tmp/cchvhxki.s 			page 26


 1014 04ac 13058002 		li	a0,40
 1015 04b0 97000000 		call	_Znwm@plt
 1015      E7800000 
 1016              	.LVL107:
 1017              	.LEHE6:
 1018 04b8 930C0500 		mv	s9,a0
 157:test/ConsumerProducer_CPP_Sync_API_test.cpp ****         } else {
 1019              		.loc 1 157 47
 1020 04bc 139C1400 		slli	s8,s1,1
 1021 04c0 330C9C00 		add	s8,s8,s1
 1022 04c4 131C3C00 		slli	s8,s8,3
 157:test/ConsumerProducer_CPP_Sync_API_test.cpp ****         } else {
 1023              		.loc 1 157 49
 1024 04c8 330C8A01 		add	s8,s4,s8
 1025              	.LVL108:
 1026              	.LEHB7:
 1027              	.LBB41:
 1028              	.LBB40:
  50:test/ConsumerProducer_CPP_Sync_API_test.cpp **** 
 1029              		.loc 1 50 52
 1030 04cc 97000000 		call	_ZN6ThreadC2Ev@plt
 1030      E7800000 
 1031              	.LVL109:
 1032              	.LEHE7:
 1033 04d4 6FF09FF7 		j	.L72
 1034              	.LVL110:
 1035              	.L46:
 1036              	.LBE40:
 1037              	.LBE41:
 159:test/ConsumerProducer_CPP_Sync_API_test.cpp ****         }
 1038              		.loc 1 159 13 is_stmt 1
 159:test/ConsumerProducer_CPP_Sync_API_test.cpp ****         }
 1039              		.loc 1 159 53 is_stmt 0
 1040 04d8 13058002 		li	a0,40
 1041              	.LEHB8:
 1042 04dc 97000000 		call	_Znwm@plt
 1042      E7800000 
 1043              	.LVL111:
 1044              	.LEHE8:
 1045 04e4 930C0500 		mv	s9,a0
 159:test/ConsumerProducer_CPP_Sync_API_test.cpp ****         }
 1046              		.loc 1 159 51
 1047 04e8 139C1400 		slli	s8,s1,1
 1048 04ec 330C9C00 		add	s8,s8,s1
 1049 04f0 131C3C00 		slli	s8,s8,3
 159:test/ConsumerProducer_CPP_Sync_API_test.cpp ****         }
 1050              		.loc 1 159 53
 1051 04f4 330C8A01 		add	s8,s4,s8
 1052              	.LVL112:
 1053              	.LEHB9:
 1054              	.LBB42:
 1055              	.LBB43:
  19:test/ConsumerProducer_CPP_Sync_API_test.cpp **** 
 1056              		.loc 1 19 56
 1057 04f8 97000000 		call	_ZN6ThreadC2Ev@plt
 1057      E7800000 
 1058              	.LVL113:
GAS LISTING /tmp/cchvhxki.s 			page 27


 1059              	.LEHE9:
 1060 0500 97070000 		lla	a5,_ZTV16ProducerKeyboard+16
 1060      93870700 
 1061 0508 23B0FC00 		sd	a5,0(s9)
 1062 050c 23B08C03 		sd	s8,32(s9)
 1063              	.LVL114:
 1064              	.LBE43:
 1065              	.LBE42:
 159:test/ConsumerProducer_CPP_Sync_API_test.cpp ****         }
 1066              		.loc 1 159 24
 1067 0510 93973400 		slli	a5,s1,3
 1068 0514 B387F900 		add	a5,s3,a5
 1069 0518 23B09701 		sd	s9,0(a5)
 1070 051c 6FF0DFF4 		j	.L47
 1071              	.L45:
 1072              	.LBE37:
 165:test/ConsumerProducer_CPP_Sync_API_test.cpp **** 
 1073              		.loc 1 165 5 is_stmt 1
 1074              	.LEHB10:
 165:test/ConsumerProducer_CPP_Sync_API_test.cpp **** 
 1075              		.loc 1 165 21 is_stmt 0
 1076 0520 97000000 		call	_ZN6Thread8dispatchEv@plt
 1076      E7800000 
 1077              	.LVL115:
 1078              	.LBB44:
 167:test/ConsumerProducer_CPP_Sync_API_test.cpp ****         waitForAll->wait();
 1079              		.loc 1 167 14
 1080 0528 93040000 		li	s1,0
 1081              	.LVL116:
 1082              	.L50:
 167:test/ConsumerProducer_CPP_Sync_API_test.cpp ****         waitForAll->wait();
 1083              		.loc 1 167 23 is_stmt 1 discriminator 1
 1084 052c 634E9900 		bgt	s1,s2,.L62
 168:test/ConsumerProducer_CPP_Sync_API_test.cpp ****     }
 1085              		.loc 1 168 9
 168:test/ConsumerProducer_CPP_Sync_API_test.cpp ****     }
 1086              		.loc 1 168 25 is_stmt 0
 1087 0530 17050000 		ld	a0,.LANCHOR0+8
 1087      03350500 
 1088 0538 97000000 		call	_ZN9Semaphore4waitEv@plt
 1088      E7800000 
 1089              	.LVL117:
 167:test/ConsumerProducer_CPP_Sync_API_test.cpp ****         waitForAll->wait();
 1090              		.loc 1 167 5 is_stmt 1
 1091 0540 9B841400 		addiw	s1,s1,1
 1092              	.LVL118:
 1093 0544 6FF09FFE 		j	.L50
 1094              	.LVL119:
 1095              	.L62:
 1096              	.LBE44:
 1097              	.LBB45:
 171:test/ConsumerProducer_CPP_Sync_API_test.cpp ****         delete threads[i];
 1098              		.loc 1 171 14 is_stmt 0
 1099 0548 93040000 		li	s1,0
 1100              	.LVL120:
 1101 054c 6F008000 		j	.L49
 1102              	.LVL121:
GAS LISTING /tmp/cchvhxki.s 			page 28


 1103              	.L52:
 171:test/ConsumerProducer_CPP_Sync_API_test.cpp ****         delete threads[i];
 1104              		.loc 1 171 5 is_stmt 1 discriminator 2
 1105 0550 9B841400 		addiw	s1,s1,1
 1106              	.LVL122:
 1107              	.L49:
 171:test/ConsumerProducer_CPP_Sync_API_test.cpp ****         delete threads[i];
 1108              		.loc 1 171 23 discriminator 1
 1109 0554 63D22403 		bge	s1,s2,.L51
 172:test/ConsumerProducer_CPP_Sync_API_test.cpp ****     }
 1110              		.loc 1 172 9
 172:test/ConsumerProducer_CPP_Sync_API_test.cpp ****     }
 1111              		.loc 1 172 25 is_stmt 0
 1112 0558 93973400 		slli	a5,s1,3
 1113 055c B387F900 		add	a5,s3,a5
 1114 0560 03B50700 		ld	a0,0(a5)
 172:test/ConsumerProducer_CPP_Sync_API_test.cpp ****     }
 1115              		.loc 1 172 26
 1116 0564 E30605FE 		beqz	a0,.L52
 172:test/ConsumerProducer_CPP_Sync_API_test.cpp ****     }
 1117              		.loc 1 172 25 discriminator 1
 1118 0568 83370500 		ld	a5,0(a0)
 1119 056c 83B78700 		ld	a5,8(a5)
 1120 0570 E7800700 		jalr	a5
 1121              	.LVL123:
 1122 0574 6FF0DFFD 		j	.L52
 1123              	.L51:
 1124              	.LBE45:
 174:test/ConsumerProducer_CPP_Sync_API_test.cpp ****     delete waitForAll;
 1125              		.loc 1 174 5 is_stmt 1
 174:test/ConsumerProducer_CPP_Sync_API_test.cpp ****     delete waitForAll;
 1126              		.loc 1 174 26 is_stmt 0
 1127 0578 630A0B00 		beqz	s6,.L53
 174:test/ConsumerProducer_CPP_Sync_API_test.cpp ****     delete waitForAll;
 1128              		.loc 1 174 12 discriminator 1
 1129 057c 83370B00 		ld	a5,0(s6)
 1130 0580 83B78700 		ld	a5,8(a5)
 1131 0584 13050B00 		mv	a0,s6
 1132 0588 E7800700 		jalr	a5
 1133              	.LVL124:
 1134              	.L53:
 175:test/ConsumerProducer_CPP_Sync_API_test.cpp ****     delete buffer;
 1135              		.loc 1 175 5 is_stmt 1
 175:test/ConsumerProducer_CPP_Sync_API_test.cpp ****     delete buffer;
 1136              		.loc 1 175 12 is_stmt 0
 1137 058c 17050000 		ld	a0,.LANCHOR0+8
 1137      03350500 
 175:test/ConsumerProducer_CPP_Sync_API_test.cpp ****     delete buffer;
 1138              		.loc 1 175 22
 1139 0594 63080500 		beqz	a0,.L54
 175:test/ConsumerProducer_CPP_Sync_API_test.cpp ****     delete buffer;
 1140              		.loc 1 175 12 discriminator 1
 1141 0598 83370500 		ld	a5,0(a0)
 1142 059c 83B78700 		ld	a5,8(a5)
 1143 05a0 E7800700 		jalr	a5
 1144              	.LVL125:
 1145              	.L54:
GAS LISTING /tmp/cchvhxki.s 			page 29


 1146              		.loc 1 176 5 is_stmt 1
 1147              		.loc 1 176 18 is_stmt 0
 1148 05a4 638E0A00 		beqz	s5,.L55
 1149              		.loc 1 176 12 discriminator 1
 1150 05a8 13850A00 		mv	a0,s5
 1151 05ac 97000000 		call	_ZN9BufferCPPD1Ev@plt
 1151      E7800000 
 1152              	.LVL126:
 1153 05b4 13850A00 		mv	a0,s5
 1154 05b8 97000000 		call	_ZdlPv@plt
 1154      E7800000 
 1155              	.LVL127:
 1156              	.L55:
 1157 05c0 13810B00 		mv	sp,s7
 1158              	.LVL128:
 1159              	.L41:
 177:test/ConsumerProducer_CPP_Sync_API_test.cpp **** 
 178:test/ConsumerProducer_CPP_Sync_API_test.cpp **** }
 1160              		.loc 1 178 1
 1161 05c4 130104F8 		addi	sp,s0,-128
 1162              		.cfi_remember_state
 1163              		.cfi_def_cfa 2, 128
 1164 05c8 83308107 		ld	ra,120(sp)
 1165              		.cfi_restore 1
 1166 05cc 03340107 		ld	s0,112(sp)
 1167              		.cfi_restore 8
 1168 05d0 83348106 		ld	s1,104(sp)
 1169              		.cfi_restore 9
 1170 05d4 03390106 		ld	s2,96(sp)
 1171              		.cfi_restore 18
 1172              	.LVL129:
 1173 05d8 83398105 		ld	s3,88(sp)
 1174              		.cfi_restore 19
 1175 05dc 033A0105 		ld	s4,80(sp)
 1176              		.cfi_restore 20
 1177 05e0 833A8104 		ld	s5,72(sp)
 1178              		.cfi_restore 21
 1179 05e4 033B0104 		ld	s6,64(sp)
 1180              		.cfi_restore 22
 1181 05e8 833B8103 		ld	s7,56(sp)
 1182              		.cfi_restore 23
 1183 05ec 033C0103 		ld	s8,48(sp)
 1184              		.cfi_restore 24
 1185 05f0 833C8102 		ld	s9,40(sp)
 1186              		.cfi_restore 25
 1187 05f4 13010108 		addi	sp,sp,128
 1188              		.cfi_def_cfa_offset 0
 1189 05f8 67800000 		jr	ra
 1190              	.LVL130:
 1191              	.L63:
 1192              		.cfi_restore_state
 1193 05fc 93040500 		mv	s1,a0
 1194              	.LVL131:
 136:test/ConsumerProducer_CPP_Sync_API_test.cpp **** 
 1195              		.loc 1 136 40
 1196 0600 13850A00 		mv	a0,s5
 1197 0604 97000000 		call	_ZdlPv@plt
GAS LISTING /tmp/cchvhxki.s 			page 30


 1197      E7800000 
 1198              	.LVL132:
 1199 060c 13850400 		mv	a0,s1
 1200 0610 97000000 		call	_Unwind_Resume@plt
 1200      E7800000 
 1201              	.LVL133:
 1202              	.L64:
 1203 0618 13090500 		mv	s2,a0
 1204              	.LVL134:
 138:test/ConsumerProducer_CPP_Sync_API_test.cpp **** 
 1205              		.loc 1 138 33
 1206 061c 13850400 		mv	a0,s1
 1207 0620 97000000 		call	_ZdlPv@plt
 1207      E7800000 
 1208              	.LVL135:
 1209 0628 13050900 		mv	a0,s2
 1210 062c 97000000 		call	_Unwind_Resume@plt
 1210      E7800000 
 1211              	.LVL136:
 1212              	.L65:
 1213 0634 93040500 		mv	s1,a0
 148:test/ConsumerProducer_CPP_Sync_API_test.cpp ****     consumerThread->start();
 1214              		.loc 1 148 53
 1215 0638 13050B00 		mv	a0,s6
 1216 063c 97000000 		call	_ZdlPv@plt
 1216      E7800000 
 1217              	.LVL137:
 1218 0644 13850400 		mv	a0,s1
 1219 0648 97000000 		call	_Unwind_Resume@plt
 1219      E7800000 
 1220              	.LVL138:
 1221              	.L66:
 1222 0650 93040500 		mv	s1,a0
 1223              	.LVL139:
 1224              	.LBB46:
 157:test/ConsumerProducer_CPP_Sync_API_test.cpp ****         } else {
 1225              		.loc 1 157 49
 1226 0654 13850C00 		mv	a0,s9
 1227 0658 97000000 		call	_ZdlPv@plt
 1227      E7800000 
 1228              	.LVL140:
 1229 0660 13850400 		mv	a0,s1
 1230 0664 97000000 		call	_Unwind_Resume@plt
 1230      E7800000 
 1231              	.LVL141:
 1232              	.L67:
 1233 066c 93040500 		mv	s1,a0
 1234              	.LVL142:
 159:test/ConsumerProducer_CPP_Sync_API_test.cpp ****         }
 1235              		.loc 1 159 53
 1236 0670 13850C00 		mv	a0,s9
 1237 0674 97000000 		call	_ZdlPv@plt
 1237      E7800000 
 1238              	.LVL143:
 1239 067c 13850400 		mv	a0,s1
 1240 0680 97000000 		call	_Unwind_Resume@plt
 1240      E7800000 
GAS LISTING /tmp/cchvhxki.s 			page 31


 1241              	.LVL144:
 1242              	.LEHE10:
 1243              	.LBE46:
 1244              		.cfi_endproc
 1245              	.LFE53:
 1246              		.globl	__gxx_personality_v0
 1247              		.section	.gcc_except_table,"a",@progbits
 1248              	.LLSDA53:
 1249 0000 FF       		.byte	0xff
 1250 0001 FF       		.byte	0xff
 1251 0002 03       		.byte	0x3
 1252 0003 8F01     		.byte	0x8f,0x1
 1253 0005 00000000 		.4byte	.LEHB0-.LFB53
 1254 0009 00000000 		.4byte	.LEHE0-.LEHB0
 1255 000d 00000000 		.4byte	0
 1256 0011 00       		.byte	0
 1257 0012 00000000 		.4byte	.LEHB1-.LFB53
 1258 0016 00000000 		.4byte	.LEHE1-.LEHB1
 1259 001a 00000000 		.4byte	.L63-.LFB53
 1260 001e 00       		.byte	0
 1261 001f 00000000 		.4byte	.LEHB2-.LFB53
 1262 0023 00000000 		.4byte	.LEHE2-.LEHB2
 1263 0027 00000000 		.4byte	0
 1264 002b 00       		.byte	0
 1265 002c 00000000 		.4byte	.LEHB3-.LFB53
 1266 0030 00000000 		.4byte	.LEHE3-.LEHB3
 1267 0034 00000000 		.4byte	.L64-.LFB53
 1268 0038 00       		.byte	0
 1269 0039 00000000 		.4byte	.LEHB4-.LFB53
 1270 003d 00000000 		.4byte	.LEHE4-.LEHB4
 1271 0041 00000000 		.4byte	0
 1272 0045 00       		.byte	0
 1273 0046 00000000 		.4byte	.LEHB5-.LFB53
 1274 004a 00000000 		.4byte	.LEHE5-.LEHB5
 1275 004e 00000000 		.4byte	.L65-.LFB53
 1276 0052 00       		.byte	0
 1277 0053 00000000 		.4byte	.LEHB6-.LFB53
 1278 0057 00000000 		.4byte	.LEHE6-.LEHB6
 1279 005b 00000000 		.4byte	0
 1280 005f 00       		.byte	0
 1281 0060 00000000 		.4byte	.LEHB7-.LFB53
 1282 0064 00000000 		.4byte	.LEHE7-.LEHB7
 1283 0068 00000000 		.4byte	.L66-.LFB53
 1284 006c 00       		.byte	0
 1285 006d 00000000 		.4byte	.LEHB8-.LFB53
 1286 0071 00000000 		.4byte	.LEHE8-.LEHB8
 1287 0075 00000000 		.4byte	0
 1288 0079 00       		.byte	0
 1289 007a 00000000 		.4byte	.LEHB9-.LFB53
 1290 007e 00000000 		.4byte	.LEHE9-.LEHB9
 1291 0082 00000000 		.4byte	.L67-.LFB53
 1292 0086 00       		.byte	0
 1293 0087 00000000 		.4byte	.LEHB10-.LFB53
 1294 008b 00000000 		.4byte	.LEHE10-.LEHB10
 1295 008f 00000000 		.4byte	0
 1296 0093 00       		.byte	0
 1297              		.text
GAS LISTING /tmp/cchvhxki.s 			page 32


 1299              		.weak	_ZTV16ProducerKeyboard
 1300              		.section	.data.rel.ro.local._ZTV16ProducerKeyboard,"awG",@progbits,_ZTV16ProducerKeyboard,comdat
 1301              		.align	3
 1304              	_ZTV16ProducerKeyboard:
 1305 0000 00000000 		.dword	0
 1305      00000000 
 1306 0008 00000000 		.dword	0
 1306      00000000 
 1307 0010 00000000 		.dword	_ZN16ProducerKeyboardD1Ev
 1307      00000000 
 1308 0018 00000000 		.dword	_ZN16ProducerKeyboardD0Ev
 1308      00000000 
 1309 0020 00000000 		.dword	_ZN16ProducerKeyboard3runEv
 1309      00000000 
 1310              		.weak	_ZTV12ProducerSync
 1311              		.section	.data.rel.ro.local._ZTV12ProducerSync,"awG",@progbits,_ZTV12ProducerSync,comdat
 1312              		.align	3
 1315              	_ZTV12ProducerSync:
 1316 0000 00000000 		.dword	0
 1316      00000000 
 1317 0008 00000000 		.dword	0
 1317      00000000 
 1318 0010 00000000 		.dword	_ZN12ProducerSyncD1Ev
 1318      00000000 
 1319 0018 00000000 		.dword	_ZN12ProducerSyncD0Ev
 1319      00000000 
 1320 0020 00000000 		.dword	_ZN12ProducerSync3runEv
 1320      00000000 
 1321              		.weak	_ZTV12ConsumerSync
 1322              		.section	.data.rel.ro.local._ZTV12ConsumerSync,"awG",@progbits,_ZTV12ConsumerSync,comdat
 1323              		.align	3
 1326              	_ZTV12ConsumerSync:
 1327 0000 00000000 		.dword	0
 1327      00000000 
 1328 0008 00000000 		.dword	0
 1328      00000000 
 1329 0010 00000000 		.dword	_ZN12ConsumerSyncD1Ev
 1329      00000000 
 1330 0018 00000000 		.dword	_ZN12ConsumerSyncD0Ev
 1330      00000000 
 1331 0020 00000000 		.dword	_ZN12ConsumerSync3runEv
 1331      00000000 
 1332              		.bss
 1333              		.align	3
 1334              		.set	.LANCHOR0,. + 0
 1337              	_ZL9threadEnd:
 1338 0000 00000000 		.zero	4
 1339 0004 00000000 		.zero	4
 1342              	_ZL10waitForAll:
 1343 0008 00000000 		.zero	8
 1343      00000000 
 1344              		.text
 1345              	.Letext0:
 1346              		.file 2 "test/../h/../lib/hw.h"
 1347              		.file 3 "test/../h/syscall_cpp.hpp"
 1348              		.file 4 "test/buffer_CPP_API.hpp"
 1349              		.file 5 "test/printing.hpp"
GAS LISTING /tmp/cchvhxki.s 			page 33


 1350              		.file 6 "test/../h/syscall_c.hpp"
 5285              		.align	3
 5288              	DW.ref.__gxx_personality_v0:
 5289 0000 00000000 		.dword	__gxx_personality_v0
 5289      00000000 
 5290              		.ident	"GCC: (Ubuntu 9.4.0-1ubuntu1~20.04) 9.4.0"
 5291              		.section	.note.GNU-stack,"",@progbits
GAS LISTING /tmp/cchvhxki.s 			page 34

