GAS LISTING /tmp/ccy99jGc.s 			page 1


   1              		.file	"System_Mode_test.cpp"
   2              		.option pic
   3              		.option norelax
   4              		.text
   5              	.Ltext0:
   6              		.align	2
   8              	_ZL9fibonaccim:
   9              	.LFB37:
  10              		.file 1 "test/System_Mode_test.cpp"
   1:test/System_Mode_test.cpp **** 
   2:test/System_Mode_test.cpp **** #include "../h/syscall_c.hpp"
   3:test/System_Mode_test.cpp **** 
   4:test/System_Mode_test.cpp **** #include "printing.hpp"
   5:test/System_Mode_test.cpp **** 
   6:test/System_Mode_test.cpp **** static volatile bool finishedA = false;
   7:test/System_Mode_test.cpp **** static volatile bool finishedB = false;
   8:test/System_Mode_test.cpp **** static volatile bool finishedC = false;
   9:test/System_Mode_test.cpp **** static volatile bool finishedD = false;
  10:test/System_Mode_test.cpp **** 
  11:test/System_Mode_test.cpp **** static uint64 fibonacci(uint64 n) {
  11              		.loc 1 11 35
  12              		.cfi_startproc
  13              	.LVL0:
  14 0000 130101FE 		addi	sp,sp,-32
  15              		.cfi_def_cfa_offset 32
  16 0004 233C1100 		sd	ra,24(sp)
  17 0008 23388100 		sd	s0,16(sp)
  18 000c 23349100 		sd	s1,8(sp)
  19 0010 23302101 		sd	s2,0(sp)
  20              		.cfi_offset 1, -8
  21              		.cfi_offset 8, -16
  22              		.cfi_offset 9, -24
  23              		.cfi_offset 18, -32
  24 0014 13040102 		addi	s0,sp,32
  25              		.cfi_def_cfa 8, 0
  26 0018 93040500 		mv	s1,a0
  12:test/System_Mode_test.cpp ****     if (n == 0 || n == 1) { return n; }
  27              		.loc 1 12 5
  28 001c 93071000 		li	a5,1
  29 0020 63F8A702 		bleu	a0,a5,.L1
  13:test/System_Mode_test.cpp ****     if (n % 10 == 0) { thread_dispatch(); }
  30              		.loc 1 13 5
  31              		.loc 1 13 11 is_stmt 0
  32 0024 9307A000 		li	a5,10
  33 0028 B377F502 		remu	a5,a0,a5
  34              		.loc 1 13 5
  35 002c 638E0702 		beqz	a5,.L6
  36              	.LVL1:
  37              	.L3:
  14:test/System_Mode_test.cpp ****     return fibonacci(n - 1) + fibonacci(n - 2);
  38              		.loc 1 14 5 is_stmt 1
  39              		.loc 1 14 21 is_stmt 0
  40 0030 1385F4FF 		addi	a0,s1,-1
  41 0034 97000000 		call	_ZL9fibonaccim
  41      E7800000 
  42              	.LVL2:
  43 003c 13090500 		mv	s2,a0
GAS LISTING /tmp/ccy99jGc.s 			page 2


  44              		.loc 1 14 40
  45 0040 1385E4FF 		addi	a0,s1,-2
  46 0044 97000000 		call	_ZL9fibonaccim
  46      E7800000 
  47              	.LVL3:
  48              		.loc 1 14 46
  49 004c 3305A900 		add	a0,s2,a0
  50              	.L1:
  15:test/System_Mode_test.cpp **** }
  51              		.loc 1 15 1
  52 0050 83308101 		ld	ra,24(sp)
  53              		.cfi_remember_state
  54              		.cfi_restore 1
  55 0054 03340101 		ld	s0,16(sp)
  56              		.cfi_restore 8
  57              		.cfi_def_cfa 2, 32
  58 0058 83348100 		ld	s1,8(sp)
  59              		.cfi_restore 9
  60              	.LVL4:
  61 005c 03390100 		ld	s2,0(sp)
  62              		.cfi_restore 18
  63 0060 13010102 		addi	sp,sp,32
  64              		.cfi_def_cfa_offset 0
  65 0064 67800000 		jr	ra
  66              	.LVL5:
  67              	.L6:
  68              		.cfi_restore_state
  13:test/System_Mode_test.cpp ****     if (n % 10 == 0) { thread_dispatch(); }
  69              		.loc 1 13 24 is_stmt 1 discriminator 1
  13:test/System_Mode_test.cpp ****     if (n % 10 == 0) { thread_dispatch(); }
  70              		.loc 1 13 39 is_stmt 0 discriminator 1
  71 0068 97000000 		call	_Z15thread_dispatchv@plt
  71      E7800000 
  72              	.LVL6:
  73 0070 6FF01FFC 		j	.L3
  74              		.cfi_endproc
  75              	.LFE37:
  77              		.section	.rodata.str1.8,"aMS",@progbits,1
  78              		.align	3
  79              	.LC0:
  80 0000 443A2069 		.string	"D: i="
  80      3D00
  81 0006 0000     		.align	3
  82              	.LC1:
  83 0008 0A00     		.string	"\n"
  84 000a 00000000 		.align	3
  84      0000
  85              	.LC2:
  86 0010 443A2064 		.string	"D: dispatch\n"
  86      69737061 
  86      7463680A 
  86      00
  87 001d 000000   		.align	3
  88              	.LC3:
  89 0020 443A2066 		.string	"D: fibonaci="
  89      69626F6E 
  89      6163693D 
GAS LISTING /tmp/ccy99jGc.s 			page 3


  89      00
  90 002d 000000   		.align	3
  91              	.LC4:
  92 0030 44206669 		.string	"D finished!\n"
  92      6E697368 
  92      6564210A 
  92      00
  93              		.text
  94              		.align	2
  96              	_ZL11workerBodyDPv:
  97              	.LFB41:
  16:test/System_Mode_test.cpp **** 
  17:test/System_Mode_test.cpp **** static void workerBodyA(void* arg) {
  18:test/System_Mode_test.cpp ****     for (uint64 i = 0; i < 10; i++) {
  19:test/System_Mode_test.cpp ****         printString("A: i="); printInt(i); printString("\n");
  20:test/System_Mode_test.cpp ****         for (uint64 j = 0; j < 10000; j++) {
  21:test/System_Mode_test.cpp ****             for (uint64 k = 0; k < 30000; k++) { /* busy wait */ }
  22:test/System_Mode_test.cpp ****             thread_dispatch();
  23:test/System_Mode_test.cpp ****         }
  24:test/System_Mode_test.cpp ****     }
  25:test/System_Mode_test.cpp ****     printString("A finished!\n");
  26:test/System_Mode_test.cpp ****     finishedA = true;
  27:test/System_Mode_test.cpp **** }
  28:test/System_Mode_test.cpp **** 
  29:test/System_Mode_test.cpp **** static void workerBodyB(void* arg) {
  30:test/System_Mode_test.cpp ****     for (uint64 i = 0; i < 16; i++) {
  31:test/System_Mode_test.cpp ****         printString("B: i="); printInt(i); printString("\n");
  32:test/System_Mode_test.cpp ****         for (uint64 j = 0; j < 10000; j++) {
  33:test/System_Mode_test.cpp ****             for (uint64 k = 0; k < 30000; k++) { /* busy wait */ }
  34:test/System_Mode_test.cpp ****             thread_dispatch();
  35:test/System_Mode_test.cpp ****         }
  36:test/System_Mode_test.cpp ****         if (i == 10) {
  37:test/System_Mode_test.cpp ****             asm volatile("csrr t6, sepc");
  38:test/System_Mode_test.cpp ****         }
  39:test/System_Mode_test.cpp ****     }
  40:test/System_Mode_test.cpp ****     printString("B finished!\n");
  41:test/System_Mode_test.cpp ****     finishedB = true;
  42:test/System_Mode_test.cpp ****     thread_dispatch();
  43:test/System_Mode_test.cpp **** }
  44:test/System_Mode_test.cpp **** 
  45:test/System_Mode_test.cpp **** static void workerBodyC(void* arg) {
  46:test/System_Mode_test.cpp ****     uint8 i = 0;
  47:test/System_Mode_test.cpp ****     for (; i < 3; i++) {
  48:test/System_Mode_test.cpp ****         printString("C: i="); printInt(i); printString("\n");
  49:test/System_Mode_test.cpp ****     }
  50:test/System_Mode_test.cpp **** 
  51:test/System_Mode_test.cpp ****     printString("C: dispatch\n");
  52:test/System_Mode_test.cpp ****     __asm__ ("li t1, 7");
  53:test/System_Mode_test.cpp ****     thread_dispatch();
  54:test/System_Mode_test.cpp **** 
  55:test/System_Mode_test.cpp ****     uint64 t1 = 0;
  56:test/System_Mode_test.cpp ****     __asm__ ("mv %[t1], t1" : [t1] "=r"(t1));
  57:test/System_Mode_test.cpp **** 
  58:test/System_Mode_test.cpp ****     printString("C: t1="); printInt(t1); printString("\n");
  59:test/System_Mode_test.cpp **** 
  60:test/System_Mode_test.cpp ****     uint64 result = fibonacci(12);
  61:test/System_Mode_test.cpp ****     printString("C: fibonaci="); printInt(result); printString("\n");
GAS LISTING /tmp/ccy99jGc.s 			page 4


  62:test/System_Mode_test.cpp **** 
  63:test/System_Mode_test.cpp ****     for (; i < 6; i++) {
  64:test/System_Mode_test.cpp ****         printString("C: i="); printInt(i); printString("\n");
  65:test/System_Mode_test.cpp ****     }
  66:test/System_Mode_test.cpp **** 
  67:test/System_Mode_test.cpp ****     printString("A finished!\n");
  68:test/System_Mode_test.cpp ****     finishedC = true;
  69:test/System_Mode_test.cpp ****     thread_dispatch();
  70:test/System_Mode_test.cpp **** }
  71:test/System_Mode_test.cpp **** 
  72:test/System_Mode_test.cpp **** static void workerBodyD(void* arg) {
  98              		.loc 1 72 36 is_stmt 1
  99              		.cfi_startproc
 100              	.LVL7:
 101 0074 130101FE 		addi	sp,sp,-32
 102              		.cfi_def_cfa_offset 32
 103 0078 233C1100 		sd	ra,24(sp)
 104 007c 23388100 		sd	s0,16(sp)
 105 0080 23349100 		sd	s1,8(sp)
 106 0084 23302101 		sd	s2,0(sp)
 107              		.cfi_offset 1, -8
 108              		.cfi_offset 8, -16
 109              		.cfi_offset 9, -24
 110              		.cfi_offset 18, -32
 111 0088 13040102 		addi	s0,sp,32
 112              		.cfi_def_cfa 8, 0
  73:test/System_Mode_test.cpp ****     uint8 i = 10;
 113              		.loc 1 73 5
 114              	.LVL8:
 115              		.loc 1 73 11 is_stmt 0
 116 008c 9304A000 		li	s1,10
 117 0090 6F000004 		j	.L9
 118              	.LVL9:
 119              	.L13:
  74:test/System_Mode_test.cpp ****     for (; i < 13; i++) {
  75:test/System_Mode_test.cpp ****         printString("D: i="); printInt(i); printString("\n");
 120              		.loc 1 75 9 is_stmt 1 discriminator 1
 121              		.loc 1 75 20 is_stmt 0 discriminator 1
 122 0094 17050000 		lla	a0,.LC0
 122      13050500 
 123 009c 97000000 		call	_Z11printStringPKc@plt
 123      E7800000 
 124              	.LVL10:
 125              		.loc 1 75 31 is_stmt 1 discriminator 1
 126              		.loc 1 75 39 is_stmt 0 discriminator 1
 127 00a4 13060000 		li	a2,0
 128 00a8 9305A000 		li	a1,10
 129 00ac 13850400 		mv	a0,s1
 130 00b0 97000000 		call	_Z8printIntiii@plt
 130      E7800000 
 131              	.LVL11:
 132              		.loc 1 75 44 is_stmt 1 discriminator 1
 133              		.loc 1 75 55 is_stmt 0 discriminator 1
 134 00b8 17050000 		lla	a0,.LC1
 134      13050500 
 135 00c0 97000000 		call	_Z11printStringPKc@plt
 135      E7800000 
GAS LISTING /tmp/ccy99jGc.s 			page 5


 136              	.LVL12:
  74:test/System_Mode_test.cpp ****     for (; i < 13; i++) {
 137              		.loc 1 74 5 is_stmt 1 discriminator 1
 138 00c8 9B841400 		addiw	s1,s1,1
 139              	.LVL13:
 140 00cc 93F4F40F 		andi	s1,s1,0xff
 141              	.LVL14:
 142              	.L9:
  74:test/System_Mode_test.cpp ****     for (; i < 13; i++) {
 143              		.loc 1 74 5 discriminator 2
  74:test/System_Mode_test.cpp ****     for (; i < 13; i++) {
 144              		.loc 1 74 14 discriminator 2
 145 00d0 9307C000 		li	a5,12
 146 00d4 E3F097FC 		bleu	s1,a5,.L13
  76:test/System_Mode_test.cpp ****     }
  77:test/System_Mode_test.cpp **** 
  78:test/System_Mode_test.cpp ****     printString("D: dispatch\n");
 147              		.loc 1 78 5
 148              		.loc 1 78 16 is_stmt 0
 149 00d8 17050000 		lla	a0,.LC2
 149      13050500 
 150 00e0 97000000 		call	_Z11printStringPKc@plt
 150      E7800000 
 151              	.LVL15:
  79:test/System_Mode_test.cpp ****     __asm__ ("li t1, 5");
 152              		.loc 1 79 5 is_stmt 1
 153              		.loc 1 79 25 is_stmt 0
 154              	#APP
 155              	# 79 "test/System_Mode_test.cpp" 1
  80              	    thread_dispatch();
 156              		li t1, 5
 157              	# 0 "" 2
 158              		.loc 1 80 5 is_stmt 1
 159              		.loc 1 80 20 is_stmt 0
 160              	#NO_APP
 161 00ec 97000000 		call	_Z15thread_dispatchv@plt
 161      E7800000 
 162              	.LVL16:
  81:test/System_Mode_test.cpp **** 
  82:test/System_Mode_test.cpp ****     uint64 result = fibonacci(16);
 163              		.loc 1 82 5 is_stmt 1
 164              		.loc 1 82 30 is_stmt 0
 165 00f4 13050001 		li	a0,16
 166 00f8 97000000 		call	_ZL9fibonaccim
 166      E7800000 
 167              	.LVL17:
 168 0100 13090500 		mv	s2,a0
 169              	.LVL18:
  83:test/System_Mode_test.cpp ****     printString("D: fibonaci="); printInt(result); printString("\n");
 170              		.loc 1 83 5 is_stmt 1
 171              		.loc 1 83 16 is_stmt 0
 172 0104 17050000 		lla	a0,.LC3
 172      13050500 
 173              	.LVL19:
 174 010c 97000000 		call	_Z11printStringPKc@plt
 174      E7800000 
 175              	.LVL20:
GAS LISTING /tmp/ccy99jGc.s 			page 6


 176              		.loc 1 83 34 is_stmt 1
 177              		.loc 1 83 42 is_stmt 0
 178 0114 13060000 		li	a2,0
 179 0118 9305A000 		li	a1,10
 180 011c 1B050900 		sext.w	a0,s2
 181 0120 97000000 		call	_Z8printIntiii@plt
 181      E7800000 
 182              	.LVL21:
 183              		.loc 1 83 52 is_stmt 1
 184              		.loc 1 83 63 is_stmt 0
 185 0128 17050000 		lla	a0,.LC1
 185      13050500 
 186 0130 97000000 		call	_Z11printStringPKc@plt
 186      E7800000 
 187              	.LVL22:
 188 0138 6F000004 		j	.L11
 189              	.L14:
  84:test/System_Mode_test.cpp **** 
  85:test/System_Mode_test.cpp ****     for (; i < 16; i++) {
  86:test/System_Mode_test.cpp ****         printString("D: i="); printInt(i); printString("\n");
 190              		.loc 1 86 9 is_stmt 1 discriminator 1
 191              		.loc 1 86 20 is_stmt 0 discriminator 1
 192 013c 17050000 		lla	a0,.LC0
 192      13050500 
 193 0144 97000000 		call	_Z11printStringPKc@plt
 193      E7800000 
 194              	.LVL23:
 195              		.loc 1 86 31 is_stmt 1 discriminator 1
 196              		.loc 1 86 39 is_stmt 0 discriminator 1
 197 014c 13060000 		li	a2,0
 198 0150 9305A000 		li	a1,10
 199 0154 13850400 		mv	a0,s1
 200 0158 97000000 		call	_Z8printIntiii@plt
 200      E7800000 
 201              	.LVL24:
 202              		.loc 1 86 44 is_stmt 1 discriminator 1
 203              		.loc 1 86 55 is_stmt 0 discriminator 1
 204 0160 17050000 		lla	a0,.LC1
 204      13050500 
 205 0168 97000000 		call	_Z11printStringPKc@plt
 205      E7800000 
 206              	.LVL25:
  85:test/System_Mode_test.cpp ****         printString("D: i="); printInt(i); printString("\n");
 207              		.loc 1 85 5 is_stmt 1 discriminator 1
 208 0170 9B841400 		addiw	s1,s1,1
 209              	.LVL26:
 210 0174 93F4F40F 		andi	s1,s1,0xff
 211              	.LVL27:
 212              	.L11:
  85:test/System_Mode_test.cpp ****         printString("D: i="); printInt(i); printString("\n");
 213              		.loc 1 85 5 discriminator 2
  85:test/System_Mode_test.cpp ****         printString("D: i="); printInt(i); printString("\n");
 214              		.loc 1 85 14 discriminator 2
 215 0178 9307F000 		li	a5,15
 216 017c E3F097FC 		bleu	s1,a5,.L14
  87:test/System_Mode_test.cpp ****     }
  88:test/System_Mode_test.cpp **** 
GAS LISTING /tmp/ccy99jGc.s 			page 7


  89:test/System_Mode_test.cpp ****     printString("D finished!\n");
 217              		.loc 1 89 5
 218              		.loc 1 89 16 is_stmt 0
 219 0180 17050000 		lla	a0,.LC4
 219      13050500 
 220 0188 97000000 		call	_Z11printStringPKc@plt
 220      E7800000 
 221              	.LVL28:
  90:test/System_Mode_test.cpp ****     finishedD = true;
 222              		.loc 1 90 5 is_stmt 1
 223              		.loc 1 90 15 is_stmt 0
 224 0190 93071000 		li	a5,1
 225 0194 17070000 		sb	a5,.LANCHOR0,a4
 225      2300F700 
  91:test/System_Mode_test.cpp ****     thread_dispatch();
 226              		.loc 1 91 5 is_stmt 1
 227              		.loc 1 91 20 is_stmt 0
 228 019c 97000000 		call	_Z15thread_dispatchv@plt
 228      E7800000 
 229              	.LVL29:
  92:test/System_Mode_test.cpp **** }
 230              		.loc 1 92 1
 231 01a4 83308101 		ld	ra,24(sp)
 232              		.cfi_restore 1
 233 01a8 03340101 		ld	s0,16(sp)
 234              		.cfi_restore 8
 235              		.cfi_def_cfa 2, 32
 236 01ac 83348100 		ld	s1,8(sp)
 237              		.cfi_restore 9
 238              	.LVL30:
 239 01b0 03390100 		ld	s2,0(sp)
 240              		.cfi_restore 18
 241              	.LVL31:
 242 01b4 13010102 		addi	sp,sp,32
 243              		.cfi_def_cfa_offset 0
 244 01b8 67800000 		jr	ra
 245              		.cfi_endproc
 246              	.LFE41:
 248              		.section	.rodata.str1.8
 249 003d 000000   		.align	3
 250              	.LC5:
 251 0040 433A2069 		.string	"C: i="
 251      3D00
 252 0046 0000     		.align	3
 253              	.LC6:
 254 0048 433A2064 		.string	"C: dispatch\n"
 254      69737061 
 254      7463680A 
 254      00
 255 0055 000000   		.align	3
 256              	.LC7:
 257 0058 433A2074 		.string	"C: t1="
 257      313D00
 258 005f 00       		.align	3
 259              	.LC8:
 260 0060 433A2066 		.string	"C: fibonaci="
 260      69626F6E 
GAS LISTING /tmp/ccy99jGc.s 			page 8


 260      6163693D 
 260      00
 261 006d 000000   		.align	3
 262              	.LC9:
 263 0070 41206669 		.string	"A finished!\n"
 263      6E697368 
 263      6564210A 
 263      00
 264              		.text
 265              		.align	2
 267              	_ZL11workerBodyCPv:
 268              	.LFB40:
  45:test/System_Mode_test.cpp ****     uint8 i = 0;
 269              		.loc 1 45 36 is_stmt 1
 270              		.cfi_startproc
 271              	.LVL32:
 272 01bc 130101FE 		addi	sp,sp,-32
 273              		.cfi_def_cfa_offset 32
 274 01c0 233C1100 		sd	ra,24(sp)
 275 01c4 23388100 		sd	s0,16(sp)
 276 01c8 23349100 		sd	s1,8(sp)
 277 01cc 23302101 		sd	s2,0(sp)
 278              		.cfi_offset 1, -8
 279              		.cfi_offset 8, -16
 280              		.cfi_offset 9, -24
 281              		.cfi_offset 18, -32
 282 01d0 13040102 		addi	s0,sp,32
 283              		.cfi_def_cfa 8, 0
  46:test/System_Mode_test.cpp ****     for (; i < 3; i++) {
 284              		.loc 1 46 5
 285              	.LVL33:
  46:test/System_Mode_test.cpp ****     for (; i < 3; i++) {
 286              		.loc 1 46 11 is_stmt 0
 287 01d4 93040000 		li	s1,0
 288 01d8 6F000004 		j	.L17
 289              	.LVL34:
 290              	.L21:
  48:test/System_Mode_test.cpp ****     }
 291              		.loc 1 48 9 is_stmt 1 discriminator 1
  48:test/System_Mode_test.cpp ****     }
 292              		.loc 1 48 20 is_stmt 0 discriminator 1
 293 01dc 17050000 		lla	a0,.LC5
 293      13050500 
 294 01e4 97000000 		call	_Z11printStringPKc@plt
 294      E7800000 
 295              	.LVL35:
  48:test/System_Mode_test.cpp ****     }
 296              		.loc 1 48 31 is_stmt 1 discriminator 1
  48:test/System_Mode_test.cpp ****     }
 297              		.loc 1 48 39 is_stmt 0 discriminator 1
 298 01ec 13060000 		li	a2,0
 299 01f0 9305A000 		li	a1,10
 300 01f4 13850400 		mv	a0,s1
 301 01f8 97000000 		call	_Z8printIntiii@plt
 301      E7800000 
 302              	.LVL36:
  48:test/System_Mode_test.cpp ****     }
GAS LISTING /tmp/ccy99jGc.s 			page 9


 303              		.loc 1 48 44 is_stmt 1 discriminator 1
  48:test/System_Mode_test.cpp ****     }
 304              		.loc 1 48 55 is_stmt 0 discriminator 1
 305 0200 17050000 		lla	a0,.LC1
 305      13050500 
 306 0208 97000000 		call	_Z11printStringPKc@plt
 306      E7800000 
 307              	.LVL37:
  47:test/System_Mode_test.cpp ****         printString("C: i="); printInt(i); printString("\n");
 308              		.loc 1 47 5 is_stmt 1 discriminator 1
 309 0210 9B841400 		addiw	s1,s1,1
 310              	.LVL38:
 311 0214 93F4F40F 		andi	s1,s1,0xff
 312              	.LVL39:
 313              	.L17:
  47:test/System_Mode_test.cpp ****         printString("C: i="); printInt(i); printString("\n");
 314              		.loc 1 47 5 discriminator 2
  47:test/System_Mode_test.cpp ****         printString("C: i="); printInt(i); printString("\n");
 315              		.loc 1 47 14 discriminator 2
 316 0218 93072000 		li	a5,2
 317 021c E3F097FC 		bleu	s1,a5,.L21
  51:test/System_Mode_test.cpp ****     __asm__ ("li t1, 7");
 318              		.loc 1 51 5
  51:test/System_Mode_test.cpp ****     __asm__ ("li t1, 7");
 319              		.loc 1 51 16 is_stmt 0
 320 0220 17050000 		lla	a0,.LC6
 320      13050500 
 321 0228 97000000 		call	_Z11printStringPKc@plt
 321      E7800000 
 322              	.LVL40:
  52:test/System_Mode_test.cpp ****     thread_dispatch();
 323              		.loc 1 52 5 is_stmt 1
  52:test/System_Mode_test.cpp ****     thread_dispatch();
 324              		.loc 1 52 25 is_stmt 0
 325              	#APP
 326              	# 52 "test/System_Mode_test.cpp" 1
  53:test/System_Mode_test.cpp **** 
 327              		li t1, 7
 328              	# 0 "" 2
 329              		.loc 1 53 5 is_stmt 1
  53:test/System_Mode_test.cpp **** 
 330              		.loc 1 53 20 is_stmt 0
 331              	#NO_APP
 332 0234 97000000 		call	_Z15thread_dispatchv@plt
 332      E7800000 
 333              	.LVL41:
  55:test/System_Mode_test.cpp ****     __asm__ ("mv %[t1], t1" : [t1] "=r"(t1));
 334              		.loc 1 55 5 is_stmt 1
  56:test/System_Mode_test.cpp **** 
 335              		.loc 1 56 5
  56:test/System_Mode_test.cpp **** 
 336              		.loc 1 56 45 is_stmt 0
 337              	#APP
 338              	# 56 "test/System_Mode_test.cpp" 1
 339              		mv s2, t1
 340              	# 0 "" 2
 341              	.LVL42:
GAS LISTING /tmp/ccy99jGc.s 			page 10


  58:test/System_Mode_test.cpp **** 
 342              		.loc 1 58 5 is_stmt 1
  58:test/System_Mode_test.cpp **** 
 343              		.loc 1 58 16 is_stmt 0
 344              	#NO_APP
 345 0240 17050000 		lla	a0,.LC7
 345      13050500 
 346 0248 97000000 		call	_Z11printStringPKc@plt
 346      E7800000 
 347              	.LVL43:
  58:test/System_Mode_test.cpp **** 
 348              		.loc 1 58 28 is_stmt 1
  58:test/System_Mode_test.cpp **** 
 349              		.loc 1 58 36 is_stmt 0
 350 0250 13060000 		li	a2,0
 351 0254 9305A000 		li	a1,10
 352 0258 1B050900 		sext.w	a0,s2
 353 025c 97000000 		call	_Z8printIntiii@plt
 353      E7800000 
 354              	.LVL44:
  58:test/System_Mode_test.cpp **** 
 355              		.loc 1 58 42 is_stmt 1
  58:test/System_Mode_test.cpp **** 
 356              		.loc 1 58 53 is_stmt 0
 357 0264 17050000 		lla	a0,.LC1
 357      13050500 
 358 026c 97000000 		call	_Z11printStringPKc@plt
 358      E7800000 
 359              	.LVL45:
  60:test/System_Mode_test.cpp ****     printString("C: fibonaci="); printInt(result); printString("\n");
 360              		.loc 1 60 5 is_stmt 1
  60:test/System_Mode_test.cpp ****     printString("C: fibonaci="); printInt(result); printString("\n");
 361              		.loc 1 60 30 is_stmt 0
 362 0274 1305C000 		li	a0,12
 363 0278 97000000 		call	_ZL9fibonaccim
 363      E7800000 
 364              	.LVL46:
 365 0280 13090500 		mv	s2,a0
 366              	.LVL47:
  61:test/System_Mode_test.cpp **** 
 367              		.loc 1 61 5 is_stmt 1
  61:test/System_Mode_test.cpp **** 
 368              		.loc 1 61 16 is_stmt 0
 369 0284 17050000 		lla	a0,.LC8
 369      13050500 
 370              	.LVL48:
 371 028c 97000000 		call	_Z11printStringPKc@plt
 371      E7800000 
 372              	.LVL49:
  61:test/System_Mode_test.cpp **** 
 373              		.loc 1 61 34 is_stmt 1
  61:test/System_Mode_test.cpp **** 
 374              		.loc 1 61 42 is_stmt 0
 375 0294 13060000 		li	a2,0
 376 0298 9305A000 		li	a1,10
 377 029c 1B050900 		sext.w	a0,s2
 378 02a0 97000000 		call	_Z8printIntiii@plt
GAS LISTING /tmp/ccy99jGc.s 			page 11


 378      E7800000 
 379              	.LVL50:
  61:test/System_Mode_test.cpp **** 
 380              		.loc 1 61 52 is_stmt 1
  61:test/System_Mode_test.cpp **** 
 381              		.loc 1 61 63 is_stmt 0
 382 02a8 17050000 		lla	a0,.LC1
 382      13050500 
 383 02b0 97000000 		call	_Z11printStringPKc@plt
 383      E7800000 
 384              	.LVL51:
 385 02b8 6F000004 		j	.L19
 386              	.L22:
  64:test/System_Mode_test.cpp ****     }
 387              		.loc 1 64 9 is_stmt 1 discriminator 1
  64:test/System_Mode_test.cpp ****     }
 388              		.loc 1 64 20 is_stmt 0 discriminator 1
 389 02bc 17050000 		lla	a0,.LC5
 389      13050500 
 390 02c4 97000000 		call	_Z11printStringPKc@plt
 390      E7800000 
 391              	.LVL52:
  64:test/System_Mode_test.cpp ****     }
 392              		.loc 1 64 31 is_stmt 1 discriminator 1
  64:test/System_Mode_test.cpp ****     }
 393              		.loc 1 64 39 is_stmt 0 discriminator 1
 394 02cc 13060000 		li	a2,0
 395 02d0 9305A000 		li	a1,10
 396 02d4 13850400 		mv	a0,s1
 397 02d8 97000000 		call	_Z8printIntiii@plt
 397      E7800000 
 398              	.LVL53:
  64:test/System_Mode_test.cpp ****     }
 399              		.loc 1 64 44 is_stmt 1 discriminator 1
  64:test/System_Mode_test.cpp ****     }
 400              		.loc 1 64 55 is_stmt 0 discriminator 1
 401 02e0 17050000 		lla	a0,.LC1
 401      13050500 
 402 02e8 97000000 		call	_Z11printStringPKc@plt
 402      E7800000 
 403              	.LVL54:
  63:test/System_Mode_test.cpp ****         printString("C: i="); printInt(i); printString("\n");
 404              		.loc 1 63 5 is_stmt 1 discriminator 1
 405 02f0 9B841400 		addiw	s1,s1,1
 406              	.LVL55:
 407 02f4 93F4F40F 		andi	s1,s1,0xff
 408              	.LVL56:
 409              	.L19:
  63:test/System_Mode_test.cpp ****         printString("C: i="); printInt(i); printString("\n");
 410              		.loc 1 63 5 discriminator 2
  63:test/System_Mode_test.cpp ****         printString("C: i="); printInt(i); printString("\n");
 411              		.loc 1 63 14 discriminator 2
 412 02f8 93075000 		li	a5,5
 413 02fc E3F097FC 		bleu	s1,a5,.L22
  67:test/System_Mode_test.cpp ****     finishedC = true;
 414              		.loc 1 67 5
  67:test/System_Mode_test.cpp ****     finishedC = true;
GAS LISTING /tmp/ccy99jGc.s 			page 12


 415              		.loc 1 67 16 is_stmt 0
 416 0300 17050000 		lla	a0,.LC9
 416      13050500 
 417 0308 97000000 		call	_Z11printStringPKc@plt
 417      E7800000 
 418              	.LVL57:
  68:test/System_Mode_test.cpp ****     thread_dispatch();
 419              		.loc 1 68 5 is_stmt 1
  68:test/System_Mode_test.cpp ****     thread_dispatch();
 420              		.loc 1 68 15 is_stmt 0
 421 0310 93071000 		li	a5,1
 422 0314 17070000 		sb	a5,.LANCHOR0+1,a4
 422      2300F700 
  69:test/System_Mode_test.cpp **** }
 423              		.loc 1 69 5 is_stmt 1
  69:test/System_Mode_test.cpp **** }
 424              		.loc 1 69 20 is_stmt 0
 425 031c 97000000 		call	_Z15thread_dispatchv@plt
 425      E7800000 
 426              	.LVL58:
  70:test/System_Mode_test.cpp **** 
 427              		.loc 1 70 1
 428 0324 83308101 		ld	ra,24(sp)
 429              		.cfi_restore 1
 430 0328 03340101 		ld	s0,16(sp)
 431              		.cfi_restore 8
 432              		.cfi_def_cfa 2, 32
 433 032c 83348100 		ld	s1,8(sp)
 434              		.cfi_restore 9
 435              	.LVL59:
 436 0330 03390100 		ld	s2,0(sp)
 437              		.cfi_restore 18
 438              	.LVL60:
 439 0334 13010102 		addi	sp,sp,32
 440              		.cfi_def_cfa_offset 0
 441 0338 67800000 		jr	ra
 442              		.cfi_endproc
 443              	.LFE40:
 445              		.section	.rodata.str1.8
 446 007d 000000   		.align	3
 447              	.LC10:
 448 0080 423A2069 		.string	"B: i="
 448      3D00
 449 0086 0000     		.align	3
 450              	.LC11:
 451 0088 42206669 		.string	"B finished!\n"
 451      6E697368 
 451      6564210A 
 451      00
 452              		.text
 453              		.align	2
 455              	_ZL11workerBodyBPv:
 456              	.LFB39:
  29:test/System_Mode_test.cpp ****     for (uint64 i = 0; i < 16; i++) {
 457              		.loc 1 29 36 is_stmt 1
 458              		.cfi_startproc
 459              	.LVL61:
GAS LISTING /tmp/ccy99jGc.s 			page 13


 460 033c 130101FE 		addi	sp,sp,-32
 461              		.cfi_def_cfa_offset 32
 462 0340 233C1100 		sd	ra,24(sp)
 463 0344 23388100 		sd	s0,16(sp)
 464 0348 23349100 		sd	s1,8(sp)
 465 034c 23302101 		sd	s2,0(sp)
 466              		.cfi_offset 1, -8
 467              		.cfi_offset 8, -16
 468              		.cfi_offset 9, -24
 469              		.cfi_offset 18, -32
 470 0350 13040102 		addi	s0,sp,32
 471              		.cfi_def_cfa 8, 0
  30:test/System_Mode_test.cpp ****         printString("B: i="); printInt(i); printString("\n");
 472              		.loc 1 30 5
 473              	.LVL62:
 474              	.LBB2:
  30:test/System_Mode_test.cpp ****         printString("B: i="); printInt(i); printString("\n");
 475              		.loc 1 30 17 is_stmt 0
 476 0354 13090000 		li	s2,0
 477 0358 6F000004 		j	.L30
 478              	.LVL63:
 479              	.L26:
 480              	.LBB3:
 481              	.LBB4:
 482              	.LBB5:
  34:test/System_Mode_test.cpp ****         }
 483              		.loc 1 34 13 is_stmt 1 discriminator 2
  34:test/System_Mode_test.cpp ****         }
 484              		.loc 1 34 28 is_stmt 0 discriminator 2
 485 035c 97000000 		call	_Z15thread_dispatchv@plt
 485      E7800000 
 486              	.LVL64:
 487              	.LBE5:
  32:test/System_Mode_test.cpp ****             for (uint64 k = 0; k < 30000; k++) { /* busy wait */ }
 488              		.loc 1 32 9 is_stmt 1 discriminator 2
 489 0364 93841400 		addi	s1,s1,1
 490              	.LVL65:
 491              	.L28:
  32:test/System_Mode_test.cpp ****             for (uint64 k = 0; k < 30000; k++) { /* busy wait */ }
 492              		.loc 1 32 30 discriminator 1
 493 0368 B7270000 		li	a5,8192
 494 036c 9387F770 		addi	a5,a5,1807
 495 0370 63EE9700 		bgtu	s1,a5,.L25
 496              	.LBB7:
 497              	.LBB6:
  33:test/System_Mode_test.cpp ****             thread_dispatch();
 498              		.loc 1 33 25 is_stmt 0
 499 0374 13070000 		li	a4,0
 500              	.L27:
 501              	.LVL66:
  33:test/System_Mode_test.cpp ****             thread_dispatch();
 502              		.loc 1 33 34 is_stmt 1 discriminator 3
 503 0378 B7770000 		li	a5,28672
 504 037c 9387F752 		addi	a5,a5,1327
 505 0380 E3EEE7FC 		bgtu	a4,a5,.L26
  33:test/System_Mode_test.cpp ****             thread_dispatch();
 506              		.loc 1 33 13 discriminator 2
GAS LISTING /tmp/ccy99jGc.s 			page 14


 507 0384 13071700 		addi	a4,a4,1
 508              	.LVL67:
 509 0388 6FF01FFF 		j	.L27
 510              	.LVL68:
 511              	.L25:
 512              	.LBE6:
 513              	.LBE7:
 514              	.LBE4:
  36:test/System_Mode_test.cpp ****             asm volatile("csrr t6, sepc");
 515              		.loc 1 36 9
 516 038c 9307A000 		li	a5,10
 517 0390 6306F904 		beq	s2,a5,.L32
 518              	.L29:
 519              	.LBE3:
  30:test/System_Mode_test.cpp ****         printString("B: i="); printInt(i); printString("\n");
 520              		.loc 1 30 5 discriminator 2
 521 0394 13091900 		addi	s2,s2,1
 522              	.LVL69:
 523              	.L30:
  30:test/System_Mode_test.cpp ****         printString("B: i="); printInt(i); printString("\n");
 524              		.loc 1 30 26 discriminator 1
 525 0398 9307F000 		li	a5,15
 526 039c 63E42705 		bgtu	s2,a5,.L24
 527              	.LBB9:
  31:test/System_Mode_test.cpp ****         for (uint64 j = 0; j < 10000; j++) {
 528              		.loc 1 31 9
  31:test/System_Mode_test.cpp ****         for (uint64 j = 0; j < 10000; j++) {
 529              		.loc 1 31 20 is_stmt 0
 530 03a0 17050000 		lla	a0,.LC10
 530      13050500 
 531 03a8 97000000 		call	_Z11printStringPKc@plt
 531      E7800000 
 532              	.LVL70:
  31:test/System_Mode_test.cpp ****         for (uint64 j = 0; j < 10000; j++) {
 533              		.loc 1 31 31 is_stmt 1
  31:test/System_Mode_test.cpp ****         for (uint64 j = 0; j < 10000; j++) {
 534              		.loc 1 31 39 is_stmt 0
 535 03b0 13060000 		li	a2,0
 536 03b4 9305A000 		li	a1,10
 537 03b8 1B050900 		sext.w	a0,s2
 538 03bc 97000000 		call	_Z8printIntiii@plt
 538      E7800000 
 539              	.LVL71:
  31:test/System_Mode_test.cpp ****         for (uint64 j = 0; j < 10000; j++) {
 540              		.loc 1 31 44 is_stmt 1
  31:test/System_Mode_test.cpp ****         for (uint64 j = 0; j < 10000; j++) {
 541              		.loc 1 31 55 is_stmt 0
 542 03c4 17050000 		lla	a0,.LC1
 542      13050500 
 543 03cc 97000000 		call	_Z11printStringPKc@plt
 543      E7800000 
 544              	.LVL72:
  32:test/System_Mode_test.cpp ****             for (uint64 k = 0; k < 30000; k++) { /* busy wait */ }
 545              		.loc 1 32 9 is_stmt 1
 546              	.LBB8:
  32:test/System_Mode_test.cpp ****             for (uint64 k = 0; k < 30000; k++) { /* busy wait */ }
 547              		.loc 1 32 21 is_stmt 0
GAS LISTING /tmp/ccy99jGc.s 			page 15


 548 03d4 93040000 		li	s1,0
 549 03d8 6FF01FF9 		j	.L28
 550              	.LVL73:
 551              	.L32:
 552              	.LBE8:
  37:test/System_Mode_test.cpp ****         }
 553              		.loc 1 37 13 is_stmt 1
  37:test/System_Mode_test.cpp ****         }
 554              		.loc 1 37 42 is_stmt 0
 555              	#APP
 556              	# 37 "test/System_Mode_test.cpp" 1
 557              		csrr t6, sepc
 558              	# 0 "" 2
 559              	#NO_APP
 560 03e0 6FF05FFB 		j	.L29
 561              	.LVL74:
 562              	.L24:
 563              	.LBE9:
 564              	.LBE2:
  40:test/System_Mode_test.cpp ****     finishedB = true;
 565              		.loc 1 40 5 is_stmt 1
  40:test/System_Mode_test.cpp ****     finishedB = true;
 566              		.loc 1 40 16 is_stmt 0
 567 03e4 17050000 		lla	a0,.LC11
 567      13050500 
 568 03ec 97000000 		call	_Z11printStringPKc@plt
 568      E7800000 
 569              	.LVL75:
  41:test/System_Mode_test.cpp ****     thread_dispatch();
 570              		.loc 1 41 5 is_stmt 1
  41:test/System_Mode_test.cpp ****     thread_dispatch();
 571              		.loc 1 41 15 is_stmt 0
 572 03f4 93071000 		li	a5,1
 573 03f8 17070000 		sb	a5,.LANCHOR0+2,a4
 573      2300F700 
  42:test/System_Mode_test.cpp **** }
 574              		.loc 1 42 5 is_stmt 1
  42:test/System_Mode_test.cpp **** }
 575              		.loc 1 42 20 is_stmt 0
 576 0400 97000000 		call	_Z15thread_dispatchv@plt
 576      E7800000 
 577              	.LVL76:
  43:test/System_Mode_test.cpp **** 
 578              		.loc 1 43 1
 579 0408 83308101 		ld	ra,24(sp)
 580              		.cfi_restore 1
 581 040c 03340101 		ld	s0,16(sp)
 582              		.cfi_restore 8
 583              		.cfi_def_cfa 2, 32
 584 0410 83348100 		ld	s1,8(sp)
 585              		.cfi_restore 9
 586 0414 03390100 		ld	s2,0(sp)
 587              		.cfi_restore 18
 588              	.LVL77:
 589 0418 13010102 		addi	sp,sp,32
 590              		.cfi_def_cfa_offset 0
 591 041c 67800000 		jr	ra
GAS LISTING /tmp/ccy99jGc.s 			page 16


 592              		.cfi_endproc
 593              	.LFE39:
 595              		.section	.rodata.str1.8
 596 0095 000000   		.align	3
 597              	.LC12:
 598 0098 413A2069 		.string	"A: i="
 598      3D00
 599              		.text
 600              		.align	2
 602              	_ZL11workerBodyAPv:
 603              	.LFB38:
  17:test/System_Mode_test.cpp ****     for (uint64 i = 0; i < 10; i++) {
 604              		.loc 1 17 36 is_stmt 1
 605              		.cfi_startproc
 606              	.LVL78:
 607 0420 130101FE 		addi	sp,sp,-32
 608              		.cfi_def_cfa_offset 32
 609 0424 233C1100 		sd	ra,24(sp)
 610 0428 23388100 		sd	s0,16(sp)
 611 042c 23349100 		sd	s1,8(sp)
 612 0430 23302101 		sd	s2,0(sp)
 613              		.cfi_offset 1, -8
 614              		.cfi_offset 8, -16
 615              		.cfi_offset 9, -24
 616              		.cfi_offset 18, -32
 617 0434 13040102 		addi	s0,sp,32
 618              		.cfi_def_cfa 8, 0
  18:test/System_Mode_test.cpp ****         printString("A: i="); printInt(i); printString("\n");
 619              		.loc 1 18 5
 620              	.LVL79:
 621              	.LBB10:
  18:test/System_Mode_test.cpp ****         printString("A: i="); printInt(i); printString("\n");
 622              		.loc 1 18 17 is_stmt 0
 623 0438 13090000 		li	s2,0
 624 043c 6F008003 		j	.L39
 625              	.LVL80:
 626              	.L36:
 627              	.LBB11:
 628              	.LBB12:
 629              	.LBB13:
  22:test/System_Mode_test.cpp ****         }
 630              		.loc 1 22 13 is_stmt 1 discriminator 2
  22:test/System_Mode_test.cpp ****         }
 631              		.loc 1 22 28 is_stmt 0 discriminator 2
 632 0440 97000000 		call	_Z15thread_dispatchv@plt
 632      E7800000 
 633              	.LVL81:
 634              	.LBE13:
  20:test/System_Mode_test.cpp ****             for (uint64 k = 0; k < 30000; k++) { /* busy wait */ }
 635              		.loc 1 20 9 is_stmt 1 discriminator 2
 636 0448 93841400 		addi	s1,s1,1
 637              	.LVL82:
 638              	.L38:
  20:test/System_Mode_test.cpp ****             for (uint64 k = 0; k < 30000; k++) { /* busy wait */ }
 639              		.loc 1 20 30 discriminator 1
 640 044c B7270000 		li	a5,8192
 641 0450 9387F770 		addi	a5,a5,1807
GAS LISTING /tmp/ccy99jGc.s 			page 17


 642 0454 63EE9700 		bgtu	s1,a5,.L35
 643              	.LBB15:
 644              	.LBB14:
  21:test/System_Mode_test.cpp ****             thread_dispatch();
 645              		.loc 1 21 25 is_stmt 0
 646 0458 13070000 		li	a4,0
 647              	.L37:
 648              	.LVL83:
  21:test/System_Mode_test.cpp ****             thread_dispatch();
 649              		.loc 1 21 34 is_stmt 1 discriminator 3
 650 045c B7770000 		li	a5,28672
 651 0460 9387F752 		addi	a5,a5,1327
 652 0464 E3EEE7FC 		bgtu	a4,a5,.L36
  21:test/System_Mode_test.cpp ****             thread_dispatch();
 653              		.loc 1 21 13 discriminator 2
 654 0468 13071700 		addi	a4,a4,1
 655              	.LVL84:
 656 046c 6FF01FFF 		j	.L37
 657              	.LVL85:
 658              	.L35:
 659              	.LBE14:
 660              	.LBE15:
 661              	.LBE12:
 662              	.LBE11:
  18:test/System_Mode_test.cpp ****         printString("A: i="); printInt(i); printString("\n");
 663              		.loc 1 18 5 discriminator 2
 664 0470 13091900 		addi	s2,s2,1
 665              	.LVL86:
 666              	.L39:
  18:test/System_Mode_test.cpp ****         printString("A: i="); printInt(i); printString("\n");
 667              		.loc 1 18 26 discriminator 1
 668 0474 93079000 		li	a5,9
 669 0478 63E02705 		bgtu	s2,a5,.L34
 670              	.LBB17:
  19:test/System_Mode_test.cpp ****         for (uint64 j = 0; j < 10000; j++) {
 671              		.loc 1 19 9
  19:test/System_Mode_test.cpp ****         for (uint64 j = 0; j < 10000; j++) {
 672              		.loc 1 19 20 is_stmt 0
 673 047c 17050000 		lla	a0,.LC12
 673      13050500 
 674 0484 97000000 		call	_Z11printStringPKc@plt
 674      E7800000 
 675              	.LVL87:
  19:test/System_Mode_test.cpp ****         for (uint64 j = 0; j < 10000; j++) {
 676              		.loc 1 19 31 is_stmt 1
  19:test/System_Mode_test.cpp ****         for (uint64 j = 0; j < 10000; j++) {
 677              		.loc 1 19 39 is_stmt 0
 678 048c 13060000 		li	a2,0
 679 0490 9305A000 		li	a1,10
 680 0494 1B050900 		sext.w	a0,s2
 681 0498 97000000 		call	_Z8printIntiii@plt
 681      E7800000 
 682              	.LVL88:
  19:test/System_Mode_test.cpp ****         for (uint64 j = 0; j < 10000; j++) {
 683              		.loc 1 19 44 is_stmt 1
  19:test/System_Mode_test.cpp ****         for (uint64 j = 0; j < 10000; j++) {
 684              		.loc 1 19 55 is_stmt 0
GAS LISTING /tmp/ccy99jGc.s 			page 18


 685 04a0 17050000 		lla	a0,.LC1
 685      13050500 
 686 04a8 97000000 		call	_Z11printStringPKc@plt
 686      E7800000 
 687              	.LVL89:
  20:test/System_Mode_test.cpp ****             for (uint64 k = 0; k < 30000; k++) { /* busy wait */ }
 688              		.loc 1 20 9 is_stmt 1
 689              	.LBB16:
  20:test/System_Mode_test.cpp ****             for (uint64 k = 0; k < 30000; k++) { /* busy wait */ }
 690              		.loc 1 20 21 is_stmt 0
 691 04b0 93040000 		li	s1,0
 692 04b4 6FF09FF9 		j	.L38
 693              	.LVL90:
 694              	.L34:
 695              	.LBE16:
 696              	.LBE17:
 697              	.LBE10:
  25:test/System_Mode_test.cpp ****     finishedA = true;
 698              		.loc 1 25 5 is_stmt 1
  25:test/System_Mode_test.cpp ****     finishedA = true;
 699              		.loc 1 25 16 is_stmt 0
 700 04b8 17050000 		lla	a0,.LC9
 700      13050500 
 701 04c0 97000000 		call	_Z11printStringPKc@plt
 701      E7800000 
 702              	.LVL91:
  26:test/System_Mode_test.cpp **** }
 703              		.loc 1 26 5 is_stmt 1
  26:test/System_Mode_test.cpp **** }
 704              		.loc 1 26 15 is_stmt 0
 705 04c8 93071000 		li	a5,1
 706 04cc 17070000 		sb	a5,.LANCHOR0+3,a4
 706      2300F700 
  27:test/System_Mode_test.cpp **** 
 707              		.loc 1 27 1
 708 04d4 83308101 		ld	ra,24(sp)
 709              		.cfi_restore 1
 710 04d8 03340101 		ld	s0,16(sp)
 711              		.cfi_restore 8
 712              		.cfi_def_cfa 2, 32
 713 04dc 83348100 		ld	s1,8(sp)
 714              		.cfi_restore 9
 715 04e0 03390100 		ld	s2,0(sp)
 716              		.cfi_restore 18
 717              	.LVL92:
 718 04e4 13010102 		addi	sp,sp,32
 719              		.cfi_def_cfa_offset 0
 720 04e8 67800000 		jr	ra
 721              		.cfi_endproc
 722              	.LFE38:
 724              		.section	.rodata.str1.8
 725 009e 0000     		.align	3
 726              	.LC13:
 727 00a0 54687265 		.string	"ThreadA created\n"
 727      61644120 
 727      63726561 
 727      7465640A 
GAS LISTING /tmp/ccy99jGc.s 			page 19


 727      00
 728 00b1 00000000 		.align	3
 728      000000
 729              	.LC14:
 730 00b8 54687265 		.string	"ThreadB created\n"
 730      61644220 
 730      63726561 
 730      7465640A 
 730      00
 731 00c9 00000000 		.align	3
 731      000000
 732              	.LC15:
 733 00d0 54687265 		.string	"ThreadC created\n"
 733      61644320 
 733      63726561 
 733      7465640A 
 733      00
 734 00e1 00000000 		.align	3
 734      000000
 735              	.LC16:
 736 00e8 54687265 		.string	"ThreadD created\n"
 736      61644420 
 736      63726561 
 736      7465640A 
 736      00
 737              		.text
 738              		.align	2
 739              		.globl	_Z16System_Mode_testv
 741              	_Z16System_Mode_testv:
 742              	.LFB42:
  93:test/System_Mode_test.cpp **** 
  94:test/System_Mode_test.cpp **** 
  95:test/System_Mode_test.cpp **** void System_Mode_test() {
 743              		.loc 1 95 25 is_stmt 1
 744              		.cfi_startproc
 745 04ec 130101FD 		addi	sp,sp,-48
 746              		.cfi_def_cfa_offset 48
 747 04f0 23341102 		sd	ra,40(sp)
 748 04f4 23308102 		sd	s0,32(sp)
 749              		.cfi_offset 1, -8
 750              		.cfi_offset 8, -16
 751 04f8 13040103 		addi	s0,sp,48
 752              		.cfi_def_cfa 8, 0
  96:test/System_Mode_test.cpp ****     thread_t threads[4];
 753              		.loc 1 96 5
  97:test/System_Mode_test.cpp ****     thread_create(&threads[0], workerBodyA, nullptr);
 754              		.loc 1 97 5
 755              		.loc 1 97 18 is_stmt 0
 756 04fc 13060000 		li	a2,0
 757 0500 97050000 		lla	a1,_ZL11workerBodyAPv
 757      93850500 
 758 0508 130504FD 		addi	a0,s0,-48
 759 050c 97000000 		call	_Z13thread_createPP3TCBPFvPvES2_@plt
 759      E7800000 
 760              	.LVL93:
  98:test/System_Mode_test.cpp ****     printString("ThreadA created\n");
 761              		.loc 1 98 5 is_stmt 1
GAS LISTING /tmp/ccy99jGc.s 			page 20


 762              		.loc 1 98 16 is_stmt 0
 763 0514 17050000 		lla	a0,.LC13
 763      13050500 
 764 051c 97000000 		call	_Z11printStringPKc@plt
 764      E7800000 
 765              	.LVL94:
  99:test/System_Mode_test.cpp **** 
 100:test/System_Mode_test.cpp ****     thread_create(&threads[1], workerBodyB, nullptr);
 766              		.loc 1 100 5 is_stmt 1
 767              		.loc 1 100 18 is_stmt 0
 768 0524 13060000 		li	a2,0
 769 0528 97050000 		lla	a1,_ZL11workerBodyBPv
 769      93850500 
 770 0530 130584FD 		addi	a0,s0,-40
 771 0534 97000000 		call	_Z13thread_createPP3TCBPFvPvES2_@plt
 771      E7800000 
 772              	.LVL95:
 101:test/System_Mode_test.cpp ****     printString("ThreadB created\n");
 773              		.loc 1 101 5 is_stmt 1
 774              		.loc 1 101 16 is_stmt 0
 775 053c 17050000 		lla	a0,.LC14
 775      13050500 
 776 0544 97000000 		call	_Z11printStringPKc@plt
 776      E7800000 
 777              	.LVL96:
 102:test/System_Mode_test.cpp **** 
 103:test/System_Mode_test.cpp ****     thread_create(&threads[2], workerBodyC, nullptr);
 778              		.loc 1 103 5 is_stmt 1
 779              		.loc 1 103 18 is_stmt 0
 780 054c 13060000 		li	a2,0
 781 0550 97050000 		lla	a1,_ZL11workerBodyCPv
 781      93850500 
 782 0558 130504FE 		addi	a0,s0,-32
 783 055c 97000000 		call	_Z13thread_createPP3TCBPFvPvES2_@plt
 783      E7800000 
 784              	.LVL97:
 104:test/System_Mode_test.cpp ****     printString("ThreadC created\n");
 785              		.loc 1 104 5 is_stmt 1
 786              		.loc 1 104 16 is_stmt 0
 787 0564 17050000 		lla	a0,.LC15
 787      13050500 
 788 056c 97000000 		call	_Z11printStringPKc@plt
 788      E7800000 
 789              	.LVL98:
 105:test/System_Mode_test.cpp **** 
 106:test/System_Mode_test.cpp ****     thread_create(&threads[3], workerBodyD, nullptr);
 790              		.loc 1 106 5 is_stmt 1
 791              		.loc 1 106 18 is_stmt 0
 792 0574 13060000 		li	a2,0
 793 0578 97050000 		lla	a1,_ZL11workerBodyDPv
 793      93850500 
 794 0580 130584FE 		addi	a0,s0,-24
 795 0584 97000000 		call	_Z13thread_createPP3TCBPFvPvES2_@plt
 795      E7800000 
 796              	.LVL99:
 107:test/System_Mode_test.cpp ****     printString("ThreadD created\n");
 797              		.loc 1 107 5 is_stmt 1
GAS LISTING /tmp/ccy99jGc.s 			page 21


 798              		.loc 1 107 16 is_stmt 0
 799 058c 17050000 		lla	a0,.LC16
 799      13050500 
 800 0594 97000000 		call	_Z11printStringPKc@plt
 800      E7800000 
 801              	.LVL100:
 802 059c 6F00C000 		j	.L43
 803              	.L42:
 108:test/System_Mode_test.cpp **** 
 109:test/System_Mode_test.cpp ****     while (!(finishedA && finishedB && finishedC && finishedD)) {
 110:test/System_Mode_test.cpp ****         thread_dispatch();
 804              		.loc 1 110 9 is_stmt 1
 805              		.loc 1 110 24 is_stmt 0
 806 05a0 97000000 		call	_Z15thread_dispatchv@plt
 806      E7800000 
 807              	.LVL101:
 808              	.L43:
 109:test/System_Mode_test.cpp ****         thread_dispatch();
 809              		.loc 1 109 5 is_stmt 1
 109:test/System_Mode_test.cpp ****         thread_dispatch();
 810              		.loc 1 109 12
 109:test/System_Mode_test.cpp ****         thread_dispatch();
 811              		.loc 1 109 14 is_stmt 0
 812 05a8 97070000 		lbu	a5,.LANCHOR0+3
 812      83C70700 
 109:test/System_Mode_test.cpp ****         thread_dispatch();
 813              		.loc 1 109 12
 814 05b0 E38807FE 		beqz	a5,.L42
 109:test/System_Mode_test.cpp ****         thread_dispatch();
 815              		.loc 1 109 27 discriminator 2
 816 05b4 97070000 		lbu	a5,.LANCHOR0+2
 816      83C70700 
 109:test/System_Mode_test.cpp ****         thread_dispatch();
 817              		.loc 1 109 24 discriminator 2
 818 05bc E38207FE 		beqz	a5,.L42
 109:test/System_Mode_test.cpp ****         thread_dispatch();
 819              		.loc 1 109 40 discriminator 4
 820 05c0 97070000 		lbu	a5,.LANCHOR0+1
 820      83C70700 
 109:test/System_Mode_test.cpp ****         thread_dispatch();
 821              		.loc 1 109 37 discriminator 4
 822 05c8 E38C07FC 		beqz	a5,.L42
 109:test/System_Mode_test.cpp ****         thread_dispatch();
 823              		.loc 1 109 53 discriminator 6
 824 05cc 97070000 		lbu	a5,.LANCHOR0
 824      83C70700 
 109:test/System_Mode_test.cpp ****         thread_dispatch();
 825              		.loc 1 109 12 discriminator 6
 826 05d4 E38607FC 		beqz	a5,.L42
 111:test/System_Mode_test.cpp ****     }
 112:test/System_Mode_test.cpp **** 
 113:test/System_Mode_test.cpp **** }
 827              		.loc 1 113 1
 828 05d8 83308102 		ld	ra,40(sp)
 829              		.cfi_restore 1
 830 05dc 03340102 		ld	s0,32(sp)
 831              		.cfi_restore 8
GAS LISTING /tmp/ccy99jGc.s 			page 22


 832              		.cfi_def_cfa 2, 48
 833 05e0 13010103 		addi	sp,sp,48
 834              		.cfi_def_cfa_offset 0
 835 05e4 67800000 		jr	ra
 836              		.cfi_endproc
 837              	.LFE42:
 839              		.bss
 840              		.set	.LANCHOR0,. + 0
 843              	_ZL9finishedD:
 844 0000 00       		.zero	1
 847              	_ZL9finishedC:
 848 0001 00       		.zero	1
 851              	_ZL9finishedB:
 852 0002 00       		.zero	1
 855              	_ZL9finishedA:
 856 0003 00       		.zero	1
 857              		.text
 858              	.Letext0:
 859              		.file 2 "test/../h/../lib/hw.h"
 860              		.file 3 "test/../h/tcb.hpp"
 861              		.file 4 "test/../h/syscall_c.hpp"
 862              		.file 5 "test/printing.hpp"
GAS LISTING /tmp/ccy99jGc.s 			page 23

